ARM GAS  /tmp/cc1VkgmM.s 			page 1


   1              		.cpu cortex-m4
   2              		.eabi_attribute 27, 1
   3              		.eabi_attribute 28, 1
   4              		.eabi_attribute 20, 1
   5              		.eabi_attribute 21, 1
   6              		.eabi_attribute 23, 3
   7              		.eabi_attribute 24, 1
   8              		.eabi_attribute 25, 1
   9              		.eabi_attribute 26, 1
  10              		.eabi_attribute 30, 6
  11              		.eabi_attribute 34, 1
  12              		.eabi_attribute 18, 4
  13              		.file	"stm32g4xx_hal_flash_ex.c"
  14              		.text
  15              	.Ltext0:
  16              		.cfi_sections	.debug_frame
  17              		.section	.text.HAL_FLASHEx_Erase,"ax",%progbits
  18              		.align	1
  19              		.global	HAL_FLASHEx_Erase
  20              		.arch armv7e-m
  21              		.syntax unified
  22              		.thumb
  23              		.thumb_func
  24              		.fpu fpv4-sp-d16
  26              	HAL_FLASHEx_Erase:
  27              	.LFB325:
  28              		.file 1 "Drivers/STM32G4xx_HAL_Driver/Src/stm32g4xx_hal_flash_ex.c"
   1:Drivers/STM32G4xx_HAL_Driver/Src/stm32g4xx_hal_flash_ex.c **** /**
   2:Drivers/STM32G4xx_HAL_Driver/Src/stm32g4xx_hal_flash_ex.c ****   ******************************************************************************
   3:Drivers/STM32G4xx_HAL_Driver/Src/stm32g4xx_hal_flash_ex.c ****   * @file    stm32g4xx_hal_flash_ex.c
   4:Drivers/STM32G4xx_HAL_Driver/Src/stm32g4xx_hal_flash_ex.c ****   * @author  MCD Application Team
   5:Drivers/STM32G4xx_HAL_Driver/Src/stm32g4xx_hal_flash_ex.c ****   * @brief   Extended FLASH HAL module driver.
   6:Drivers/STM32G4xx_HAL_Driver/Src/stm32g4xx_hal_flash_ex.c ****   *          This file provides firmware functions to manage the following
   7:Drivers/STM32G4xx_HAL_Driver/Src/stm32g4xx_hal_flash_ex.c ****   *          functionalities of the FLASH extended peripheral:
   8:Drivers/STM32G4xx_HAL_Driver/Src/stm32g4xx_hal_flash_ex.c ****   *           + Extended programming operations functions
   9:Drivers/STM32G4xx_HAL_Driver/Src/stm32g4xx_hal_flash_ex.c ****   *
  10:Drivers/STM32G4xx_HAL_Driver/Src/stm32g4xx_hal_flash_ex.c ****   @verbatim
  11:Drivers/STM32G4xx_HAL_Driver/Src/stm32g4xx_hal_flash_ex.c ****   ==============================================================================
  12:Drivers/STM32G4xx_HAL_Driver/Src/stm32g4xx_hal_flash_ex.c ****                    ##### Flash Extended features #####
  13:Drivers/STM32G4xx_HAL_Driver/Src/stm32g4xx_hal_flash_ex.c ****   ==============================================================================
  14:Drivers/STM32G4xx_HAL_Driver/Src/stm32g4xx_hal_flash_ex.c **** 
  15:Drivers/STM32G4xx_HAL_Driver/Src/stm32g4xx_hal_flash_ex.c ****   [..] Comparing to other previous devices, the FLASH interface for STM32G4xx
  16:Drivers/STM32G4xx_HAL_Driver/Src/stm32g4xx_hal_flash_ex.c ****        devices contains the following additional features
  17:Drivers/STM32G4xx_HAL_Driver/Src/stm32g4xx_hal_flash_ex.c **** 
  18:Drivers/STM32G4xx_HAL_Driver/Src/stm32g4xx_hal_flash_ex.c ****        (+) Capacity up to 512 Kbytes with dual bank architecture supporting read-while-write
  19:Drivers/STM32G4xx_HAL_Driver/Src/stm32g4xx_hal_flash_ex.c ****            capability (RWW)
  20:Drivers/STM32G4xx_HAL_Driver/Src/stm32g4xx_hal_flash_ex.c ****        (+) Dual bank 64-bits memory organization with possibility of single bank 128-bits
  21:Drivers/STM32G4xx_HAL_Driver/Src/stm32g4xx_hal_flash_ex.c ****        (+) Protected areas including WRP, PCROP and Securable memory
  22:Drivers/STM32G4xx_HAL_Driver/Src/stm32g4xx_hal_flash_ex.c **** 
  23:Drivers/STM32G4xx_HAL_Driver/Src/stm32g4xx_hal_flash_ex.c ****                         ##### How to use this driver #####
  24:Drivers/STM32G4xx_HAL_Driver/Src/stm32g4xx_hal_flash_ex.c ****   ==============================================================================
  25:Drivers/STM32G4xx_HAL_Driver/Src/stm32g4xx_hal_flash_ex.c ****   [..] This driver provides functions to configure and program the FLASH memory
  26:Drivers/STM32G4xx_HAL_Driver/Src/stm32g4xx_hal_flash_ex.c ****        of all STM32G4xx devices. It includes
  27:Drivers/STM32G4xx_HAL_Driver/Src/stm32g4xx_hal_flash_ex.c ****       (#) Flash Memory Erase functions:
  28:Drivers/STM32G4xx_HAL_Driver/Src/stm32g4xx_hal_flash_ex.c ****            (++) Lock and Unlock the FLASH interface using HAL_FLASH_Unlock() and
  29:Drivers/STM32G4xx_HAL_Driver/Src/stm32g4xx_hal_flash_ex.c ****                 HAL_FLASH_Lock() functions
  30:Drivers/STM32G4xx_HAL_Driver/Src/stm32g4xx_hal_flash_ex.c ****            (++) Erase function: Erase pages, or mass erase banks
ARM GAS  /tmp/cc1VkgmM.s 			page 2


  31:Drivers/STM32G4xx_HAL_Driver/Src/stm32g4xx_hal_flash_ex.c ****            (++) There are two modes of erase :
  32:Drivers/STM32G4xx_HAL_Driver/Src/stm32g4xx_hal_flash_ex.c ****              (+++) Polling Mode using HAL_FLASHEx_Erase()
  33:Drivers/STM32G4xx_HAL_Driver/Src/stm32g4xx_hal_flash_ex.c ****              (+++) Interrupt Mode using HAL_FLASHEx_Erase_IT()
  34:Drivers/STM32G4xx_HAL_Driver/Src/stm32g4xx_hal_flash_ex.c **** 
  35:Drivers/STM32G4xx_HAL_Driver/Src/stm32g4xx_hal_flash_ex.c ****       (#) Option Bytes Programming function: Use HAL_FLASHEx_OBProgram() to:
  36:Drivers/STM32G4xx_HAL_Driver/Src/stm32g4xx_hal_flash_ex.c ****         (++) Configure the write protection areas (WRP)
  37:Drivers/STM32G4xx_HAL_Driver/Src/stm32g4xx_hal_flash_ex.c ****         (++) Set the Read protection Level (RDP)
  38:Drivers/STM32G4xx_HAL_Driver/Src/stm32g4xx_hal_flash_ex.c ****         (++) Program the user Option Bytes
  39:Drivers/STM32G4xx_HAL_Driver/Src/stm32g4xx_hal_flash_ex.c ****         (++) Configure the Proprietary Code ReadOut protection areas (PCROP)
  40:Drivers/STM32G4xx_HAL_Driver/Src/stm32g4xx_hal_flash_ex.c ****         (++) Configure the Securable memory areas
  41:Drivers/STM32G4xx_HAL_Driver/Src/stm32g4xx_hal_flash_ex.c ****         (++) Configure the Boot Lock
  42:Drivers/STM32G4xx_HAL_Driver/Src/stm32g4xx_hal_flash_ex.c **** 
  43:Drivers/STM32G4xx_HAL_Driver/Src/stm32g4xx_hal_flash_ex.c ****       (#) Get Option Bytes Configuration function: Use HAL_FLASHEx_OBGetConfig() to:
  44:Drivers/STM32G4xx_HAL_Driver/Src/stm32g4xx_hal_flash_ex.c ****         (++) Get the configuration of write protection areas (WRP)
  45:Drivers/STM32G4xx_HAL_Driver/Src/stm32g4xx_hal_flash_ex.c ****         (++) Get the level of read protection (RDP)
  46:Drivers/STM32G4xx_HAL_Driver/Src/stm32g4xx_hal_flash_ex.c ****         (++) Get the value of the user Option Bytes
  47:Drivers/STM32G4xx_HAL_Driver/Src/stm32g4xx_hal_flash_ex.c ****         (++) Get the configuration of Proprietary Code ReadOut Protection areas (PCROP)
  48:Drivers/STM32G4xx_HAL_Driver/Src/stm32g4xx_hal_flash_ex.c ****         (++) Get the configuration of Securable memory areas
  49:Drivers/STM32G4xx_HAL_Driver/Src/stm32g4xx_hal_flash_ex.c ****         (++) Get the status of Boot Lock
  50:Drivers/STM32G4xx_HAL_Driver/Src/stm32g4xx_hal_flash_ex.c **** 
  51:Drivers/STM32G4xx_HAL_Driver/Src/stm32g4xx_hal_flash_ex.c ****       (#) Activation of Securable memory area: Use HAL_FLASHEx_EnableSecMemProtection()
  52:Drivers/STM32G4xx_HAL_Driver/Src/stm32g4xx_hal_flash_ex.c ****         (++) Deny the access to securable memory area
  53:Drivers/STM32G4xx_HAL_Driver/Src/stm32g4xx_hal_flash_ex.c **** 
  54:Drivers/STM32G4xx_HAL_Driver/Src/stm32g4xx_hal_flash_ex.c ****       (#) Enable or disable debugger: Use HAL_FLASHEx_EnableDebugger() or
  55:Drivers/STM32G4xx_HAL_Driver/Src/stm32g4xx_hal_flash_ex.c ****           HAL_FLASHEx_DisableDebugger()
  56:Drivers/STM32G4xx_HAL_Driver/Src/stm32g4xx_hal_flash_ex.c **** 
  57:Drivers/STM32G4xx_HAL_Driver/Src/stm32g4xx_hal_flash_ex.c ****   @endverbatim
  58:Drivers/STM32G4xx_HAL_Driver/Src/stm32g4xx_hal_flash_ex.c ****   ******************************************************************************
  59:Drivers/STM32G4xx_HAL_Driver/Src/stm32g4xx_hal_flash_ex.c ****   * @attention
  60:Drivers/STM32G4xx_HAL_Driver/Src/stm32g4xx_hal_flash_ex.c ****   *
  61:Drivers/STM32G4xx_HAL_Driver/Src/stm32g4xx_hal_flash_ex.c ****   * <h2><center>&copy; COPYRIGHT(c) 2019 STMicroelectronics</center></h2>
  62:Drivers/STM32G4xx_HAL_Driver/Src/stm32g4xx_hal_flash_ex.c ****   *
  63:Drivers/STM32G4xx_HAL_Driver/Src/stm32g4xx_hal_flash_ex.c ****   * This software component is licensed by ST under BSD 3-Clause license,
  64:Drivers/STM32G4xx_HAL_Driver/Src/stm32g4xx_hal_flash_ex.c ****   * the "License"; You may not use this file except in compliance with the
  65:Drivers/STM32G4xx_HAL_Driver/Src/stm32g4xx_hal_flash_ex.c ****   * License. You may obtain a copy of the License at:
  66:Drivers/STM32G4xx_HAL_Driver/Src/stm32g4xx_hal_flash_ex.c ****   *                       opensource.org/licenses/BSD-3-Clause
  67:Drivers/STM32G4xx_HAL_Driver/Src/stm32g4xx_hal_flash_ex.c ****   *
  68:Drivers/STM32G4xx_HAL_Driver/Src/stm32g4xx_hal_flash_ex.c ****   ******************************************************************************
  69:Drivers/STM32G4xx_HAL_Driver/Src/stm32g4xx_hal_flash_ex.c ****   */
  70:Drivers/STM32G4xx_HAL_Driver/Src/stm32g4xx_hal_flash_ex.c **** 
  71:Drivers/STM32G4xx_HAL_Driver/Src/stm32g4xx_hal_flash_ex.c **** /* Includes ------------------------------------------------------------------*/
  72:Drivers/STM32G4xx_HAL_Driver/Src/stm32g4xx_hal_flash_ex.c **** #include "stm32g4xx_hal.h"
  73:Drivers/STM32G4xx_HAL_Driver/Src/stm32g4xx_hal_flash_ex.c **** 
  74:Drivers/STM32G4xx_HAL_Driver/Src/stm32g4xx_hal_flash_ex.c **** /** @addtogroup STM32G4xx_HAL_Driver
  75:Drivers/STM32G4xx_HAL_Driver/Src/stm32g4xx_hal_flash_ex.c ****   * @{
  76:Drivers/STM32G4xx_HAL_Driver/Src/stm32g4xx_hal_flash_ex.c ****   */
  77:Drivers/STM32G4xx_HAL_Driver/Src/stm32g4xx_hal_flash_ex.c **** 
  78:Drivers/STM32G4xx_HAL_Driver/Src/stm32g4xx_hal_flash_ex.c **** /** @defgroup FLASHEx FLASHEx
  79:Drivers/STM32G4xx_HAL_Driver/Src/stm32g4xx_hal_flash_ex.c ****   * @brief FLASH Extended HAL module driver
  80:Drivers/STM32G4xx_HAL_Driver/Src/stm32g4xx_hal_flash_ex.c ****   * @{
  81:Drivers/STM32G4xx_HAL_Driver/Src/stm32g4xx_hal_flash_ex.c ****   */
  82:Drivers/STM32G4xx_HAL_Driver/Src/stm32g4xx_hal_flash_ex.c **** 
  83:Drivers/STM32G4xx_HAL_Driver/Src/stm32g4xx_hal_flash_ex.c **** #ifdef HAL_FLASH_MODULE_ENABLED
  84:Drivers/STM32G4xx_HAL_Driver/Src/stm32g4xx_hal_flash_ex.c **** 
  85:Drivers/STM32G4xx_HAL_Driver/Src/stm32g4xx_hal_flash_ex.c **** /* Private typedef -----------------------------------------------------------*/
  86:Drivers/STM32G4xx_HAL_Driver/Src/stm32g4xx_hal_flash_ex.c **** /* Private define ------------------------------------------------------------*/
  87:Drivers/STM32G4xx_HAL_Driver/Src/stm32g4xx_hal_flash_ex.c **** /* Private macro -------------------------------------------------------------*/
ARM GAS  /tmp/cc1VkgmM.s 			page 3


  88:Drivers/STM32G4xx_HAL_Driver/Src/stm32g4xx_hal_flash_ex.c **** /* Private variables ---------------------------------------------------------*/
  89:Drivers/STM32G4xx_HAL_Driver/Src/stm32g4xx_hal_flash_ex.c **** /* Private function prototypes -----------------------------------------------*/
  90:Drivers/STM32G4xx_HAL_Driver/Src/stm32g4xx_hal_flash_ex.c **** /** @defgroup FLASHEx_Private_Functions FLASHEx Private Functions
  91:Drivers/STM32G4xx_HAL_Driver/Src/stm32g4xx_hal_flash_ex.c ****   * @{
  92:Drivers/STM32G4xx_HAL_Driver/Src/stm32g4xx_hal_flash_ex.c ****   */
  93:Drivers/STM32G4xx_HAL_Driver/Src/stm32g4xx_hal_flash_ex.c **** static void              FLASH_MassErase(uint32_t Banks);
  94:Drivers/STM32G4xx_HAL_Driver/Src/stm32g4xx_hal_flash_ex.c **** static HAL_StatusTypeDef FLASH_OB_WRPConfig(uint32_t WRPArea, uint32_t WRPStartOffset, uint32_t WRD
  95:Drivers/STM32G4xx_HAL_Driver/Src/stm32g4xx_hal_flash_ex.c **** static HAL_StatusTypeDef FLASH_OB_RDPConfig(uint32_t RDPLevel);
  96:Drivers/STM32G4xx_HAL_Driver/Src/stm32g4xx_hal_flash_ex.c **** static HAL_StatusTypeDef FLASH_OB_UserConfig(uint32_t UserType, uint32_t UserConfig);
  97:Drivers/STM32G4xx_HAL_Driver/Src/stm32g4xx_hal_flash_ex.c **** static HAL_StatusTypeDef FLASH_OB_PCROPConfig(uint32_t PCROPConfig, uint32_t PCROPStartAddr, uint32
  98:Drivers/STM32G4xx_HAL_Driver/Src/stm32g4xx_hal_flash_ex.c **** static void              FLASH_OB_GetWRP(uint32_t WRPArea, uint32_t *WRPStartOffset, uint32_t *WRDP
  99:Drivers/STM32G4xx_HAL_Driver/Src/stm32g4xx_hal_flash_ex.c **** static uint32_t          FLASH_OB_GetRDP(void);
 100:Drivers/STM32G4xx_HAL_Driver/Src/stm32g4xx_hal_flash_ex.c **** static uint32_t          FLASH_OB_GetUser(void);
 101:Drivers/STM32G4xx_HAL_Driver/Src/stm32g4xx_hal_flash_ex.c **** static void              FLASH_OB_GetPCROP(uint32_t *PCROPConfig, uint32_t *PCROPStartAddr, uint32_
 102:Drivers/STM32G4xx_HAL_Driver/Src/stm32g4xx_hal_flash_ex.c **** static HAL_StatusTypeDef FLASH_OB_SecMemConfig(uint32_t SecMemBank, uint32_t SecMemSize);
 103:Drivers/STM32G4xx_HAL_Driver/Src/stm32g4xx_hal_flash_ex.c **** static void              FLASH_OB_GetSecMem(uint32_t SecMemBank, uint32_t *SecMemSize);
 104:Drivers/STM32G4xx_HAL_Driver/Src/stm32g4xx_hal_flash_ex.c **** static HAL_StatusTypeDef FLASH_OB_BootLockConfig(uint32_t BootLockConfig);
 105:Drivers/STM32G4xx_HAL_Driver/Src/stm32g4xx_hal_flash_ex.c **** static uint32_t          FLASH_OB_GetBootLock(void);
 106:Drivers/STM32G4xx_HAL_Driver/Src/stm32g4xx_hal_flash_ex.c **** 
 107:Drivers/STM32G4xx_HAL_Driver/Src/stm32g4xx_hal_flash_ex.c **** /**
 108:Drivers/STM32G4xx_HAL_Driver/Src/stm32g4xx_hal_flash_ex.c ****   * @}
 109:Drivers/STM32G4xx_HAL_Driver/Src/stm32g4xx_hal_flash_ex.c ****   */
 110:Drivers/STM32G4xx_HAL_Driver/Src/stm32g4xx_hal_flash_ex.c **** 
 111:Drivers/STM32G4xx_HAL_Driver/Src/stm32g4xx_hal_flash_ex.c **** /* Exported functions -------------------------------------------------------*/
 112:Drivers/STM32G4xx_HAL_Driver/Src/stm32g4xx_hal_flash_ex.c **** /** @defgroup FLASHEx_Exported_Functions FLASHEx Exported Functions
 113:Drivers/STM32G4xx_HAL_Driver/Src/stm32g4xx_hal_flash_ex.c ****   * @{
 114:Drivers/STM32G4xx_HAL_Driver/Src/stm32g4xx_hal_flash_ex.c ****   */
 115:Drivers/STM32G4xx_HAL_Driver/Src/stm32g4xx_hal_flash_ex.c **** 
 116:Drivers/STM32G4xx_HAL_Driver/Src/stm32g4xx_hal_flash_ex.c **** /** @defgroup FLASHEx_Exported_Functions_Group1 Extended IO operation functions
 117:Drivers/STM32G4xx_HAL_Driver/Src/stm32g4xx_hal_flash_ex.c ****   * @brief   Extended IO operation functions
 118:Drivers/STM32G4xx_HAL_Driver/Src/stm32g4xx_hal_flash_ex.c ****   *
 119:Drivers/STM32G4xx_HAL_Driver/Src/stm32g4xx_hal_flash_ex.c **** @verbatim
 120:Drivers/STM32G4xx_HAL_Driver/Src/stm32g4xx_hal_flash_ex.c ****  ===============================================================================
 121:Drivers/STM32G4xx_HAL_Driver/Src/stm32g4xx_hal_flash_ex.c ****                 ##### Extended programming operation functions #####
 122:Drivers/STM32G4xx_HAL_Driver/Src/stm32g4xx_hal_flash_ex.c ****  ===============================================================================
 123:Drivers/STM32G4xx_HAL_Driver/Src/stm32g4xx_hal_flash_ex.c ****     [..]
 124:Drivers/STM32G4xx_HAL_Driver/Src/stm32g4xx_hal_flash_ex.c ****     This subsection provides a set of functions allowing to manage the Extended FLASH
 125:Drivers/STM32G4xx_HAL_Driver/Src/stm32g4xx_hal_flash_ex.c ****     programming operations Operations.
 126:Drivers/STM32G4xx_HAL_Driver/Src/stm32g4xx_hal_flash_ex.c **** 
 127:Drivers/STM32G4xx_HAL_Driver/Src/stm32g4xx_hal_flash_ex.c **** @endverbatim
 128:Drivers/STM32G4xx_HAL_Driver/Src/stm32g4xx_hal_flash_ex.c ****   * @{
 129:Drivers/STM32G4xx_HAL_Driver/Src/stm32g4xx_hal_flash_ex.c ****   */
 130:Drivers/STM32G4xx_HAL_Driver/Src/stm32g4xx_hal_flash_ex.c **** /**
 131:Drivers/STM32G4xx_HAL_Driver/Src/stm32g4xx_hal_flash_ex.c ****   * @brief  Perform a mass erase or erase the specified FLASH memory pages.
 132:Drivers/STM32G4xx_HAL_Driver/Src/stm32g4xx_hal_flash_ex.c ****   * @param[in]  pEraseInit pointer to an FLASH_EraseInitTypeDef structure that
 133:Drivers/STM32G4xx_HAL_Driver/Src/stm32g4xx_hal_flash_ex.c ****   *         contains the configuration information for the erasing.
 134:Drivers/STM32G4xx_HAL_Driver/Src/stm32g4xx_hal_flash_ex.c ****   * @param[out]  PageError pointer to variable that contains the configuration
 135:Drivers/STM32G4xx_HAL_Driver/Src/stm32g4xx_hal_flash_ex.c ****   *         information on faulty page in case of error (0xFFFFFFFF means that all
 136:Drivers/STM32G4xx_HAL_Driver/Src/stm32g4xx_hal_flash_ex.c ****   *         the pages have been correctly erased).
 137:Drivers/STM32G4xx_HAL_Driver/Src/stm32g4xx_hal_flash_ex.c ****   * @retval HAL_Status
 138:Drivers/STM32G4xx_HAL_Driver/Src/stm32g4xx_hal_flash_ex.c ****   */
 139:Drivers/STM32G4xx_HAL_Driver/Src/stm32g4xx_hal_flash_ex.c **** HAL_StatusTypeDef HAL_FLASHEx_Erase(FLASH_EraseInitTypeDef *pEraseInit, uint32_t *PageError)
 140:Drivers/STM32G4xx_HAL_Driver/Src/stm32g4xx_hal_flash_ex.c **** {
  29              		.loc 1 140 1
  30              		.cfi_startproc
  31              		@ args = 0, pretend = 0, frame = 16
  32              		@ frame_needed = 1, uses_anonymous_args = 0
ARM GAS  /tmp/cc1VkgmM.s 			page 4


  33 0000 80B5     		push	{r7, lr}
  34              	.LCFI0:
  35              		.cfi_def_cfa_offset 8
  36              		.cfi_offset 7, -8
  37              		.cfi_offset 14, -4
  38 0002 84B0     		sub	sp, sp, #16
  39              	.LCFI1:
  40              		.cfi_def_cfa_offset 24
  41 0004 00AF     		add	r7, sp, #0
  42              	.LCFI2:
  43              		.cfi_def_cfa_register 7
  44 0006 7860     		str	r0, [r7, #4]
  45 0008 3960     		str	r1, [r7]
 141:Drivers/STM32G4xx_HAL_Driver/Src/stm32g4xx_hal_flash_ex.c ****   HAL_StatusTypeDef status;
 142:Drivers/STM32G4xx_HAL_Driver/Src/stm32g4xx_hal_flash_ex.c ****   uint32_t page_index;
 143:Drivers/STM32G4xx_HAL_Driver/Src/stm32g4xx_hal_flash_ex.c **** 
 144:Drivers/STM32G4xx_HAL_Driver/Src/stm32g4xx_hal_flash_ex.c ****   /* Check the parameters */
 145:Drivers/STM32G4xx_HAL_Driver/Src/stm32g4xx_hal_flash_ex.c ****   assert_param(IS_FLASH_TYPEERASE(pEraseInit->TypeErase));
 146:Drivers/STM32G4xx_HAL_Driver/Src/stm32g4xx_hal_flash_ex.c **** 
 147:Drivers/STM32G4xx_HAL_Driver/Src/stm32g4xx_hal_flash_ex.c ****   /* Process Locked */
 148:Drivers/STM32G4xx_HAL_Driver/Src/stm32g4xx_hal_flash_ex.c ****   __HAL_LOCK(&pFlash);
  46              		.loc 1 148 3
  47 000a 4C4B     		ldr	r3, .L15
  48 000c 1B78     		ldrb	r3, [r3]	@ zero_extendqisi2
  49 000e 012B     		cmp	r3, #1
  50 0010 01D1     		bne	.L2
  51              		.loc 1 148 3 is_stmt 0 discriminator 1
  52 0012 0223     		movs	r3, #2
  53 0014 8DE0     		b	.L3
  54              	.L2:
  55              		.loc 1 148 3 discriminator 2
  56 0016 494B     		ldr	r3, .L15
  57 0018 0122     		movs	r2, #1
  58 001a 1A70     		strb	r2, [r3]
 149:Drivers/STM32G4xx_HAL_Driver/Src/stm32g4xx_hal_flash_ex.c **** 
 150:Drivers/STM32G4xx_HAL_Driver/Src/stm32g4xx_hal_flash_ex.c ****   /* Wait for last operation to be completed */
 151:Drivers/STM32G4xx_HAL_Driver/Src/stm32g4xx_hal_flash_ex.c ****   status = FLASH_WaitForLastOperation((uint32_t)FLASH_TIMEOUT_VALUE);
  59              		.loc 1 151 12 is_stmt 1 discriminator 2
  60 001c 4FF47A70 		mov	r0, #1000
  61 0020 FFF7FEFF 		bl	FLASH_WaitForLastOperation
  62 0024 0346     		mov	r3, r0
  63 0026 FB73     		strb	r3, [r7, #15]
 152:Drivers/STM32G4xx_HAL_Driver/Src/stm32g4xx_hal_flash_ex.c **** 
 153:Drivers/STM32G4xx_HAL_Driver/Src/stm32g4xx_hal_flash_ex.c ****   if (status == HAL_OK)
  64              		.loc 1 153 6 discriminator 2
  65 0028 FB7B     		ldrb	r3, [r7, #15]	@ zero_extendqisi2
  66 002a 002B     		cmp	r3, #0
  67 002c 7DD1     		bne	.L4
 154:Drivers/STM32G4xx_HAL_Driver/Src/stm32g4xx_hal_flash_ex.c ****   {
 155:Drivers/STM32G4xx_HAL_Driver/Src/stm32g4xx_hal_flash_ex.c ****     pFlash.ErrorCode = HAL_FLASH_ERROR_NONE;
  68              		.loc 1 155 22
  69 002e 434B     		ldr	r3, .L15
  70 0030 0022     		movs	r2, #0
  71 0032 5A60     		str	r2, [r3, #4]
 156:Drivers/STM32G4xx_HAL_Driver/Src/stm32g4xx_hal_flash_ex.c **** 
 157:Drivers/STM32G4xx_HAL_Driver/Src/stm32g4xx_hal_flash_ex.c ****     /* Deactivate the cache if they are activated to avoid data misbehavior */
 158:Drivers/STM32G4xx_HAL_Driver/Src/stm32g4xx_hal_flash_ex.c ****     if (READ_BIT(FLASH->ACR, FLASH_ACR_ICEN) != 0U)
ARM GAS  /tmp/cc1VkgmM.s 			page 5


  72              		.loc 1 158 9
  73 0034 424B     		ldr	r3, .L15+4
  74 0036 1B68     		ldr	r3, [r3]
  75 0038 03F40073 		and	r3, r3, #512
  76              		.loc 1 158 8
  77 003c 002B     		cmp	r3, #0
  78 003e 19D0     		beq	.L5
 159:Drivers/STM32G4xx_HAL_Driver/Src/stm32g4xx_hal_flash_ex.c ****     {
 160:Drivers/STM32G4xx_HAL_Driver/Src/stm32g4xx_hal_flash_ex.c ****       /* Disable instruction cache  */
 161:Drivers/STM32G4xx_HAL_Driver/Src/stm32g4xx_hal_flash_ex.c ****       __HAL_FLASH_INSTRUCTION_CACHE_DISABLE();
  79              		.loc 1 161 7
  80 0040 3F4B     		ldr	r3, .L15+4
  81 0042 1B68     		ldr	r3, [r3]
  82 0044 3E4A     		ldr	r2, .L15+4
  83 0046 23F40073 		bic	r3, r3, #512
  84 004a 1360     		str	r3, [r2]
 162:Drivers/STM32G4xx_HAL_Driver/Src/stm32g4xx_hal_flash_ex.c **** 
 163:Drivers/STM32G4xx_HAL_Driver/Src/stm32g4xx_hal_flash_ex.c ****       if (READ_BIT(FLASH->ACR, FLASH_ACR_DCEN) != 0U)
  85              		.loc 1 163 11
  86 004c 3C4B     		ldr	r3, .L15+4
  87 004e 1B68     		ldr	r3, [r3]
  88 0050 03F48063 		and	r3, r3, #1024
  89              		.loc 1 163 10
  90 0054 002B     		cmp	r3, #0
  91 0056 09D0     		beq	.L6
 164:Drivers/STM32G4xx_HAL_Driver/Src/stm32g4xx_hal_flash_ex.c ****       {
 165:Drivers/STM32G4xx_HAL_Driver/Src/stm32g4xx_hal_flash_ex.c ****         /* Disable data cache  */
 166:Drivers/STM32G4xx_HAL_Driver/Src/stm32g4xx_hal_flash_ex.c ****         __HAL_FLASH_DATA_CACHE_DISABLE();
  92              		.loc 1 166 9
  93 0058 394B     		ldr	r3, .L15+4
  94 005a 1B68     		ldr	r3, [r3]
  95 005c 384A     		ldr	r2, .L15+4
  96 005e 23F48063 		bic	r3, r3, #1024
  97 0062 1360     		str	r3, [r2]
 167:Drivers/STM32G4xx_HAL_Driver/Src/stm32g4xx_hal_flash_ex.c ****         pFlash.CacheToReactivate = FLASH_CACHE_ICACHE_DCACHE_ENABLED;
  98              		.loc 1 167 34
  99 0064 354B     		ldr	r3, .L15
 100 0066 0322     		movs	r2, #3
 101 0068 1A77     		strb	r2, [r3, #28]
 102 006a 16E0     		b	.L8
 103              	.L6:
 168:Drivers/STM32G4xx_HAL_Driver/Src/stm32g4xx_hal_flash_ex.c ****       }
 169:Drivers/STM32G4xx_HAL_Driver/Src/stm32g4xx_hal_flash_ex.c ****       else
 170:Drivers/STM32G4xx_HAL_Driver/Src/stm32g4xx_hal_flash_ex.c ****       {
 171:Drivers/STM32G4xx_HAL_Driver/Src/stm32g4xx_hal_flash_ex.c ****         pFlash.CacheToReactivate = FLASH_CACHE_ICACHE_ENABLED;
 104              		.loc 1 171 34
 105 006c 334B     		ldr	r3, .L15
 106 006e 0122     		movs	r2, #1
 107 0070 1A77     		strb	r2, [r3, #28]
 108 0072 12E0     		b	.L8
 109              	.L5:
 172:Drivers/STM32G4xx_HAL_Driver/Src/stm32g4xx_hal_flash_ex.c ****       }
 173:Drivers/STM32G4xx_HAL_Driver/Src/stm32g4xx_hal_flash_ex.c ****     }
 174:Drivers/STM32G4xx_HAL_Driver/Src/stm32g4xx_hal_flash_ex.c ****     else if (READ_BIT(FLASH->ACR, FLASH_ACR_DCEN) != 0U)
 110              		.loc 1 174 14
 111 0074 324B     		ldr	r3, .L15+4
 112 0076 1B68     		ldr	r3, [r3]
ARM GAS  /tmp/cc1VkgmM.s 			page 6


 113 0078 03F48063 		and	r3, r3, #1024
 114              		.loc 1 174 13
 115 007c 002B     		cmp	r3, #0
 116 007e 09D0     		beq	.L9
 175:Drivers/STM32G4xx_HAL_Driver/Src/stm32g4xx_hal_flash_ex.c ****     {
 176:Drivers/STM32G4xx_HAL_Driver/Src/stm32g4xx_hal_flash_ex.c ****       /* Disable data cache  */
 177:Drivers/STM32G4xx_HAL_Driver/Src/stm32g4xx_hal_flash_ex.c ****       __HAL_FLASH_DATA_CACHE_DISABLE();
 117              		.loc 1 177 7
 118 0080 2F4B     		ldr	r3, .L15+4
 119 0082 1B68     		ldr	r3, [r3]
 120 0084 2E4A     		ldr	r2, .L15+4
 121 0086 23F48063 		bic	r3, r3, #1024
 122 008a 1360     		str	r3, [r2]
 178:Drivers/STM32G4xx_HAL_Driver/Src/stm32g4xx_hal_flash_ex.c ****       pFlash.CacheToReactivate = FLASH_CACHE_DCACHE_ENABLED;
 123              		.loc 1 178 32
 124 008c 2B4B     		ldr	r3, .L15
 125 008e 0222     		movs	r2, #2
 126 0090 1A77     		strb	r2, [r3, #28]
 127 0092 02E0     		b	.L8
 128              	.L9:
 179:Drivers/STM32G4xx_HAL_Driver/Src/stm32g4xx_hal_flash_ex.c ****     }
 180:Drivers/STM32G4xx_HAL_Driver/Src/stm32g4xx_hal_flash_ex.c ****     else
 181:Drivers/STM32G4xx_HAL_Driver/Src/stm32g4xx_hal_flash_ex.c ****     {
 182:Drivers/STM32G4xx_HAL_Driver/Src/stm32g4xx_hal_flash_ex.c ****       pFlash.CacheToReactivate = FLASH_CACHE_DISABLED;
 129              		.loc 1 182 32
 130 0094 294B     		ldr	r3, .L15
 131 0096 0022     		movs	r2, #0
 132 0098 1A77     		strb	r2, [r3, #28]
 133              	.L8:
 183:Drivers/STM32G4xx_HAL_Driver/Src/stm32g4xx_hal_flash_ex.c ****     }
 184:Drivers/STM32G4xx_HAL_Driver/Src/stm32g4xx_hal_flash_ex.c **** 
 185:Drivers/STM32G4xx_HAL_Driver/Src/stm32g4xx_hal_flash_ex.c ****     if (pEraseInit->TypeErase == FLASH_TYPEERASE_MASSERASE)
 134              		.loc 1 185 19
 135 009a 7B68     		ldr	r3, [r7, #4]
 136 009c 1B68     		ldr	r3, [r3]
 137              		.loc 1 185 8
 138 009e 012B     		cmp	r3, #1
 139 00a0 13D1     		bne	.L10
 186:Drivers/STM32G4xx_HAL_Driver/Src/stm32g4xx_hal_flash_ex.c ****     {
 187:Drivers/STM32G4xx_HAL_Driver/Src/stm32g4xx_hal_flash_ex.c ****       /* Mass erase to be done */
 188:Drivers/STM32G4xx_HAL_Driver/Src/stm32g4xx_hal_flash_ex.c ****       FLASH_MassErase(pEraseInit->Banks);
 140              		.loc 1 188 7
 141 00a2 7B68     		ldr	r3, [r7, #4]
 142 00a4 5B68     		ldr	r3, [r3, #4]
 143 00a6 1846     		mov	r0, r3
 144 00a8 FFF7FEFF 		bl	FLASH_MassErase
 189:Drivers/STM32G4xx_HAL_Driver/Src/stm32g4xx_hal_flash_ex.c **** 
 190:Drivers/STM32G4xx_HAL_Driver/Src/stm32g4xx_hal_flash_ex.c ****       /* Wait for last operation to be completed */
 191:Drivers/STM32G4xx_HAL_Driver/Src/stm32g4xx_hal_flash_ex.c ****       status = FLASH_WaitForLastOperation((uint32_t)FLASH_TIMEOUT_VALUE);
 145              		.loc 1 191 16
 146 00ac 4FF47A70 		mov	r0, #1000
 147 00b0 FFF7FEFF 		bl	FLASH_WaitForLastOperation
 148 00b4 0346     		mov	r3, r0
 149 00b6 FB73     		strb	r3, [r7, #15]
 192:Drivers/STM32G4xx_HAL_Driver/Src/stm32g4xx_hal_flash_ex.c **** 
 193:Drivers/STM32G4xx_HAL_Driver/Src/stm32g4xx_hal_flash_ex.c **** #if defined (FLASH_OPTR_DBANK)
 194:Drivers/STM32G4xx_HAL_Driver/Src/stm32g4xx_hal_flash_ex.c ****       /* If the erase operation is completed, disable the MER1 and MER2 Bits */
ARM GAS  /tmp/cc1VkgmM.s 			page 7


 195:Drivers/STM32G4xx_HAL_Driver/Src/stm32g4xx_hal_flash_ex.c ****       CLEAR_BIT(FLASH->CR, (FLASH_CR_MER1 | FLASH_CR_MER2));
 150              		.loc 1 195 7
 151 00b8 214B     		ldr	r3, .L15+4
 152 00ba 5B69     		ldr	r3, [r3, #20]
 153 00bc 204A     		ldr	r2, .L15+4
 154 00be 23F40043 		bic	r3, r3, #32768
 155 00c2 23F00403 		bic	r3, r3, #4
 156 00c6 5361     		str	r3, [r2, #20]
 157 00c8 2DE0     		b	.L11
 158              	.L10:
 196:Drivers/STM32G4xx_HAL_Driver/Src/stm32g4xx_hal_flash_ex.c **** #else
 197:Drivers/STM32G4xx_HAL_Driver/Src/stm32g4xx_hal_flash_ex.c ****       /* If the erase operation is completed, disable the MER1 Bit */
 198:Drivers/STM32G4xx_HAL_Driver/Src/stm32g4xx_hal_flash_ex.c ****       CLEAR_BIT(FLASH->CR, (FLASH_CR_MER1));
 199:Drivers/STM32G4xx_HAL_Driver/Src/stm32g4xx_hal_flash_ex.c **** #endif
 200:Drivers/STM32G4xx_HAL_Driver/Src/stm32g4xx_hal_flash_ex.c ****     }
 201:Drivers/STM32G4xx_HAL_Driver/Src/stm32g4xx_hal_flash_ex.c ****     else
 202:Drivers/STM32G4xx_HAL_Driver/Src/stm32g4xx_hal_flash_ex.c ****     {
 203:Drivers/STM32G4xx_HAL_Driver/Src/stm32g4xx_hal_flash_ex.c ****       /*Initialization of PageError variable*/
 204:Drivers/STM32G4xx_HAL_Driver/Src/stm32g4xx_hal_flash_ex.c ****       *PageError = 0xFFFFFFFFU;
 159              		.loc 1 204 18
 160 00ca 3B68     		ldr	r3, [r7]
 161 00cc 4FF0FF32 		mov	r2, #-1
 162 00d0 1A60     		str	r2, [r3]
 205:Drivers/STM32G4xx_HAL_Driver/Src/stm32g4xx_hal_flash_ex.c **** 
 206:Drivers/STM32G4xx_HAL_Driver/Src/stm32g4xx_hal_flash_ex.c ****       for (page_index = pEraseInit->Page; page_index < (pEraseInit->Page + pEraseInit->NbPages); pa
 163              		.loc 1 206 23
 164 00d2 7B68     		ldr	r3, [r7, #4]
 165 00d4 9B68     		ldr	r3, [r3, #8]
 166 00d6 BB60     		str	r3, [r7, #8]
 167              		.loc 1 206 7
 168 00d8 1DE0     		b	.L12
 169              	.L14:
 207:Drivers/STM32G4xx_HAL_Driver/Src/stm32g4xx_hal_flash_ex.c ****       {
 208:Drivers/STM32G4xx_HAL_Driver/Src/stm32g4xx_hal_flash_ex.c ****         FLASH_PageErase(page_index, pEraseInit->Banks);
 170              		.loc 1 208 9
 171 00da 7B68     		ldr	r3, [r7, #4]
 172 00dc 5B68     		ldr	r3, [r3, #4]
 173 00de 1946     		mov	r1, r3
 174 00e0 B868     		ldr	r0, [r7, #8]
 175 00e2 FFF7FEFF 		bl	FLASH_PageErase
 209:Drivers/STM32G4xx_HAL_Driver/Src/stm32g4xx_hal_flash_ex.c **** 
 210:Drivers/STM32G4xx_HAL_Driver/Src/stm32g4xx_hal_flash_ex.c ****         /* Wait for last operation to be completed */
 211:Drivers/STM32G4xx_HAL_Driver/Src/stm32g4xx_hal_flash_ex.c ****         status = FLASH_WaitForLastOperation((uint32_t)FLASH_TIMEOUT_VALUE);
 176              		.loc 1 211 18
 177 00e6 4FF47A70 		mov	r0, #1000
 178 00ea FFF7FEFF 		bl	FLASH_WaitForLastOperation
 179 00ee 0346     		mov	r3, r0
 180 00f0 FB73     		strb	r3, [r7, #15]
 212:Drivers/STM32G4xx_HAL_Driver/Src/stm32g4xx_hal_flash_ex.c **** 
 213:Drivers/STM32G4xx_HAL_Driver/Src/stm32g4xx_hal_flash_ex.c ****         /* If the erase operation is completed, disable the PER Bit */
 214:Drivers/STM32G4xx_HAL_Driver/Src/stm32g4xx_hal_flash_ex.c ****         CLEAR_BIT(FLASH->CR, (FLASH_CR_PER | FLASH_CR_PNB));
 181              		.loc 1 214 9
 182 00f2 134B     		ldr	r3, .L15+4
 183 00f4 5B69     		ldr	r3, [r3, #20]
 184 00f6 124A     		ldr	r2, .L15+4
 185 00f8 23F47E73 		bic	r3, r3, #1016
 186 00fc 23F00203 		bic	r3, r3, #2
ARM GAS  /tmp/cc1VkgmM.s 			page 8


 187 0100 5361     		str	r3, [r2, #20]
 215:Drivers/STM32G4xx_HAL_Driver/Src/stm32g4xx_hal_flash_ex.c **** 
 216:Drivers/STM32G4xx_HAL_Driver/Src/stm32g4xx_hal_flash_ex.c ****         if (status != HAL_OK)
 188              		.loc 1 216 12
 189 0102 FB7B     		ldrb	r3, [r7, #15]	@ zero_extendqisi2
 190 0104 002B     		cmp	r3, #0
 191 0106 03D0     		beq	.L13
 217:Drivers/STM32G4xx_HAL_Driver/Src/stm32g4xx_hal_flash_ex.c ****         {
 218:Drivers/STM32G4xx_HAL_Driver/Src/stm32g4xx_hal_flash_ex.c ****           /* In case of error, stop erase procedure and return the faulty page */
 219:Drivers/STM32G4xx_HAL_Driver/Src/stm32g4xx_hal_flash_ex.c ****           *PageError = page_index;
 192              		.loc 1 219 22
 193 0108 3B68     		ldr	r3, [r7]
 194 010a BA68     		ldr	r2, [r7, #8]
 195 010c 1A60     		str	r2, [r3]
 220:Drivers/STM32G4xx_HAL_Driver/Src/stm32g4xx_hal_flash_ex.c ****           break;
 196              		.loc 1 220 11
 197 010e 0AE0     		b	.L11
 198              	.L13:
 206:Drivers/STM32G4xx_HAL_Driver/Src/stm32g4xx_hal_flash_ex.c ****       {
 199              		.loc 1 206 108 discriminator 2
 200 0110 BB68     		ldr	r3, [r7, #8]
 201 0112 0133     		adds	r3, r3, #1
 202 0114 BB60     		str	r3, [r7, #8]
 203              	.L12:
 206:Drivers/STM32G4xx_HAL_Driver/Src/stm32g4xx_hal_flash_ex.c ****       {
 204              		.loc 1 206 67 discriminator 1
 205 0116 7B68     		ldr	r3, [r7, #4]
 206 0118 9A68     		ldr	r2, [r3, #8]
 206:Drivers/STM32G4xx_HAL_Driver/Src/stm32g4xx_hal_flash_ex.c ****       {
 207              		.loc 1 206 86 discriminator 1
 208 011a 7B68     		ldr	r3, [r7, #4]
 209 011c DB68     		ldr	r3, [r3, #12]
 206:Drivers/STM32G4xx_HAL_Driver/Src/stm32g4xx_hal_flash_ex.c ****       {
 210              		.loc 1 206 74 discriminator 1
 211 011e 1344     		add	r3, r3, r2
 206:Drivers/STM32G4xx_HAL_Driver/Src/stm32g4xx_hal_flash_ex.c ****       {
 212              		.loc 1 206 7 discriminator 1
 213 0120 BA68     		ldr	r2, [r7, #8]
 214 0122 9A42     		cmp	r2, r3
 215 0124 D9D3     		bcc	.L14
 216              	.L11:
 221:Drivers/STM32G4xx_HAL_Driver/Src/stm32g4xx_hal_flash_ex.c ****         }
 222:Drivers/STM32G4xx_HAL_Driver/Src/stm32g4xx_hal_flash_ex.c ****       }
 223:Drivers/STM32G4xx_HAL_Driver/Src/stm32g4xx_hal_flash_ex.c ****     }
 224:Drivers/STM32G4xx_HAL_Driver/Src/stm32g4xx_hal_flash_ex.c **** 
 225:Drivers/STM32G4xx_HAL_Driver/Src/stm32g4xx_hal_flash_ex.c ****     /* Flush the caches to be sure of the data consistency */
 226:Drivers/STM32G4xx_HAL_Driver/Src/stm32g4xx_hal_flash_ex.c ****     FLASH_FlushCaches();
 217              		.loc 1 226 5
 218 0126 FFF7FEFF 		bl	FLASH_FlushCaches
 219              	.L4:
 227:Drivers/STM32G4xx_HAL_Driver/Src/stm32g4xx_hal_flash_ex.c ****   }
 228:Drivers/STM32G4xx_HAL_Driver/Src/stm32g4xx_hal_flash_ex.c **** 
 229:Drivers/STM32G4xx_HAL_Driver/Src/stm32g4xx_hal_flash_ex.c ****   /* Process Unlocked */
 230:Drivers/STM32G4xx_HAL_Driver/Src/stm32g4xx_hal_flash_ex.c ****   __HAL_UNLOCK(&pFlash);
 220              		.loc 1 230 3
 221 012a 044B     		ldr	r3, .L15
 222 012c 0022     		movs	r2, #0
ARM GAS  /tmp/cc1VkgmM.s 			page 9


 223 012e 1A70     		strb	r2, [r3]
 231:Drivers/STM32G4xx_HAL_Driver/Src/stm32g4xx_hal_flash_ex.c **** 
 232:Drivers/STM32G4xx_HAL_Driver/Src/stm32g4xx_hal_flash_ex.c ****   return status;
 224              		.loc 1 232 10
 225 0130 FB7B     		ldrb	r3, [r7, #15]	@ zero_extendqisi2
 226              	.L3:
 233:Drivers/STM32G4xx_HAL_Driver/Src/stm32g4xx_hal_flash_ex.c **** }
 227              		.loc 1 233 1
 228 0132 1846     		mov	r0, r3
 229 0134 1037     		adds	r7, r7, #16
 230              	.LCFI3:
 231              		.cfi_def_cfa_offset 8
 232 0136 BD46     		mov	sp, r7
 233              	.LCFI4:
 234              		.cfi_def_cfa_register 13
 235              		@ sp needed
 236 0138 80BD     		pop	{r7, pc}
 237              	.L16:
 238 013a 00BF     		.align	2
 239              	.L15:
 240 013c 00000000 		.word	pFlash
 241 0140 00200240 		.word	1073881088
 242              		.cfi_endproc
 243              	.LFE325:
 245              		.section	.text.HAL_FLASHEx_Erase_IT,"ax",%progbits
 246              		.align	1
 247              		.global	HAL_FLASHEx_Erase_IT
 248              		.syntax unified
 249              		.thumb
 250              		.thumb_func
 251              		.fpu fpv4-sp-d16
 253              	HAL_FLASHEx_Erase_IT:
 254              	.LFB326:
 234:Drivers/STM32G4xx_HAL_Driver/Src/stm32g4xx_hal_flash_ex.c **** 
 235:Drivers/STM32G4xx_HAL_Driver/Src/stm32g4xx_hal_flash_ex.c **** /**
 236:Drivers/STM32G4xx_HAL_Driver/Src/stm32g4xx_hal_flash_ex.c ****   * @brief  Perform a mass erase or erase the specified FLASH memory pages with interrupt enabled.
 237:Drivers/STM32G4xx_HAL_Driver/Src/stm32g4xx_hal_flash_ex.c ****   * @param  pEraseInit pointer to an FLASH_EraseInitTypeDef structure that
 238:Drivers/STM32G4xx_HAL_Driver/Src/stm32g4xx_hal_flash_ex.c ****   *         contains the configuration information for the erasing.
 239:Drivers/STM32G4xx_HAL_Driver/Src/stm32g4xx_hal_flash_ex.c ****   * @retval HAL_Status
 240:Drivers/STM32G4xx_HAL_Driver/Src/stm32g4xx_hal_flash_ex.c ****   */
 241:Drivers/STM32G4xx_HAL_Driver/Src/stm32g4xx_hal_flash_ex.c **** HAL_StatusTypeDef HAL_FLASHEx_Erase_IT(FLASH_EraseInitTypeDef *pEraseInit)
 242:Drivers/STM32G4xx_HAL_Driver/Src/stm32g4xx_hal_flash_ex.c **** {
 255              		.loc 1 242 1
 256              		.cfi_startproc
 257              		@ args = 0, pretend = 0, frame = 16
 258              		@ frame_needed = 1, uses_anonymous_args = 0
 259 0000 80B5     		push	{r7, lr}
 260              	.LCFI5:
 261              		.cfi_def_cfa_offset 8
 262              		.cfi_offset 7, -8
 263              		.cfi_offset 14, -4
 264 0002 84B0     		sub	sp, sp, #16
 265              	.LCFI6:
 266              		.cfi_def_cfa_offset 24
 267 0004 00AF     		add	r7, sp, #0
 268              	.LCFI7:
 269              		.cfi_def_cfa_register 7
ARM GAS  /tmp/cc1VkgmM.s 			page 10


 270 0006 7860     		str	r0, [r7, #4]
 243:Drivers/STM32G4xx_HAL_Driver/Src/stm32g4xx_hal_flash_ex.c ****   HAL_StatusTypeDef status = HAL_OK;
 271              		.loc 1 243 21
 272 0008 0023     		movs	r3, #0
 273 000a FB73     		strb	r3, [r7, #15]
 244:Drivers/STM32G4xx_HAL_Driver/Src/stm32g4xx_hal_flash_ex.c **** 
 245:Drivers/STM32G4xx_HAL_Driver/Src/stm32g4xx_hal_flash_ex.c ****   /* Process Locked */
 246:Drivers/STM32G4xx_HAL_Driver/Src/stm32g4xx_hal_flash_ex.c ****   __HAL_LOCK(&pFlash);
 274              		.loc 1 246 3
 275 000c 364B     		ldr	r3, .L28
 276 000e 1B78     		ldrb	r3, [r3]	@ zero_extendqisi2
 277 0010 012B     		cmp	r3, #1
 278 0012 01D1     		bne	.L18
 279              		.loc 1 246 3 is_stmt 0 discriminator 1
 280 0014 0223     		movs	r3, #2
 281 0016 63E0     		b	.L19
 282              	.L18:
 283              		.loc 1 246 3 discriminator 2
 284 0018 334B     		ldr	r3, .L28
 285 001a 0122     		movs	r2, #1
 286 001c 1A70     		strb	r2, [r3]
 247:Drivers/STM32G4xx_HAL_Driver/Src/stm32g4xx_hal_flash_ex.c **** 
 248:Drivers/STM32G4xx_HAL_Driver/Src/stm32g4xx_hal_flash_ex.c ****   /* Check the parameters */
 249:Drivers/STM32G4xx_HAL_Driver/Src/stm32g4xx_hal_flash_ex.c ****   assert_param(IS_FLASH_TYPEERASE(pEraseInit->TypeErase));
 250:Drivers/STM32G4xx_HAL_Driver/Src/stm32g4xx_hal_flash_ex.c **** 
 251:Drivers/STM32G4xx_HAL_Driver/Src/stm32g4xx_hal_flash_ex.c ****   pFlash.ErrorCode = HAL_FLASH_ERROR_NONE;
 287              		.loc 1 251 20 is_stmt 1 discriminator 2
 288 001e 324B     		ldr	r3, .L28
 289 0020 0022     		movs	r2, #0
 290 0022 5A60     		str	r2, [r3, #4]
 252:Drivers/STM32G4xx_HAL_Driver/Src/stm32g4xx_hal_flash_ex.c **** 
 253:Drivers/STM32G4xx_HAL_Driver/Src/stm32g4xx_hal_flash_ex.c ****   /* Deactivate the cache if they are activated to avoid data misbehavior */
 254:Drivers/STM32G4xx_HAL_Driver/Src/stm32g4xx_hal_flash_ex.c ****   if (READ_BIT(FLASH->ACR, FLASH_ACR_ICEN) != 0U)
 291              		.loc 1 254 7 discriminator 2
 292 0024 314B     		ldr	r3, .L28+4
 293 0026 1B68     		ldr	r3, [r3]
 294 0028 03F40073 		and	r3, r3, #512
 295              		.loc 1 254 6 discriminator 2
 296 002c 002B     		cmp	r3, #0
 297 002e 19D0     		beq	.L20
 255:Drivers/STM32G4xx_HAL_Driver/Src/stm32g4xx_hal_flash_ex.c ****   {
 256:Drivers/STM32G4xx_HAL_Driver/Src/stm32g4xx_hal_flash_ex.c ****     /* Disable instruction cache  */
 257:Drivers/STM32G4xx_HAL_Driver/Src/stm32g4xx_hal_flash_ex.c ****     __HAL_FLASH_INSTRUCTION_CACHE_DISABLE();
 298              		.loc 1 257 5
 299 0030 2E4B     		ldr	r3, .L28+4
 300 0032 1B68     		ldr	r3, [r3]
 301 0034 2D4A     		ldr	r2, .L28+4
 302 0036 23F40073 		bic	r3, r3, #512
 303 003a 1360     		str	r3, [r2]
 258:Drivers/STM32G4xx_HAL_Driver/Src/stm32g4xx_hal_flash_ex.c **** 
 259:Drivers/STM32G4xx_HAL_Driver/Src/stm32g4xx_hal_flash_ex.c ****     if (READ_BIT(FLASH->ACR, FLASH_ACR_DCEN) != 0U)
 304              		.loc 1 259 9
 305 003c 2B4B     		ldr	r3, .L28+4
 306 003e 1B68     		ldr	r3, [r3]
 307 0040 03F48063 		and	r3, r3, #1024
 308              		.loc 1 259 8
 309 0044 002B     		cmp	r3, #0
ARM GAS  /tmp/cc1VkgmM.s 			page 11


 310 0046 09D0     		beq	.L21
 260:Drivers/STM32G4xx_HAL_Driver/Src/stm32g4xx_hal_flash_ex.c ****     {
 261:Drivers/STM32G4xx_HAL_Driver/Src/stm32g4xx_hal_flash_ex.c ****       /* Disable data cache  */
 262:Drivers/STM32G4xx_HAL_Driver/Src/stm32g4xx_hal_flash_ex.c ****       __HAL_FLASH_DATA_CACHE_DISABLE();
 311              		.loc 1 262 7
 312 0048 284B     		ldr	r3, .L28+4
 313 004a 1B68     		ldr	r3, [r3]
 314 004c 274A     		ldr	r2, .L28+4
 315 004e 23F48063 		bic	r3, r3, #1024
 316 0052 1360     		str	r3, [r2]
 263:Drivers/STM32G4xx_HAL_Driver/Src/stm32g4xx_hal_flash_ex.c ****       pFlash.CacheToReactivate = FLASH_CACHE_ICACHE_DCACHE_ENABLED;
 317              		.loc 1 263 32
 318 0054 244B     		ldr	r3, .L28
 319 0056 0322     		movs	r2, #3
 320 0058 1A77     		strb	r2, [r3, #28]
 321 005a 16E0     		b	.L27
 322              	.L21:
 264:Drivers/STM32G4xx_HAL_Driver/Src/stm32g4xx_hal_flash_ex.c ****     }
 265:Drivers/STM32G4xx_HAL_Driver/Src/stm32g4xx_hal_flash_ex.c ****     else
 266:Drivers/STM32G4xx_HAL_Driver/Src/stm32g4xx_hal_flash_ex.c ****     {
 267:Drivers/STM32G4xx_HAL_Driver/Src/stm32g4xx_hal_flash_ex.c ****       pFlash.CacheToReactivate = FLASH_CACHE_ICACHE_ENABLED;
 323              		.loc 1 267 32
 324 005c 224B     		ldr	r3, .L28
 325 005e 0122     		movs	r2, #1
 326 0060 1A77     		strb	r2, [r3, #28]
 327 0062 12E0     		b	.L27
 328              	.L20:
 268:Drivers/STM32G4xx_HAL_Driver/Src/stm32g4xx_hal_flash_ex.c ****     }
 269:Drivers/STM32G4xx_HAL_Driver/Src/stm32g4xx_hal_flash_ex.c ****   }
 270:Drivers/STM32G4xx_HAL_Driver/Src/stm32g4xx_hal_flash_ex.c ****   else if (READ_BIT(FLASH->ACR, FLASH_ACR_DCEN) != 0U)
 329              		.loc 1 270 12
 330 0064 214B     		ldr	r3, .L28+4
 331 0066 1B68     		ldr	r3, [r3]
 332 0068 03F48063 		and	r3, r3, #1024
 333              		.loc 1 270 11
 334 006c 002B     		cmp	r3, #0
 335 006e 09D0     		beq	.L24
 271:Drivers/STM32G4xx_HAL_Driver/Src/stm32g4xx_hal_flash_ex.c ****   {
 272:Drivers/STM32G4xx_HAL_Driver/Src/stm32g4xx_hal_flash_ex.c ****     /* Disable data cache  */
 273:Drivers/STM32G4xx_HAL_Driver/Src/stm32g4xx_hal_flash_ex.c ****     __HAL_FLASH_DATA_CACHE_DISABLE();
 336              		.loc 1 273 5
 337 0070 1E4B     		ldr	r3, .L28+4
 338 0072 1B68     		ldr	r3, [r3]
 339 0074 1D4A     		ldr	r2, .L28+4
 340 0076 23F48063 		bic	r3, r3, #1024
 341 007a 1360     		str	r3, [r2]
 274:Drivers/STM32G4xx_HAL_Driver/Src/stm32g4xx_hal_flash_ex.c ****     pFlash.CacheToReactivate = FLASH_CACHE_DCACHE_ENABLED;
 342              		.loc 1 274 30
 343 007c 1A4B     		ldr	r3, .L28
 344 007e 0222     		movs	r2, #2
 345 0080 1A77     		strb	r2, [r3, #28]
 346 0082 02E0     		b	.L27
 347              	.L24:
 275:Drivers/STM32G4xx_HAL_Driver/Src/stm32g4xx_hal_flash_ex.c ****   }
 276:Drivers/STM32G4xx_HAL_Driver/Src/stm32g4xx_hal_flash_ex.c ****   else
 277:Drivers/STM32G4xx_HAL_Driver/Src/stm32g4xx_hal_flash_ex.c ****   {
 278:Drivers/STM32G4xx_HAL_Driver/Src/stm32g4xx_hal_flash_ex.c ****     pFlash.CacheToReactivate = FLASH_CACHE_DISABLED;
ARM GAS  /tmp/cc1VkgmM.s 			page 12


 348              		.loc 1 278 30
 349 0084 184B     		ldr	r3, .L28
 350 0086 0022     		movs	r2, #0
 351 0088 1A77     		strb	r2, [r3, #28]
 352              	.L27:
 279:Drivers/STM32G4xx_HAL_Driver/Src/stm32g4xx_hal_flash_ex.c ****   }
 280:Drivers/STM32G4xx_HAL_Driver/Src/stm32g4xx_hal_flash_ex.c **** 
 281:Drivers/STM32G4xx_HAL_Driver/Src/stm32g4xx_hal_flash_ex.c ****   /* Enable End of Operation and Error interrupts */
 282:Drivers/STM32G4xx_HAL_Driver/Src/stm32g4xx_hal_flash_ex.c ****   __HAL_FLASH_ENABLE_IT(FLASH_IT_EOP | FLASH_IT_OPERR);
 353              		.loc 1 282 3 discriminator 4
 354 008a 184B     		ldr	r3, .L28+4
 355 008c 5B69     		ldr	r3, [r3, #20]
 356 008e 174A     		ldr	r2, .L28+4
 357 0090 43F04073 		orr	r3, r3, #50331648
 358 0094 5361     		str	r3, [r2, #20]
 283:Drivers/STM32G4xx_HAL_Driver/Src/stm32g4xx_hal_flash_ex.c **** 
 284:Drivers/STM32G4xx_HAL_Driver/Src/stm32g4xx_hal_flash_ex.c ****   pFlash.Bank = pEraseInit->Banks;
 359              		.loc 1 284 27 discriminator 4
 360 0096 7B68     		ldr	r3, [r7, #4]
 361 0098 5B68     		ldr	r3, [r3, #4]
 362              		.loc 1 284 15 discriminator 4
 363 009a 134A     		ldr	r2, .L28
 364 009c 1361     		str	r3, [r2, #16]
 285:Drivers/STM32G4xx_HAL_Driver/Src/stm32g4xx_hal_flash_ex.c **** 
 286:Drivers/STM32G4xx_HAL_Driver/Src/stm32g4xx_hal_flash_ex.c ****   if (pEraseInit->TypeErase == FLASH_TYPEERASE_MASSERASE)
 365              		.loc 1 286 17 discriminator 4
 366 009e 7B68     		ldr	r3, [r7, #4]
 367 00a0 1B68     		ldr	r3, [r3]
 368              		.loc 1 286 6 discriminator 4
 369 00a2 012B     		cmp	r3, #1
 370 00a4 08D1     		bne	.L25
 287:Drivers/STM32G4xx_HAL_Driver/Src/stm32g4xx_hal_flash_ex.c ****   {
 288:Drivers/STM32G4xx_HAL_Driver/Src/stm32g4xx_hal_flash_ex.c ****     /* Mass erase to be done */
 289:Drivers/STM32G4xx_HAL_Driver/Src/stm32g4xx_hal_flash_ex.c ****     pFlash.ProcedureOnGoing = FLASH_PROC_MASS_ERASE;
 371              		.loc 1 289 29
 372 00a6 104B     		ldr	r3, .L28
 373 00a8 0222     		movs	r2, #2
 374 00aa 1A72     		strb	r2, [r3, #8]
 290:Drivers/STM32G4xx_HAL_Driver/Src/stm32g4xx_hal_flash_ex.c ****     FLASH_MassErase(pEraseInit->Banks);
 375              		.loc 1 290 5
 376 00ac 7B68     		ldr	r3, [r7, #4]
 377 00ae 5B68     		ldr	r3, [r3, #4]
 378 00b0 1846     		mov	r0, r3
 379 00b2 FFF7FEFF 		bl	FLASH_MassErase
 380 00b6 12E0     		b	.L26
 381              	.L25:
 291:Drivers/STM32G4xx_HAL_Driver/Src/stm32g4xx_hal_flash_ex.c ****   }
 292:Drivers/STM32G4xx_HAL_Driver/Src/stm32g4xx_hal_flash_ex.c ****   else
 293:Drivers/STM32G4xx_HAL_Driver/Src/stm32g4xx_hal_flash_ex.c ****   {
 294:Drivers/STM32G4xx_HAL_Driver/Src/stm32g4xx_hal_flash_ex.c ****     /* Erase by page to be done */
 295:Drivers/STM32G4xx_HAL_Driver/Src/stm32g4xx_hal_flash_ex.c ****     pFlash.ProcedureOnGoing = FLASH_PROC_PAGE_ERASE;
 382              		.loc 1 295 29
 383 00b8 0B4B     		ldr	r3, .L28
 384 00ba 0122     		movs	r2, #1
 385 00bc 1A72     		strb	r2, [r3, #8]
 296:Drivers/STM32G4xx_HAL_Driver/Src/stm32g4xx_hal_flash_ex.c ****     pFlash.NbPagesToErase = pEraseInit->NbPages;
 386              		.loc 1 296 39
ARM GAS  /tmp/cc1VkgmM.s 			page 13


 387 00be 7B68     		ldr	r3, [r7, #4]
 388 00c0 DB68     		ldr	r3, [r3, #12]
 389              		.loc 1 296 27
 390 00c2 094A     		ldr	r2, .L28
 391 00c4 9361     		str	r3, [r2, #24]
 297:Drivers/STM32G4xx_HAL_Driver/Src/stm32g4xx_hal_flash_ex.c ****     pFlash.Page = pEraseInit->Page;
 392              		.loc 1 297 29
 393 00c6 7B68     		ldr	r3, [r7, #4]
 394 00c8 9B68     		ldr	r3, [r3, #8]
 395              		.loc 1 297 17
 396 00ca 074A     		ldr	r2, .L28
 397 00cc 5361     		str	r3, [r2, #20]
 298:Drivers/STM32G4xx_HAL_Driver/Src/stm32g4xx_hal_flash_ex.c **** 
 299:Drivers/STM32G4xx_HAL_Driver/Src/stm32g4xx_hal_flash_ex.c ****     /*Erase 1st page and wait for IT */
 300:Drivers/STM32G4xx_HAL_Driver/Src/stm32g4xx_hal_flash_ex.c ****     FLASH_PageErase(pEraseInit->Page, pEraseInit->Banks);
 398              		.loc 1 300 5
 399 00ce 7B68     		ldr	r3, [r7, #4]
 400 00d0 9A68     		ldr	r2, [r3, #8]
 401 00d2 7B68     		ldr	r3, [r7, #4]
 402 00d4 5B68     		ldr	r3, [r3, #4]
 403 00d6 1946     		mov	r1, r3
 404 00d8 1046     		mov	r0, r2
 405 00da FFF7FEFF 		bl	FLASH_PageErase
 406              	.L26:
 301:Drivers/STM32G4xx_HAL_Driver/Src/stm32g4xx_hal_flash_ex.c ****   }
 302:Drivers/STM32G4xx_HAL_Driver/Src/stm32g4xx_hal_flash_ex.c **** 
 303:Drivers/STM32G4xx_HAL_Driver/Src/stm32g4xx_hal_flash_ex.c ****   return status;
 407              		.loc 1 303 10
 408 00de FB7B     		ldrb	r3, [r7, #15]	@ zero_extendqisi2
 409              	.L19:
 304:Drivers/STM32G4xx_HAL_Driver/Src/stm32g4xx_hal_flash_ex.c **** }
 410              		.loc 1 304 1
 411 00e0 1846     		mov	r0, r3
 412 00e2 1037     		adds	r7, r7, #16
 413              	.LCFI8:
 414              		.cfi_def_cfa_offset 8
 415 00e4 BD46     		mov	sp, r7
 416              	.LCFI9:
 417              		.cfi_def_cfa_register 13
 418              		@ sp needed
 419 00e6 80BD     		pop	{r7, pc}
 420              	.L29:
 421              		.align	2
 422              	.L28:
 423 00e8 00000000 		.word	pFlash
 424 00ec 00200240 		.word	1073881088
 425              		.cfi_endproc
 426              	.LFE326:
 428              		.section	.text.HAL_FLASHEx_OBProgram,"ax",%progbits
 429              		.align	1
 430              		.global	HAL_FLASHEx_OBProgram
 431              		.syntax unified
 432              		.thumb
 433              		.thumb_func
 434              		.fpu fpv4-sp-d16
 436              	HAL_FLASHEx_OBProgram:
 437              	.LFB327:
ARM GAS  /tmp/cc1VkgmM.s 			page 14


 305:Drivers/STM32G4xx_HAL_Driver/Src/stm32g4xx_hal_flash_ex.c **** 
 306:Drivers/STM32G4xx_HAL_Driver/Src/stm32g4xx_hal_flash_ex.c **** /**
 307:Drivers/STM32G4xx_HAL_Driver/Src/stm32g4xx_hal_flash_ex.c ****   * @brief  Program Option bytes.
 308:Drivers/STM32G4xx_HAL_Driver/Src/stm32g4xx_hal_flash_ex.c ****   * @param  pOBInit pointer to an FLASH_OBInitStruct structure that
 309:Drivers/STM32G4xx_HAL_Driver/Src/stm32g4xx_hal_flash_ex.c ****   *         contains the configuration information for the programming.
 310:Drivers/STM32G4xx_HAL_Driver/Src/stm32g4xx_hal_flash_ex.c ****   * @note   To configure any option bytes, the option lock bit OPTLOCK must be
 311:Drivers/STM32G4xx_HAL_Driver/Src/stm32g4xx_hal_flash_ex.c ****   *         cleared with the call of HAL_FLASH_OB_Unlock() function.
 312:Drivers/STM32G4xx_HAL_Driver/Src/stm32g4xx_hal_flash_ex.c ****   * @note   New option bytes configuration will be taken into account in two cases:
 313:Drivers/STM32G4xx_HAL_Driver/Src/stm32g4xx_hal_flash_ex.c ****   *         - after an option bytes launch through the call of HAL_FLASH_OB_Launch()
 314:Drivers/STM32G4xx_HAL_Driver/Src/stm32g4xx_hal_flash_ex.c ****   *         - after a power reset (BOR reset or exit from Standby/Shutdown modes)
 315:Drivers/STM32G4xx_HAL_Driver/Src/stm32g4xx_hal_flash_ex.c ****   * @retval HAL_Status
 316:Drivers/STM32G4xx_HAL_Driver/Src/stm32g4xx_hal_flash_ex.c ****   */
 317:Drivers/STM32G4xx_HAL_Driver/Src/stm32g4xx_hal_flash_ex.c **** HAL_StatusTypeDef HAL_FLASHEx_OBProgram(FLASH_OBProgramInitTypeDef *pOBInit)
 318:Drivers/STM32G4xx_HAL_Driver/Src/stm32g4xx_hal_flash_ex.c **** {
 438              		.loc 1 318 1
 439              		.cfi_startproc
 440              		@ args = 0, pretend = 0, frame = 16
 441              		@ frame_needed = 1, uses_anonymous_args = 0
 442 0000 80B5     		push	{r7, lr}
 443              	.LCFI10:
 444              		.cfi_def_cfa_offset 8
 445              		.cfi_offset 7, -8
 446              		.cfi_offset 14, -4
 447 0002 84B0     		sub	sp, sp, #16
 448              	.LCFI11:
 449              		.cfi_def_cfa_offset 24
 450 0004 00AF     		add	r7, sp, #0
 451              	.LCFI12:
 452              		.cfi_def_cfa_register 7
 453 0006 7860     		str	r0, [r7, #4]
 319:Drivers/STM32G4xx_HAL_Driver/Src/stm32g4xx_hal_flash_ex.c ****   HAL_StatusTypeDef status = HAL_OK;
 454              		.loc 1 319 21
 455 0008 0023     		movs	r3, #0
 456 000a FB73     		strb	r3, [r7, #15]
 320:Drivers/STM32G4xx_HAL_Driver/Src/stm32g4xx_hal_flash_ex.c **** 
 321:Drivers/STM32G4xx_HAL_Driver/Src/stm32g4xx_hal_flash_ex.c ****   /* Check the parameters */
 322:Drivers/STM32G4xx_HAL_Driver/Src/stm32g4xx_hal_flash_ex.c ****   assert_param(IS_OPTIONBYTE(pOBInit->OptionType));
 323:Drivers/STM32G4xx_HAL_Driver/Src/stm32g4xx_hal_flash_ex.c **** 
 324:Drivers/STM32G4xx_HAL_Driver/Src/stm32g4xx_hal_flash_ex.c ****   /* Process Locked */
 325:Drivers/STM32G4xx_HAL_Driver/Src/stm32g4xx_hal_flash_ex.c ****   __HAL_LOCK(&pFlash);
 457              		.loc 1 325 3
 458 000c 434B     		ldr	r3, .L39
 459 000e 1B78     		ldrb	r3, [r3]	@ zero_extendqisi2
 460 0010 012B     		cmp	r3, #1
 461 0012 01D1     		bne	.L31
 462              		.loc 1 325 3 is_stmt 0 discriminator 1
 463 0014 0223     		movs	r3, #2
 464 0016 7DE0     		b	.L32
 465              	.L31:
 466              		.loc 1 325 3 discriminator 2
 467 0018 404B     		ldr	r3, .L39
 468 001a 0122     		movs	r2, #1
 469 001c 1A70     		strb	r2, [r3]
 326:Drivers/STM32G4xx_HAL_Driver/Src/stm32g4xx_hal_flash_ex.c **** 
 327:Drivers/STM32G4xx_HAL_Driver/Src/stm32g4xx_hal_flash_ex.c ****   pFlash.ErrorCode = HAL_FLASH_ERROR_NONE;
 470              		.loc 1 327 20 is_stmt 1 discriminator 2
 471 001e 3F4B     		ldr	r3, .L39
ARM GAS  /tmp/cc1VkgmM.s 			page 15


 472 0020 0022     		movs	r2, #0
 473 0022 5A60     		str	r2, [r3, #4]
 328:Drivers/STM32G4xx_HAL_Driver/Src/stm32g4xx_hal_flash_ex.c **** 
 329:Drivers/STM32G4xx_HAL_Driver/Src/stm32g4xx_hal_flash_ex.c ****   /* Write protection configuration */
 330:Drivers/STM32G4xx_HAL_Driver/Src/stm32g4xx_hal_flash_ex.c ****   if ((pOBInit->OptionType & OPTIONBYTE_WRP) != 0U)
 474              		.loc 1 330 15 discriminator 2
 475 0024 7B68     		ldr	r3, [r7, #4]
 476 0026 1B68     		ldr	r3, [r3]
 477              		.loc 1 330 28 discriminator 2
 478 0028 03F00103 		and	r3, r3, #1
 479              		.loc 1 330 6 discriminator 2
 480 002c 002B     		cmp	r3, #0
 481 002e 0DD0     		beq	.L33
 331:Drivers/STM32G4xx_HAL_Driver/Src/stm32g4xx_hal_flash_ex.c ****   {
 332:Drivers/STM32G4xx_HAL_Driver/Src/stm32g4xx_hal_flash_ex.c ****     /* Configure of Write protection on the selected area */
 333:Drivers/STM32G4xx_HAL_Driver/Src/stm32g4xx_hal_flash_ex.c ****     if (FLASH_OB_WRPConfig(pOBInit->WRPArea, pOBInit->WRPStartOffset, pOBInit->WRPEndOffset) != HAL
 482              		.loc 1 333 9
 483 0030 7B68     		ldr	r3, [r7, #4]
 484 0032 5868     		ldr	r0, [r3, #4]
 485 0034 7B68     		ldr	r3, [r7, #4]
 486 0036 9968     		ldr	r1, [r3, #8]
 487 0038 7B68     		ldr	r3, [r7, #4]
 488 003a DB68     		ldr	r3, [r3, #12]
 489 003c 1A46     		mov	r2, r3
 490 003e FFF7FEFF 		bl	FLASH_OB_WRPConfig
 491 0042 0346     		mov	r3, r0
 492              		.loc 1 333 8
 493 0044 002B     		cmp	r3, #0
 494 0046 01D0     		beq	.L33
 334:Drivers/STM32G4xx_HAL_Driver/Src/stm32g4xx_hal_flash_ex.c ****     {
 335:Drivers/STM32G4xx_HAL_Driver/Src/stm32g4xx_hal_flash_ex.c ****       status = HAL_ERROR;
 495              		.loc 1 335 14
 496 0048 0123     		movs	r3, #1
 497 004a FB73     		strb	r3, [r7, #15]
 498              	.L33:
 336:Drivers/STM32G4xx_HAL_Driver/Src/stm32g4xx_hal_flash_ex.c ****     }
 337:Drivers/STM32G4xx_HAL_Driver/Src/stm32g4xx_hal_flash_ex.c ****   }
 338:Drivers/STM32G4xx_HAL_Driver/Src/stm32g4xx_hal_flash_ex.c **** 
 339:Drivers/STM32G4xx_HAL_Driver/Src/stm32g4xx_hal_flash_ex.c ****   /* Read protection configuration */
 340:Drivers/STM32G4xx_HAL_Driver/Src/stm32g4xx_hal_flash_ex.c ****   if ((pOBInit->OptionType & OPTIONBYTE_RDP) != 0U)
 499              		.loc 1 340 15
 500 004c 7B68     		ldr	r3, [r7, #4]
 501 004e 1B68     		ldr	r3, [r3]
 502              		.loc 1 340 28
 503 0050 03F00203 		and	r3, r3, #2
 504              		.loc 1 340 6
 505 0054 002B     		cmp	r3, #0
 506 0056 09D0     		beq	.L34
 341:Drivers/STM32G4xx_HAL_Driver/Src/stm32g4xx_hal_flash_ex.c ****   {
 342:Drivers/STM32G4xx_HAL_Driver/Src/stm32g4xx_hal_flash_ex.c ****     /* Configure the Read protection level */
 343:Drivers/STM32G4xx_HAL_Driver/Src/stm32g4xx_hal_flash_ex.c ****     if (FLASH_OB_RDPConfig(pOBInit->RDPLevel) != HAL_OK)
 507              		.loc 1 343 9
 508 0058 7B68     		ldr	r3, [r7, #4]
 509 005a 1B69     		ldr	r3, [r3, #16]
 510 005c 1846     		mov	r0, r3
 511 005e FFF7FEFF 		bl	FLASH_OB_RDPConfig
 512 0062 0346     		mov	r3, r0
ARM GAS  /tmp/cc1VkgmM.s 			page 16


 513              		.loc 1 343 8
 514 0064 002B     		cmp	r3, #0
 515 0066 01D0     		beq	.L34
 344:Drivers/STM32G4xx_HAL_Driver/Src/stm32g4xx_hal_flash_ex.c ****     {
 345:Drivers/STM32G4xx_HAL_Driver/Src/stm32g4xx_hal_flash_ex.c ****       status = HAL_ERROR;
 516              		.loc 1 345 14
 517 0068 0123     		movs	r3, #1
 518 006a FB73     		strb	r3, [r7, #15]
 519              	.L34:
 346:Drivers/STM32G4xx_HAL_Driver/Src/stm32g4xx_hal_flash_ex.c ****     }
 347:Drivers/STM32G4xx_HAL_Driver/Src/stm32g4xx_hal_flash_ex.c ****   }
 348:Drivers/STM32G4xx_HAL_Driver/Src/stm32g4xx_hal_flash_ex.c **** 
 349:Drivers/STM32G4xx_HAL_Driver/Src/stm32g4xx_hal_flash_ex.c ****   /* User Configuration */
 350:Drivers/STM32G4xx_HAL_Driver/Src/stm32g4xx_hal_flash_ex.c ****   if ((pOBInit->OptionType & OPTIONBYTE_USER) != 0U)
 520              		.loc 1 350 15
 521 006c 7B68     		ldr	r3, [r7, #4]
 522 006e 1B68     		ldr	r3, [r3]
 523              		.loc 1 350 28
 524 0070 03F00403 		and	r3, r3, #4
 525              		.loc 1 350 6
 526 0074 002B     		cmp	r3, #0
 527 0076 0CD0     		beq	.L35
 351:Drivers/STM32G4xx_HAL_Driver/Src/stm32g4xx_hal_flash_ex.c ****   {
 352:Drivers/STM32G4xx_HAL_Driver/Src/stm32g4xx_hal_flash_ex.c ****     /* Configure the user option bytes */
 353:Drivers/STM32G4xx_HAL_Driver/Src/stm32g4xx_hal_flash_ex.c ****     if (FLASH_OB_UserConfig(pOBInit->USERType, pOBInit->USERConfig) != HAL_OK)
 528              		.loc 1 353 9
 529 0078 7B68     		ldr	r3, [r7, #4]
 530 007a 5A69     		ldr	r2, [r3, #20]
 531 007c 7B68     		ldr	r3, [r7, #4]
 532 007e 9B69     		ldr	r3, [r3, #24]
 533 0080 1946     		mov	r1, r3
 534 0082 1046     		mov	r0, r2
 535 0084 FFF7FEFF 		bl	FLASH_OB_UserConfig
 536 0088 0346     		mov	r3, r0
 537              		.loc 1 353 8
 538 008a 002B     		cmp	r3, #0
 539 008c 01D0     		beq	.L35
 354:Drivers/STM32G4xx_HAL_Driver/Src/stm32g4xx_hal_flash_ex.c ****     {
 355:Drivers/STM32G4xx_HAL_Driver/Src/stm32g4xx_hal_flash_ex.c ****       status = HAL_ERROR;
 540              		.loc 1 355 14
 541 008e 0123     		movs	r3, #1
 542 0090 FB73     		strb	r3, [r7, #15]
 543              	.L35:
 356:Drivers/STM32G4xx_HAL_Driver/Src/stm32g4xx_hal_flash_ex.c ****     }
 357:Drivers/STM32G4xx_HAL_Driver/Src/stm32g4xx_hal_flash_ex.c ****   }
 358:Drivers/STM32G4xx_HAL_Driver/Src/stm32g4xx_hal_flash_ex.c **** 
 359:Drivers/STM32G4xx_HAL_Driver/Src/stm32g4xx_hal_flash_ex.c ****   /* PCROP Configuration */
 360:Drivers/STM32G4xx_HAL_Driver/Src/stm32g4xx_hal_flash_ex.c ****   if ((pOBInit->OptionType & OPTIONBYTE_PCROP) != 0U)
 544              		.loc 1 360 15
 545 0092 7B68     		ldr	r3, [r7, #4]
 546 0094 1B68     		ldr	r3, [r3]
 547              		.loc 1 360 28
 548 0096 03F00803 		and	r3, r3, #8
 549              		.loc 1 360 6
 550 009a 002B     		cmp	r3, #0
 551 009c 13D0     		beq	.L36
 361:Drivers/STM32G4xx_HAL_Driver/Src/stm32g4xx_hal_flash_ex.c ****   {
ARM GAS  /tmp/cc1VkgmM.s 			page 17


 362:Drivers/STM32G4xx_HAL_Driver/Src/stm32g4xx_hal_flash_ex.c ****     if (pOBInit->PCROPStartAddr != pOBInit->PCROPEndAddr)
 552              		.loc 1 362 16
 553 009e 7B68     		ldr	r3, [r7, #4]
 554 00a0 1A6A     		ldr	r2, [r3, #32]
 555              		.loc 1 362 43
 556 00a2 7B68     		ldr	r3, [r7, #4]
 557 00a4 5B6A     		ldr	r3, [r3, #36]
 558              		.loc 1 362 8
 559 00a6 9A42     		cmp	r2, r3
 560 00a8 0DD0     		beq	.L36
 363:Drivers/STM32G4xx_HAL_Driver/Src/stm32g4xx_hal_flash_ex.c ****     {
 364:Drivers/STM32G4xx_HAL_Driver/Src/stm32g4xx_hal_flash_ex.c ****       /* Configure the Proprietary code readout protection */
 365:Drivers/STM32G4xx_HAL_Driver/Src/stm32g4xx_hal_flash_ex.c ****       if (FLASH_OB_PCROPConfig(pOBInit->PCROPConfig, pOBInit->PCROPStartAddr, pOBInit->PCROPEndAddr
 561              		.loc 1 365 11
 562 00aa 7B68     		ldr	r3, [r7, #4]
 563 00ac D869     		ldr	r0, [r3, #28]
 564 00ae 7B68     		ldr	r3, [r7, #4]
 565 00b0 196A     		ldr	r1, [r3, #32]
 566 00b2 7B68     		ldr	r3, [r7, #4]
 567 00b4 5B6A     		ldr	r3, [r3, #36]
 568 00b6 1A46     		mov	r2, r3
 569 00b8 FFF7FEFF 		bl	FLASH_OB_PCROPConfig
 570 00bc 0346     		mov	r3, r0
 571              		.loc 1 365 10
 572 00be 002B     		cmp	r3, #0
 573 00c0 01D0     		beq	.L36
 366:Drivers/STM32G4xx_HAL_Driver/Src/stm32g4xx_hal_flash_ex.c ****       {
 367:Drivers/STM32G4xx_HAL_Driver/Src/stm32g4xx_hal_flash_ex.c ****         status = HAL_ERROR;
 574              		.loc 1 367 16
 575 00c2 0123     		movs	r3, #1
 576 00c4 FB73     		strb	r3, [r7, #15]
 577              	.L36:
 368:Drivers/STM32G4xx_HAL_Driver/Src/stm32g4xx_hal_flash_ex.c ****       }
 369:Drivers/STM32G4xx_HAL_Driver/Src/stm32g4xx_hal_flash_ex.c ****     }
 370:Drivers/STM32G4xx_HAL_Driver/Src/stm32g4xx_hal_flash_ex.c ****   }
 371:Drivers/STM32G4xx_HAL_Driver/Src/stm32g4xx_hal_flash_ex.c **** 
 372:Drivers/STM32G4xx_HAL_Driver/Src/stm32g4xx_hal_flash_ex.c ****   /* Securable memory Configuration */
 373:Drivers/STM32G4xx_HAL_Driver/Src/stm32g4xx_hal_flash_ex.c ****   if ((pOBInit->OptionType & OPTIONBYTE_SEC) != 0U)
 578              		.loc 1 373 15
 579 00c6 7B68     		ldr	r3, [r7, #4]
 580 00c8 1B68     		ldr	r3, [r3]
 581              		.loc 1 373 28
 582 00ca 03F02003 		and	r3, r3, #32
 583              		.loc 1 373 6
 584 00ce 002B     		cmp	r3, #0
 585 00d0 0CD0     		beq	.L37
 374:Drivers/STM32G4xx_HAL_Driver/Src/stm32g4xx_hal_flash_ex.c ****   {
 375:Drivers/STM32G4xx_HAL_Driver/Src/stm32g4xx_hal_flash_ex.c ****     /* Configure the securable memory area */
 376:Drivers/STM32G4xx_HAL_Driver/Src/stm32g4xx_hal_flash_ex.c ****     if (FLASH_OB_SecMemConfig(pOBInit->SecBank, pOBInit->SecSize) != HAL_OK)
 586              		.loc 1 376 9
 587 00d2 7B68     		ldr	r3, [r7, #4]
 588 00d4 DA6A     		ldr	r2, [r3, #44]
 589 00d6 7B68     		ldr	r3, [r7, #4]
 590 00d8 1B6B     		ldr	r3, [r3, #48]
 591 00da 1946     		mov	r1, r3
 592 00dc 1046     		mov	r0, r2
 593 00de FFF7FEFF 		bl	FLASH_OB_SecMemConfig
ARM GAS  /tmp/cc1VkgmM.s 			page 18


 594 00e2 0346     		mov	r3, r0
 595              		.loc 1 376 8
 596 00e4 002B     		cmp	r3, #0
 597 00e6 01D0     		beq	.L37
 377:Drivers/STM32G4xx_HAL_Driver/Src/stm32g4xx_hal_flash_ex.c ****     {
 378:Drivers/STM32G4xx_HAL_Driver/Src/stm32g4xx_hal_flash_ex.c ****       status = HAL_ERROR;
 598              		.loc 1 378 14
 599 00e8 0123     		movs	r3, #1
 600 00ea FB73     		strb	r3, [r7, #15]
 601              	.L37:
 379:Drivers/STM32G4xx_HAL_Driver/Src/stm32g4xx_hal_flash_ex.c ****     }
 380:Drivers/STM32G4xx_HAL_Driver/Src/stm32g4xx_hal_flash_ex.c ****   }
 381:Drivers/STM32G4xx_HAL_Driver/Src/stm32g4xx_hal_flash_ex.c **** 
 382:Drivers/STM32G4xx_HAL_Driver/Src/stm32g4xx_hal_flash_ex.c ****   /* Boot Entry Point Configuration */
 383:Drivers/STM32G4xx_HAL_Driver/Src/stm32g4xx_hal_flash_ex.c ****   if ((pOBInit->OptionType & OPTIONBYTE_BOOT_LOCK) != 0U)
 602              		.loc 1 383 15
 603 00ec 7B68     		ldr	r3, [r7, #4]
 604 00ee 1B68     		ldr	r3, [r3]
 605              		.loc 1 383 28
 606 00f0 03F01003 		and	r3, r3, #16
 607              		.loc 1 383 6
 608 00f4 002B     		cmp	r3, #0
 609 00f6 09D0     		beq	.L38
 384:Drivers/STM32G4xx_HAL_Driver/Src/stm32g4xx_hal_flash_ex.c ****   {
 385:Drivers/STM32G4xx_HAL_Driver/Src/stm32g4xx_hal_flash_ex.c ****     /* Configure the boot unique entry point option */
 386:Drivers/STM32G4xx_HAL_Driver/Src/stm32g4xx_hal_flash_ex.c ****     if (FLASH_OB_BootLockConfig(pOBInit->BootEntryPoint) != HAL_OK)
 610              		.loc 1 386 9
 611 00f8 7B68     		ldr	r3, [r7, #4]
 612 00fa 9B6A     		ldr	r3, [r3, #40]
 613 00fc 1846     		mov	r0, r3
 614 00fe FFF7FEFF 		bl	FLASH_OB_BootLockConfig
 615 0102 0346     		mov	r3, r0
 616              		.loc 1 386 8
 617 0104 002B     		cmp	r3, #0
 618 0106 01D0     		beq	.L38
 387:Drivers/STM32G4xx_HAL_Driver/Src/stm32g4xx_hal_flash_ex.c ****     {
 388:Drivers/STM32G4xx_HAL_Driver/Src/stm32g4xx_hal_flash_ex.c ****       status = HAL_ERROR;
 619              		.loc 1 388 14
 620 0108 0123     		movs	r3, #1
 621 010a FB73     		strb	r3, [r7, #15]
 622              	.L38:
 389:Drivers/STM32G4xx_HAL_Driver/Src/stm32g4xx_hal_flash_ex.c ****     }
 390:Drivers/STM32G4xx_HAL_Driver/Src/stm32g4xx_hal_flash_ex.c ****   }
 391:Drivers/STM32G4xx_HAL_Driver/Src/stm32g4xx_hal_flash_ex.c **** 
 392:Drivers/STM32G4xx_HAL_Driver/Src/stm32g4xx_hal_flash_ex.c ****   /* Process Unlocked */
 393:Drivers/STM32G4xx_HAL_Driver/Src/stm32g4xx_hal_flash_ex.c ****   __HAL_UNLOCK(&pFlash);
 623              		.loc 1 393 3
 624 010c 034B     		ldr	r3, .L39
 625 010e 0022     		movs	r2, #0
 626 0110 1A70     		strb	r2, [r3]
 394:Drivers/STM32G4xx_HAL_Driver/Src/stm32g4xx_hal_flash_ex.c **** 
 395:Drivers/STM32G4xx_HAL_Driver/Src/stm32g4xx_hal_flash_ex.c ****   return status;
 627              		.loc 1 395 10
 628 0112 FB7B     		ldrb	r3, [r7, #15]	@ zero_extendqisi2
 629              	.L32:
 396:Drivers/STM32G4xx_HAL_Driver/Src/stm32g4xx_hal_flash_ex.c **** }
 630              		.loc 1 396 1
ARM GAS  /tmp/cc1VkgmM.s 			page 19


 631 0114 1846     		mov	r0, r3
 632 0116 1037     		adds	r7, r7, #16
 633              	.LCFI13:
 634              		.cfi_def_cfa_offset 8
 635 0118 BD46     		mov	sp, r7
 636              	.LCFI14:
 637              		.cfi_def_cfa_register 13
 638              		@ sp needed
 639 011a 80BD     		pop	{r7, pc}
 640              	.L40:
 641              		.align	2
 642              	.L39:
 643 011c 00000000 		.word	pFlash
 644              		.cfi_endproc
 645              	.LFE327:
 647              		.section	.text.HAL_FLASHEx_OBGetConfig,"ax",%progbits
 648              		.align	1
 649              		.global	HAL_FLASHEx_OBGetConfig
 650              		.syntax unified
 651              		.thumb
 652              		.thumb_func
 653              		.fpu fpv4-sp-d16
 655              	HAL_FLASHEx_OBGetConfig:
 656              	.LFB328:
 397:Drivers/STM32G4xx_HAL_Driver/Src/stm32g4xx_hal_flash_ex.c **** 
 398:Drivers/STM32G4xx_HAL_Driver/Src/stm32g4xx_hal_flash_ex.c **** /**
 399:Drivers/STM32G4xx_HAL_Driver/Src/stm32g4xx_hal_flash_ex.c ****   * @brief  Get the Option bytes configuration.
 400:Drivers/STM32G4xx_HAL_Driver/Src/stm32g4xx_hal_flash_ex.c ****   * @param  pOBInit pointer to an FLASH_OBInitStruct structure that contains the
 401:Drivers/STM32G4xx_HAL_Driver/Src/stm32g4xx_hal_flash_ex.c ****   *         configuration information.
 402:Drivers/STM32G4xx_HAL_Driver/Src/stm32g4xx_hal_flash_ex.c ****   * @note   The fields pOBInit->WRPArea and pOBInit->PCROPConfig should indicate
 403:Drivers/STM32G4xx_HAL_Driver/Src/stm32g4xx_hal_flash_ex.c ****   *         which area is requested for the WRP and PCROP, else no information will be returned.
 404:Drivers/STM32G4xx_HAL_Driver/Src/stm32g4xx_hal_flash_ex.c ****   * @retval None
 405:Drivers/STM32G4xx_HAL_Driver/Src/stm32g4xx_hal_flash_ex.c ****   */
 406:Drivers/STM32G4xx_HAL_Driver/Src/stm32g4xx_hal_flash_ex.c **** void HAL_FLASHEx_OBGetConfig(FLASH_OBProgramInitTypeDef *pOBInit)
 407:Drivers/STM32G4xx_HAL_Driver/Src/stm32g4xx_hal_flash_ex.c **** {
 657              		.loc 1 407 1
 658              		.cfi_startproc
 659              		@ args = 0, pretend = 0, frame = 8
 660              		@ frame_needed = 1, uses_anonymous_args = 0
 661 0000 80B5     		push	{r7, lr}
 662              	.LCFI15:
 663              		.cfi_def_cfa_offset 8
 664              		.cfi_offset 7, -8
 665              		.cfi_offset 14, -4
 666 0002 82B0     		sub	sp, sp, #8
 667              	.LCFI16:
 668              		.cfi_def_cfa_offset 16
 669 0004 00AF     		add	r7, sp, #0
 670              	.LCFI17:
 671              		.cfi_def_cfa_register 7
 672 0006 7860     		str	r0, [r7, #4]
 408:Drivers/STM32G4xx_HAL_Driver/Src/stm32g4xx_hal_flash_ex.c ****   pOBInit->OptionType = (OPTIONBYTE_RDP | OPTIONBYTE_USER);
 673              		.loc 1 408 23
 674 0008 7B68     		ldr	r3, [r7, #4]
 675 000a 0622     		movs	r2, #6
 676 000c 1A60     		str	r2, [r3]
 409:Drivers/STM32G4xx_HAL_Driver/Src/stm32g4xx_hal_flash_ex.c **** 
ARM GAS  /tmp/cc1VkgmM.s 			page 20


 410:Drivers/STM32G4xx_HAL_Driver/Src/stm32g4xx_hal_flash_ex.c **** #if defined (FLASH_OPTR_DBANK)
 411:Drivers/STM32G4xx_HAL_Driver/Src/stm32g4xx_hal_flash_ex.c ****   if ((pOBInit->WRPArea == OB_WRPAREA_BANK1_AREAA) || (pOBInit->WRPArea == OB_WRPAREA_BANK1_AREAB) 
 677              		.loc 1 411 15
 678 000e 7B68     		ldr	r3, [r7, #4]
 679 0010 5B68     		ldr	r3, [r3, #4]
 680              		.loc 1 411 6
 681 0012 002B     		cmp	r3, #0
 682 0014 0BD0     		beq	.L42
 683              		.loc 1 411 63 discriminator 1
 684 0016 7B68     		ldr	r3, [r7, #4]
 685 0018 5B68     		ldr	r3, [r3, #4]
 686              		.loc 1 411 52 discriminator 1
 687 001a 012B     		cmp	r3, #1
 688 001c 07D0     		beq	.L42
 412:Drivers/STM32G4xx_HAL_Driver/Src/stm32g4xx_hal_flash_ex.c ****       (pOBInit->WRPArea == OB_WRPAREA_BANK2_AREAA) || (pOBInit->WRPArea == OB_WRPAREA_BANK2_AREAB))
 689              		.loc 1 412 15 discriminator 2
 690 001e 7B68     		ldr	r3, [r7, #4]
 691 0020 5B68     		ldr	r3, [r3, #4]
 411:Drivers/STM32G4xx_HAL_Driver/Src/stm32g4xx_hal_flash_ex.c ****       (pOBInit->WRPArea == OB_WRPAREA_BANK2_AREAA) || (pOBInit->WRPArea == OB_WRPAREA_BANK2_AREAB))
 692              		.loc 1 411 100 discriminator 2
 693 0022 022B     		cmp	r3, #2
 694 0024 03D0     		beq	.L42
 695              		.loc 1 412 63
 696 0026 7B68     		ldr	r3, [r7, #4]
 697 0028 5B68     		ldr	r3, [r3, #4]
 698              		.loc 1 412 52
 699 002a 042B     		cmp	r3, #4
 700 002c 0FD1     		bne	.L43
 701              	.L42:
 413:Drivers/STM32G4xx_HAL_Driver/Src/stm32g4xx_hal_flash_ex.c **** #else
 414:Drivers/STM32G4xx_HAL_Driver/Src/stm32g4xx_hal_flash_ex.c ****   if ((pOBInit->WRPArea == OB_WRPAREA_BANK1_AREAA) || (pOBInit->WRPArea == OB_WRPAREA_BANK1_AREAB))
 415:Drivers/STM32G4xx_HAL_Driver/Src/stm32g4xx_hal_flash_ex.c **** #endif
 416:Drivers/STM32G4xx_HAL_Driver/Src/stm32g4xx_hal_flash_ex.c ****   {
 417:Drivers/STM32G4xx_HAL_Driver/Src/stm32g4xx_hal_flash_ex.c ****     pOBInit->OptionType |= OPTIONBYTE_WRP;
 702              		.loc 1 417 25
 703 002e 7B68     		ldr	r3, [r7, #4]
 704 0030 1B68     		ldr	r3, [r3]
 705 0032 43F00102 		orr	r2, r3, #1
 706 0036 7B68     		ldr	r3, [r7, #4]
 707 0038 1A60     		str	r2, [r3]
 418:Drivers/STM32G4xx_HAL_Driver/Src/stm32g4xx_hal_flash_ex.c ****     /* Get write protection on the selected area */
 419:Drivers/STM32G4xx_HAL_Driver/Src/stm32g4xx_hal_flash_ex.c ****     FLASH_OB_GetWRP(pOBInit->WRPArea, &(pOBInit->WRPStartOffset), &(pOBInit->WRPEndOffset));
 708              		.loc 1 419 5
 709 003a 7B68     		ldr	r3, [r7, #4]
 710 003c 5868     		ldr	r0, [r3, #4]
 711 003e 7B68     		ldr	r3, [r7, #4]
 712 0040 03F10801 		add	r1, r3, #8
 713 0044 7B68     		ldr	r3, [r7, #4]
 714 0046 0C33     		adds	r3, r3, #12
 715 0048 1A46     		mov	r2, r3
 716 004a FFF7FEFF 		bl	FLASH_OB_GetWRP
 717              	.L43:
 420:Drivers/STM32G4xx_HAL_Driver/Src/stm32g4xx_hal_flash_ex.c ****   }
 421:Drivers/STM32G4xx_HAL_Driver/Src/stm32g4xx_hal_flash_ex.c **** 
 422:Drivers/STM32G4xx_HAL_Driver/Src/stm32g4xx_hal_flash_ex.c ****   /* Get Read protection level */
 423:Drivers/STM32G4xx_HAL_Driver/Src/stm32g4xx_hal_flash_ex.c ****   pOBInit->RDPLevel = FLASH_OB_GetRDP();
 718              		.loc 1 423 23
ARM GAS  /tmp/cc1VkgmM.s 			page 21


 719 004e FFF7FEFF 		bl	FLASH_OB_GetRDP
 720 0052 0246     		mov	r2, r0
 721              		.loc 1 423 21
 722 0054 7B68     		ldr	r3, [r7, #4]
 723 0056 1A61     		str	r2, [r3, #16]
 424:Drivers/STM32G4xx_HAL_Driver/Src/stm32g4xx_hal_flash_ex.c **** 
 425:Drivers/STM32G4xx_HAL_Driver/Src/stm32g4xx_hal_flash_ex.c ****   /* Get the user option bytes */
 426:Drivers/STM32G4xx_HAL_Driver/Src/stm32g4xx_hal_flash_ex.c ****   pOBInit->USERConfig = FLASH_OB_GetUser();
 724              		.loc 1 426 25
 725 0058 FFF7FEFF 		bl	FLASH_OB_GetUser
 726 005c 0246     		mov	r2, r0
 727              		.loc 1 426 23
 728 005e 7B68     		ldr	r3, [r7, #4]
 729 0060 9A61     		str	r2, [r3, #24]
 427:Drivers/STM32G4xx_HAL_Driver/Src/stm32g4xx_hal_flash_ex.c **** 
 428:Drivers/STM32G4xx_HAL_Driver/Src/stm32g4xx_hal_flash_ex.c **** #if defined (FLASH_OPTR_DBANK)
 429:Drivers/STM32G4xx_HAL_Driver/Src/stm32g4xx_hal_flash_ex.c ****   if ((pOBInit->PCROPConfig == FLASH_BANK_1) || (pOBInit->PCROPConfig == FLASH_BANK_2))
 730              		.loc 1 429 15
 731 0062 7B68     		ldr	r3, [r7, #4]
 732 0064 DB69     		ldr	r3, [r3, #28]
 733              		.loc 1 429 6
 734 0066 012B     		cmp	r3, #1
 735 0068 03D0     		beq	.L44
 736              		.loc 1 429 57 discriminator 1
 737 006a 7B68     		ldr	r3, [r7, #4]
 738 006c DB69     		ldr	r3, [r3, #28]
 739              		.loc 1 429 46 discriminator 1
 740 006e 022B     		cmp	r3, #2
 741 0070 10D1     		bne	.L45
 742              	.L44:
 430:Drivers/STM32G4xx_HAL_Driver/Src/stm32g4xx_hal_flash_ex.c **** #else
 431:Drivers/STM32G4xx_HAL_Driver/Src/stm32g4xx_hal_flash_ex.c ****   if (pOBInit->PCROPConfig == FLASH_BANK_1)
 432:Drivers/STM32G4xx_HAL_Driver/Src/stm32g4xx_hal_flash_ex.c **** #endif
 433:Drivers/STM32G4xx_HAL_Driver/Src/stm32g4xx_hal_flash_ex.c ****   {
 434:Drivers/STM32G4xx_HAL_Driver/Src/stm32g4xx_hal_flash_ex.c ****     pOBInit->OptionType |= OPTIONBYTE_PCROP;
 743              		.loc 1 434 25
 744 0072 7B68     		ldr	r3, [r7, #4]
 745 0074 1B68     		ldr	r3, [r3]
 746 0076 43F00802 		orr	r2, r3, #8
 747 007a 7B68     		ldr	r3, [r7, #4]
 748 007c 1A60     		str	r2, [r3]
 435:Drivers/STM32G4xx_HAL_Driver/Src/stm32g4xx_hal_flash_ex.c ****     /* Get the Proprietary code readout protection */
 436:Drivers/STM32G4xx_HAL_Driver/Src/stm32g4xx_hal_flash_ex.c ****     FLASH_OB_GetPCROP(&(pOBInit->PCROPConfig), &(pOBInit->PCROPStartAddr), &(pOBInit->PCROPEndAddr)
 749              		.loc 1 436 5
 750 007e 7B68     		ldr	r3, [r7, #4]
 751 0080 03F11C00 		add	r0, r3, #28
 752 0084 7B68     		ldr	r3, [r7, #4]
 753 0086 03F12001 		add	r1, r3, #32
 754 008a 7B68     		ldr	r3, [r7, #4]
 755 008c 2433     		adds	r3, r3, #36
 756 008e 1A46     		mov	r2, r3
 757 0090 FFF7FEFF 		bl	FLASH_OB_GetPCROP
 758              	.L45:
 437:Drivers/STM32G4xx_HAL_Driver/Src/stm32g4xx_hal_flash_ex.c ****   }
 438:Drivers/STM32G4xx_HAL_Driver/Src/stm32g4xx_hal_flash_ex.c **** 
 439:Drivers/STM32G4xx_HAL_Driver/Src/stm32g4xx_hal_flash_ex.c ****   pOBInit->OptionType |= OPTIONBYTE_BOOT_LOCK;
 759              		.loc 1 439 23
ARM GAS  /tmp/cc1VkgmM.s 			page 22


 760 0094 7B68     		ldr	r3, [r7, #4]
 761 0096 1B68     		ldr	r3, [r3]
 762 0098 43F01002 		orr	r2, r3, #16
 763 009c 7B68     		ldr	r3, [r7, #4]
 764 009e 1A60     		str	r2, [r3]
 440:Drivers/STM32G4xx_HAL_Driver/Src/stm32g4xx_hal_flash_ex.c **** 
 441:Drivers/STM32G4xx_HAL_Driver/Src/stm32g4xx_hal_flash_ex.c ****   /* Get the boot entry point */
 442:Drivers/STM32G4xx_HAL_Driver/Src/stm32g4xx_hal_flash_ex.c ****   pOBInit->BootEntryPoint = FLASH_OB_GetBootLock();
 765              		.loc 1 442 29
 766 00a0 FFF7FEFF 		bl	FLASH_OB_GetBootLock
 767 00a4 0246     		mov	r2, r0
 768              		.loc 1 442 27
 769 00a6 7B68     		ldr	r3, [r7, #4]
 770 00a8 9A62     		str	r2, [r3, #40]
 443:Drivers/STM32G4xx_HAL_Driver/Src/stm32g4xx_hal_flash_ex.c **** 
 444:Drivers/STM32G4xx_HAL_Driver/Src/stm32g4xx_hal_flash_ex.c ****   /* Get the securable memory area configuration */
 445:Drivers/STM32G4xx_HAL_Driver/Src/stm32g4xx_hal_flash_ex.c **** #if defined (FLASH_OPTR_DBANK)
 446:Drivers/STM32G4xx_HAL_Driver/Src/stm32g4xx_hal_flash_ex.c ****   if ((pOBInit->SecBank == FLASH_BANK_1) || (pOBInit->SecBank == FLASH_BANK_2))
 771              		.loc 1 446 15
 772 00aa 7B68     		ldr	r3, [r7, #4]
 773 00ac DB6A     		ldr	r3, [r3, #44]
 774              		.loc 1 446 6
 775 00ae 012B     		cmp	r3, #1
 776 00b0 03D0     		beq	.L46
 777              		.loc 1 446 53 discriminator 1
 778 00b2 7B68     		ldr	r3, [r7, #4]
 779 00b4 DB6A     		ldr	r3, [r3, #44]
 780              		.loc 1 446 42 discriminator 1
 781 00b6 022B     		cmp	r3, #2
 782 00b8 0DD1     		bne	.L48
 783              	.L46:
 447:Drivers/STM32G4xx_HAL_Driver/Src/stm32g4xx_hal_flash_ex.c **** #else
 448:Drivers/STM32G4xx_HAL_Driver/Src/stm32g4xx_hal_flash_ex.c ****   if (pOBInit->SecBank == FLASH_BANK_1)
 449:Drivers/STM32G4xx_HAL_Driver/Src/stm32g4xx_hal_flash_ex.c **** #endif
 450:Drivers/STM32G4xx_HAL_Driver/Src/stm32g4xx_hal_flash_ex.c ****   {
 451:Drivers/STM32G4xx_HAL_Driver/Src/stm32g4xx_hal_flash_ex.c ****     pOBInit->OptionType |= OPTIONBYTE_SEC;
 784              		.loc 1 451 25
 785 00ba 7B68     		ldr	r3, [r7, #4]
 786 00bc 1B68     		ldr	r3, [r3]
 787 00be 43F02002 		orr	r2, r3, #32
 788 00c2 7B68     		ldr	r3, [r7, #4]
 789 00c4 1A60     		str	r2, [r3]
 452:Drivers/STM32G4xx_HAL_Driver/Src/stm32g4xx_hal_flash_ex.c ****     FLASH_OB_GetSecMem(pOBInit->SecBank, &(pOBInit->SecSize));
 790              		.loc 1 452 5
 791 00c6 7B68     		ldr	r3, [r7, #4]
 792 00c8 DA6A     		ldr	r2, [r3, #44]
 793 00ca 7B68     		ldr	r3, [r7, #4]
 794 00cc 3033     		adds	r3, r3, #48
 795 00ce 1946     		mov	r1, r3
 796 00d0 1046     		mov	r0, r2
 797 00d2 FFF7FEFF 		bl	FLASH_OB_GetSecMem
 798              	.L48:
 453:Drivers/STM32G4xx_HAL_Driver/Src/stm32g4xx_hal_flash_ex.c ****   }
 454:Drivers/STM32G4xx_HAL_Driver/Src/stm32g4xx_hal_flash_ex.c **** }
 799              		.loc 1 454 1
 800 00d6 00BF     		nop
 801 00d8 0837     		adds	r7, r7, #8
ARM GAS  /tmp/cc1VkgmM.s 			page 23


 802              	.LCFI18:
 803              		.cfi_def_cfa_offset 8
 804 00da BD46     		mov	sp, r7
 805              	.LCFI19:
 806              		.cfi_def_cfa_register 13
 807              		@ sp needed
 808 00dc 80BD     		pop	{r7, pc}
 809              		.cfi_endproc
 810              	.LFE328:
 812              		.section	.text.HAL_FLASHEx_EnableSecMemProtection,"ax",%progbits
 813              		.align	1
 814              		.global	HAL_FLASHEx_EnableSecMemProtection
 815              		.syntax unified
 816              		.thumb
 817              		.thumb_func
 818              		.fpu fpv4-sp-d16
 820              	HAL_FLASHEx_EnableSecMemProtection:
 821              	.LFB329:
 455:Drivers/STM32G4xx_HAL_Driver/Src/stm32g4xx_hal_flash_ex.c **** 
 456:Drivers/STM32G4xx_HAL_Driver/Src/stm32g4xx_hal_flash_ex.c **** /**
 457:Drivers/STM32G4xx_HAL_Driver/Src/stm32g4xx_hal_flash_ex.c ****   * @brief  Enable the FLASH Securable Memory protection.
 458:Drivers/STM32G4xx_HAL_Driver/Src/stm32g4xx_hal_flash_ex.c ****   * @param  Bank: Bank to be protected
 459:Drivers/STM32G4xx_HAL_Driver/Src/stm32g4xx_hal_flash_ex.c ****   *          This parameter can be one of the following values:
 460:Drivers/STM32G4xx_HAL_Driver/Src/stm32g4xx_hal_flash_ex.c ****   *            @arg FLASH_BANK_1: Bank1 to be protected
 461:Drivers/STM32G4xx_HAL_Driver/Src/stm32g4xx_hal_flash_ex.c ****   *            @arg FLASH_BANK_2: Bank2 to be protected (*)
 462:Drivers/STM32G4xx_HAL_Driver/Src/stm32g4xx_hal_flash_ex.c ****   *            @arg FLASH_BANK_BOTH: Bank1 and Bank2 to be protected (*)
 463:Drivers/STM32G4xx_HAL_Driver/Src/stm32g4xx_hal_flash_ex.c ****   * @note   (*) availability depends on devices
 464:Drivers/STM32G4xx_HAL_Driver/Src/stm32g4xx_hal_flash_ex.c ****   * @retval HAL Status
 465:Drivers/STM32G4xx_HAL_Driver/Src/stm32g4xx_hal_flash_ex.c ****   */
 466:Drivers/STM32G4xx_HAL_Driver/Src/stm32g4xx_hal_flash_ex.c **** HAL_StatusTypeDef HAL_FLASHEx_EnableSecMemProtection(uint32_t Bank)
 467:Drivers/STM32G4xx_HAL_Driver/Src/stm32g4xx_hal_flash_ex.c **** {
 822              		.loc 1 467 1
 823              		.cfi_startproc
 824              		@ args = 0, pretend = 0, frame = 8
 825              		@ frame_needed = 1, uses_anonymous_args = 0
 826              		@ link register save eliminated.
 827 0000 80B4     		push	{r7}
 828              	.LCFI20:
 829              		.cfi_def_cfa_offset 4
 830              		.cfi_offset 7, -4
 831 0002 83B0     		sub	sp, sp, #12
 832              	.LCFI21:
 833              		.cfi_def_cfa_offset 16
 834 0004 00AF     		add	r7, sp, #0
 835              	.LCFI22:
 836              		.cfi_def_cfa_register 7
 837 0006 7860     		str	r0, [r7, #4]
 468:Drivers/STM32G4xx_HAL_Driver/Src/stm32g4xx_hal_flash_ex.c **** #if defined (FLASH_OPTR_DBANK)
 469:Drivers/STM32G4xx_HAL_Driver/Src/stm32g4xx_hal_flash_ex.c ****   if (READ_BIT(FLASH->OPTR, FLASH_OPTR_DBANK) != 0U)
 838              		.loc 1 469 7
 839 0008 144B     		ldr	r3, .L55
 840 000a 1B6A     		ldr	r3, [r3, #32]
 841 000c 03F48003 		and	r3, r3, #4194304
 842              		.loc 1 469 6
 843 0010 002B     		cmp	r3, #0
 844 0012 16D0     		beq	.L50
 470:Drivers/STM32G4xx_HAL_Driver/Src/stm32g4xx_hal_flash_ex.c ****   {
ARM GAS  /tmp/cc1VkgmM.s 			page 24


 471:Drivers/STM32G4xx_HAL_Driver/Src/stm32g4xx_hal_flash_ex.c ****     /* Check the parameters */
 472:Drivers/STM32G4xx_HAL_Driver/Src/stm32g4xx_hal_flash_ex.c ****     assert_param(IS_FLASH_BANK(Bank));
 473:Drivers/STM32G4xx_HAL_Driver/Src/stm32g4xx_hal_flash_ex.c **** 
 474:Drivers/STM32G4xx_HAL_Driver/Src/stm32g4xx_hal_flash_ex.c ****     /* Enable the Securable Memory Protection Bit for the bank 1 if requested */
 475:Drivers/STM32G4xx_HAL_Driver/Src/stm32g4xx_hal_flash_ex.c ****     if ((Bank & FLASH_BANK_1) != 0U)
 845              		.loc 1 475 15
 846 0014 7B68     		ldr	r3, [r7, #4]
 847 0016 03F00103 		and	r3, r3, #1
 848              		.loc 1 475 8
 849 001a 002B     		cmp	r3, #0
 850 001c 05D0     		beq	.L51
 476:Drivers/STM32G4xx_HAL_Driver/Src/stm32g4xx_hal_flash_ex.c ****     {
 477:Drivers/STM32G4xx_HAL_Driver/Src/stm32g4xx_hal_flash_ex.c ****       SET_BIT(FLASH->CR, FLASH_CR_SEC_PROT1);
 851              		.loc 1 477 7
 852 001e 0F4B     		ldr	r3, .L55
 853 0020 5B69     		ldr	r3, [r3, #20]
 854 0022 0E4A     		ldr	r2, .L55
 855 0024 43F08053 		orr	r3, r3, #268435456
 856 0028 5361     		str	r3, [r2, #20]
 857              	.L51:
 478:Drivers/STM32G4xx_HAL_Driver/Src/stm32g4xx_hal_flash_ex.c ****     }
 479:Drivers/STM32G4xx_HAL_Driver/Src/stm32g4xx_hal_flash_ex.c **** 
 480:Drivers/STM32G4xx_HAL_Driver/Src/stm32g4xx_hal_flash_ex.c ****     /* Enable the Securable Memory Protection Bit for the bank 2 if requested */
 481:Drivers/STM32G4xx_HAL_Driver/Src/stm32g4xx_hal_flash_ex.c ****     if ((Bank & FLASH_BANK_2) != 0U)
 858              		.loc 1 481 15
 859 002a 7B68     		ldr	r3, [r7, #4]
 860 002c 03F00203 		and	r3, r3, #2
 861              		.loc 1 481 8
 862 0030 002B     		cmp	r3, #0
 863 0032 0CD0     		beq	.L53
 482:Drivers/STM32G4xx_HAL_Driver/Src/stm32g4xx_hal_flash_ex.c ****     {
 483:Drivers/STM32G4xx_HAL_Driver/Src/stm32g4xx_hal_flash_ex.c ****       SET_BIT(FLASH->CR, FLASH_CR_SEC_PROT2);
 864              		.loc 1 483 7
 865 0034 094B     		ldr	r3, .L55
 866 0036 5B69     		ldr	r3, [r3, #20]
 867 0038 084A     		ldr	r2, .L55
 868 003a 43F00053 		orr	r3, r3, #536870912
 869 003e 5361     		str	r3, [r2, #20]
 870 0040 05E0     		b	.L53
 871              	.L50:
 484:Drivers/STM32G4xx_HAL_Driver/Src/stm32g4xx_hal_flash_ex.c ****     }
 485:Drivers/STM32G4xx_HAL_Driver/Src/stm32g4xx_hal_flash_ex.c ****   }
 486:Drivers/STM32G4xx_HAL_Driver/Src/stm32g4xx_hal_flash_ex.c ****   else
 487:Drivers/STM32G4xx_HAL_Driver/Src/stm32g4xx_hal_flash_ex.c **** #endif
 488:Drivers/STM32G4xx_HAL_Driver/Src/stm32g4xx_hal_flash_ex.c ****   {
 489:Drivers/STM32G4xx_HAL_Driver/Src/stm32g4xx_hal_flash_ex.c ****     SET_BIT(FLASH->CR, FLASH_CR_SEC_PROT1);
 872              		.loc 1 489 5
 873 0042 064B     		ldr	r3, .L55
 874 0044 5B69     		ldr	r3, [r3, #20]
 875 0046 054A     		ldr	r2, .L55
 876 0048 43F08053 		orr	r3, r3, #268435456
 877 004c 5361     		str	r3, [r2, #20]
 878              	.L53:
 490:Drivers/STM32G4xx_HAL_Driver/Src/stm32g4xx_hal_flash_ex.c ****   }
 491:Drivers/STM32G4xx_HAL_Driver/Src/stm32g4xx_hal_flash_ex.c **** 
 492:Drivers/STM32G4xx_HAL_Driver/Src/stm32g4xx_hal_flash_ex.c ****   return HAL_OK;
 879              		.loc 1 492 10
ARM GAS  /tmp/cc1VkgmM.s 			page 25


 880 004e 0023     		movs	r3, #0
 493:Drivers/STM32G4xx_HAL_Driver/Src/stm32g4xx_hal_flash_ex.c **** }
 881              		.loc 1 493 1
 882 0050 1846     		mov	r0, r3
 883 0052 0C37     		adds	r7, r7, #12
 884              	.LCFI23:
 885              		.cfi_def_cfa_offset 4
 886 0054 BD46     		mov	sp, r7
 887              	.LCFI24:
 888              		.cfi_def_cfa_register 13
 889              		@ sp needed
 890 0056 5DF8047B 		ldr	r7, [sp], #4
 891              	.LCFI25:
 892              		.cfi_restore 7
 893              		.cfi_def_cfa_offset 0
 894 005a 7047     		bx	lr
 895              	.L56:
 896              		.align	2
 897              	.L55:
 898 005c 00200240 		.word	1073881088
 899              		.cfi_endproc
 900              	.LFE329:
 902              		.section	.text.HAL_FLASHEx_EnableDebugger,"ax",%progbits
 903              		.align	1
 904              		.global	HAL_FLASHEx_EnableDebugger
 905              		.syntax unified
 906              		.thumb
 907              		.thumb_func
 908              		.fpu fpv4-sp-d16
 910              	HAL_FLASHEx_EnableDebugger:
 911              	.LFB330:
 494:Drivers/STM32G4xx_HAL_Driver/Src/stm32g4xx_hal_flash_ex.c **** 
 495:Drivers/STM32G4xx_HAL_Driver/Src/stm32g4xx_hal_flash_ex.c **** /**
 496:Drivers/STM32G4xx_HAL_Driver/Src/stm32g4xx_hal_flash_ex.c ****   * @brief  Enable Debugger.
 497:Drivers/STM32G4xx_HAL_Driver/Src/stm32g4xx_hal_flash_ex.c ****   * @note   After calling this API, flash interface allow debugger intrusion.
 498:Drivers/STM32G4xx_HAL_Driver/Src/stm32g4xx_hal_flash_ex.c ****   * @retval None
 499:Drivers/STM32G4xx_HAL_Driver/Src/stm32g4xx_hal_flash_ex.c ****   */
 500:Drivers/STM32G4xx_HAL_Driver/Src/stm32g4xx_hal_flash_ex.c **** void HAL_FLASHEx_EnableDebugger(void)
 501:Drivers/STM32G4xx_HAL_Driver/Src/stm32g4xx_hal_flash_ex.c **** {
 912              		.loc 1 501 1
 913              		.cfi_startproc
 914              		@ args = 0, pretend = 0, frame = 0
 915              		@ frame_needed = 1, uses_anonymous_args = 0
 916              		@ link register save eliminated.
 917 0000 80B4     		push	{r7}
 918              	.LCFI26:
 919              		.cfi_def_cfa_offset 4
 920              		.cfi_offset 7, -4
 921 0002 00AF     		add	r7, sp, #0
 922              	.LCFI27:
 923              		.cfi_def_cfa_register 7
 502:Drivers/STM32G4xx_HAL_Driver/Src/stm32g4xx_hal_flash_ex.c ****   FLASH->ACR |= FLASH_ACR_DBG_SWEN;
 924              		.loc 1 502 14
 925 0004 054B     		ldr	r3, .L58
 926 0006 1B68     		ldr	r3, [r3]
 927 0008 044A     		ldr	r2, .L58
 928 000a 43F48023 		orr	r3, r3, #262144
ARM GAS  /tmp/cc1VkgmM.s 			page 26


 929 000e 1360     		str	r3, [r2]
 503:Drivers/STM32G4xx_HAL_Driver/Src/stm32g4xx_hal_flash_ex.c **** }
 930              		.loc 1 503 1
 931 0010 00BF     		nop
 932 0012 BD46     		mov	sp, r7
 933              	.LCFI28:
 934              		.cfi_def_cfa_register 13
 935              		@ sp needed
 936 0014 5DF8047B 		ldr	r7, [sp], #4
 937              	.LCFI29:
 938              		.cfi_restore 7
 939              		.cfi_def_cfa_offset 0
 940 0018 7047     		bx	lr
 941              	.L59:
 942 001a 00BF     		.align	2
 943              	.L58:
 944 001c 00200240 		.word	1073881088
 945              		.cfi_endproc
 946              	.LFE330:
 948              		.section	.text.HAL_FLASHEx_DisableDebugger,"ax",%progbits
 949              		.align	1
 950              		.global	HAL_FLASHEx_DisableDebugger
 951              		.syntax unified
 952              		.thumb
 953              		.thumb_func
 954              		.fpu fpv4-sp-d16
 956              	HAL_FLASHEx_DisableDebugger:
 957              	.LFB331:
 504:Drivers/STM32G4xx_HAL_Driver/Src/stm32g4xx_hal_flash_ex.c **** 
 505:Drivers/STM32G4xx_HAL_Driver/Src/stm32g4xx_hal_flash_ex.c **** 
 506:Drivers/STM32G4xx_HAL_Driver/Src/stm32g4xx_hal_flash_ex.c **** /**
 507:Drivers/STM32G4xx_HAL_Driver/Src/stm32g4xx_hal_flash_ex.c ****   * @brief  Disable Debugger.
 508:Drivers/STM32G4xx_HAL_Driver/Src/stm32g4xx_hal_flash_ex.c ****   * @note   After calling this API, Debugger is disabled: it's no more possible to
 509:Drivers/STM32G4xx_HAL_Driver/Src/stm32g4xx_hal_flash_ex.c ****   *         break, see CPU register, etc...
 510:Drivers/STM32G4xx_HAL_Driver/Src/stm32g4xx_hal_flash_ex.c ****   * @retval None
 511:Drivers/STM32G4xx_HAL_Driver/Src/stm32g4xx_hal_flash_ex.c ****   */
 512:Drivers/STM32G4xx_HAL_Driver/Src/stm32g4xx_hal_flash_ex.c **** void HAL_FLASHEx_DisableDebugger(void)
 513:Drivers/STM32G4xx_HAL_Driver/Src/stm32g4xx_hal_flash_ex.c **** {
 958              		.loc 1 513 1
 959              		.cfi_startproc
 960              		@ args = 0, pretend = 0, frame = 0
 961              		@ frame_needed = 1, uses_anonymous_args = 0
 962              		@ link register save eliminated.
 963 0000 80B4     		push	{r7}
 964              	.LCFI30:
 965              		.cfi_def_cfa_offset 4
 966              		.cfi_offset 7, -4
 967 0002 00AF     		add	r7, sp, #0
 968              	.LCFI31:
 969              		.cfi_def_cfa_register 7
 514:Drivers/STM32G4xx_HAL_Driver/Src/stm32g4xx_hal_flash_ex.c ****   FLASH->ACR &= ~FLASH_ACR_DBG_SWEN;
 970              		.loc 1 514 14
 971 0004 054B     		ldr	r3, .L61
 972 0006 1B68     		ldr	r3, [r3]
 973 0008 044A     		ldr	r2, .L61
 974 000a 23F48023 		bic	r3, r3, #262144
 975 000e 1360     		str	r3, [r2]
ARM GAS  /tmp/cc1VkgmM.s 			page 27


 515:Drivers/STM32G4xx_HAL_Driver/Src/stm32g4xx_hal_flash_ex.c **** }
 976              		.loc 1 515 1
 977 0010 00BF     		nop
 978 0012 BD46     		mov	sp, r7
 979              	.LCFI32:
 980              		.cfi_def_cfa_register 13
 981              		@ sp needed
 982 0014 5DF8047B 		ldr	r7, [sp], #4
 983              	.LCFI33:
 984              		.cfi_restore 7
 985              		.cfi_def_cfa_offset 0
 986 0018 7047     		bx	lr
 987              	.L62:
 988 001a 00BF     		.align	2
 989              	.L61:
 990 001c 00200240 		.word	1073881088
 991              		.cfi_endproc
 992              	.LFE331:
 994              		.section	.text.FLASH_MassErase,"ax",%progbits
 995              		.align	1
 996              		.syntax unified
 997              		.thumb
 998              		.thumb_func
 999              		.fpu fpv4-sp-d16
 1001              	FLASH_MassErase:
 1002              	.LFB332:
 516:Drivers/STM32G4xx_HAL_Driver/Src/stm32g4xx_hal_flash_ex.c **** 
 517:Drivers/STM32G4xx_HAL_Driver/Src/stm32g4xx_hal_flash_ex.c **** /**
 518:Drivers/STM32G4xx_HAL_Driver/Src/stm32g4xx_hal_flash_ex.c ****   * @}
 519:Drivers/STM32G4xx_HAL_Driver/Src/stm32g4xx_hal_flash_ex.c ****   */
 520:Drivers/STM32G4xx_HAL_Driver/Src/stm32g4xx_hal_flash_ex.c **** 
 521:Drivers/STM32G4xx_HAL_Driver/Src/stm32g4xx_hal_flash_ex.c **** /**
 522:Drivers/STM32G4xx_HAL_Driver/Src/stm32g4xx_hal_flash_ex.c ****   * @}
 523:Drivers/STM32G4xx_HAL_Driver/Src/stm32g4xx_hal_flash_ex.c ****   */
 524:Drivers/STM32G4xx_HAL_Driver/Src/stm32g4xx_hal_flash_ex.c **** 
 525:Drivers/STM32G4xx_HAL_Driver/Src/stm32g4xx_hal_flash_ex.c **** /* Private functions ---------------------------------------------------------*/
 526:Drivers/STM32G4xx_HAL_Driver/Src/stm32g4xx_hal_flash_ex.c **** 
 527:Drivers/STM32G4xx_HAL_Driver/Src/stm32g4xx_hal_flash_ex.c **** /** @addtogroup FLASHEx_Private_Functions
 528:Drivers/STM32G4xx_HAL_Driver/Src/stm32g4xx_hal_flash_ex.c ****   * @{
 529:Drivers/STM32G4xx_HAL_Driver/Src/stm32g4xx_hal_flash_ex.c ****   */
 530:Drivers/STM32G4xx_HAL_Driver/Src/stm32g4xx_hal_flash_ex.c **** /**
 531:Drivers/STM32G4xx_HAL_Driver/Src/stm32g4xx_hal_flash_ex.c ****   * @brief  Mass erase of FLASH memory.
 532:Drivers/STM32G4xx_HAL_Driver/Src/stm32g4xx_hal_flash_ex.c ****   * @param  Banks Banks to be erased.
 533:Drivers/STM32G4xx_HAL_Driver/Src/stm32g4xx_hal_flash_ex.c ****   *         This parameter can be one of the following values:
 534:Drivers/STM32G4xx_HAL_Driver/Src/stm32g4xx_hal_flash_ex.c ****   *            @arg FLASH_BANK_1: Bank1 to be erased
 535:Drivers/STM32G4xx_HAL_Driver/Src/stm32g4xx_hal_flash_ex.c ****   *            @arg FLASH_BANK_2: Bank2 to be erased (*)
 536:Drivers/STM32G4xx_HAL_Driver/Src/stm32g4xx_hal_flash_ex.c ****   *            @arg FLASH_BANK_BOTH: Bank1 and Bank2 to be erased (*)
 537:Drivers/STM32G4xx_HAL_Driver/Src/stm32g4xx_hal_flash_ex.c ****   * @note   (*) availability depends on devices
 538:Drivers/STM32G4xx_HAL_Driver/Src/stm32g4xx_hal_flash_ex.c ****   * @retval None
 539:Drivers/STM32G4xx_HAL_Driver/Src/stm32g4xx_hal_flash_ex.c ****   */
 540:Drivers/STM32G4xx_HAL_Driver/Src/stm32g4xx_hal_flash_ex.c **** static void FLASH_MassErase(uint32_t Banks)
 541:Drivers/STM32G4xx_HAL_Driver/Src/stm32g4xx_hal_flash_ex.c **** {
 1003              		.loc 1 541 1
 1004              		.cfi_startproc
 1005              		@ args = 0, pretend = 0, frame = 8
 1006              		@ frame_needed = 1, uses_anonymous_args = 0
 1007              		@ link register save eliminated.
ARM GAS  /tmp/cc1VkgmM.s 			page 28


 1008 0000 80B4     		push	{r7}
 1009              	.LCFI34:
 1010              		.cfi_def_cfa_offset 4
 1011              		.cfi_offset 7, -4
 1012 0002 83B0     		sub	sp, sp, #12
 1013              	.LCFI35:
 1014              		.cfi_def_cfa_offset 16
 1015 0004 00AF     		add	r7, sp, #0
 1016              	.LCFI36:
 1017              		.cfi_def_cfa_register 7
 1018 0006 7860     		str	r0, [r7, #4]
 542:Drivers/STM32G4xx_HAL_Driver/Src/stm32g4xx_hal_flash_ex.c **** #if defined (FLASH_OPTR_DBANK)
 543:Drivers/STM32G4xx_HAL_Driver/Src/stm32g4xx_hal_flash_ex.c ****   if (READ_BIT(FLASH->OPTR, FLASH_OPTR_DBANK) != 0U)
 1019              		.loc 1 543 7
 1020 0008 184B     		ldr	r3, .L68
 1021 000a 1B6A     		ldr	r3, [r3, #32]
 1022 000c 03F48003 		and	r3, r3, #4194304
 1023              		.loc 1 543 6
 1024 0010 002B     		cmp	r3, #0
 1025 0012 16D0     		beq	.L64
 544:Drivers/STM32G4xx_HAL_Driver/Src/stm32g4xx_hal_flash_ex.c **** #endif
 545:Drivers/STM32G4xx_HAL_Driver/Src/stm32g4xx_hal_flash_ex.c ****   {
 546:Drivers/STM32G4xx_HAL_Driver/Src/stm32g4xx_hal_flash_ex.c ****     /* Check the parameters */
 547:Drivers/STM32G4xx_HAL_Driver/Src/stm32g4xx_hal_flash_ex.c ****     assert_param(IS_FLASH_BANK(Banks));
 548:Drivers/STM32G4xx_HAL_Driver/Src/stm32g4xx_hal_flash_ex.c **** 
 549:Drivers/STM32G4xx_HAL_Driver/Src/stm32g4xx_hal_flash_ex.c ****     /* Set the Mass Erase Bit for the bank 1 if requested */
 550:Drivers/STM32G4xx_HAL_Driver/Src/stm32g4xx_hal_flash_ex.c ****     if ((Banks & FLASH_BANK_1) != 0U)
 1026              		.loc 1 550 16
 1027 0014 7B68     		ldr	r3, [r7, #4]
 1028 0016 03F00103 		and	r3, r3, #1
 1029              		.loc 1 550 8
 1030 001a 002B     		cmp	r3, #0
 1031 001c 05D0     		beq	.L65
 551:Drivers/STM32G4xx_HAL_Driver/Src/stm32g4xx_hal_flash_ex.c ****     {
 552:Drivers/STM32G4xx_HAL_Driver/Src/stm32g4xx_hal_flash_ex.c ****       SET_BIT(FLASH->CR, FLASH_CR_MER1);
 1032              		.loc 1 552 7
 1033 001e 134B     		ldr	r3, .L68
 1034 0020 5B69     		ldr	r3, [r3, #20]
 1035 0022 124A     		ldr	r2, .L68
 1036 0024 43F00403 		orr	r3, r3, #4
 1037 0028 5361     		str	r3, [r2, #20]
 1038              	.L65:
 553:Drivers/STM32G4xx_HAL_Driver/Src/stm32g4xx_hal_flash_ex.c ****     }
 554:Drivers/STM32G4xx_HAL_Driver/Src/stm32g4xx_hal_flash_ex.c **** 
 555:Drivers/STM32G4xx_HAL_Driver/Src/stm32g4xx_hal_flash_ex.c **** #if defined (FLASH_OPTR_DBANK)
 556:Drivers/STM32G4xx_HAL_Driver/Src/stm32g4xx_hal_flash_ex.c ****     /* Set the Mass Erase Bit for the bank 2 if requested */
 557:Drivers/STM32G4xx_HAL_Driver/Src/stm32g4xx_hal_flash_ex.c ****     if ((Banks & FLASH_BANK_2) != 0U)
 1039              		.loc 1 557 16
 1040 002a 7B68     		ldr	r3, [r7, #4]
 1041 002c 03F00203 		and	r3, r3, #2
 1042              		.loc 1 557 8
 1043 0030 002B     		cmp	r3, #0
 1044 0032 0ED0     		beq	.L67
 558:Drivers/STM32G4xx_HAL_Driver/Src/stm32g4xx_hal_flash_ex.c ****     {
 559:Drivers/STM32G4xx_HAL_Driver/Src/stm32g4xx_hal_flash_ex.c ****       SET_BIT(FLASH->CR, FLASH_CR_MER2);
 1045              		.loc 1 559 7
 1046 0034 0D4B     		ldr	r3, .L68
ARM GAS  /tmp/cc1VkgmM.s 			page 29


 1047 0036 5B69     		ldr	r3, [r3, #20]
 1048 0038 0C4A     		ldr	r2, .L68
 1049 003a 43F40043 		orr	r3, r3, #32768
 1050 003e 5361     		str	r3, [r2, #20]
 1051 0040 07E0     		b	.L67
 1052              	.L64:
 560:Drivers/STM32G4xx_HAL_Driver/Src/stm32g4xx_hal_flash_ex.c ****     }
 561:Drivers/STM32G4xx_HAL_Driver/Src/stm32g4xx_hal_flash_ex.c **** #endif
 562:Drivers/STM32G4xx_HAL_Driver/Src/stm32g4xx_hal_flash_ex.c ****   }
 563:Drivers/STM32G4xx_HAL_Driver/Src/stm32g4xx_hal_flash_ex.c **** #if defined (FLASH_OPTR_DBANK)
 564:Drivers/STM32G4xx_HAL_Driver/Src/stm32g4xx_hal_flash_ex.c ****   else
 565:Drivers/STM32G4xx_HAL_Driver/Src/stm32g4xx_hal_flash_ex.c ****   {
 566:Drivers/STM32G4xx_HAL_Driver/Src/stm32g4xx_hal_flash_ex.c ****     SET_BIT(FLASH->CR, (FLASH_CR_MER1 | FLASH_CR_MER2));
 1053              		.loc 1 566 5
 1054 0042 0A4B     		ldr	r3, .L68
 1055 0044 5B69     		ldr	r3, [r3, #20]
 1056 0046 094A     		ldr	r2, .L68
 1057 0048 43F40043 		orr	r3, r3, #32768
 1058 004c 43F00403 		orr	r3, r3, #4
 1059 0050 5361     		str	r3, [r2, #20]
 1060              	.L67:
 567:Drivers/STM32G4xx_HAL_Driver/Src/stm32g4xx_hal_flash_ex.c ****   }
 568:Drivers/STM32G4xx_HAL_Driver/Src/stm32g4xx_hal_flash_ex.c **** #endif
 569:Drivers/STM32G4xx_HAL_Driver/Src/stm32g4xx_hal_flash_ex.c **** 
 570:Drivers/STM32G4xx_HAL_Driver/Src/stm32g4xx_hal_flash_ex.c ****   /* Proceed to erase all sectors */
 571:Drivers/STM32G4xx_HAL_Driver/Src/stm32g4xx_hal_flash_ex.c ****   SET_BIT(FLASH->CR, FLASH_CR_STRT);
 1061              		.loc 1 571 3
 1062 0052 064B     		ldr	r3, .L68
 1063 0054 5B69     		ldr	r3, [r3, #20]
 1064 0056 054A     		ldr	r2, .L68
 1065 0058 43F48033 		orr	r3, r3, #65536
 1066 005c 5361     		str	r3, [r2, #20]
 572:Drivers/STM32G4xx_HAL_Driver/Src/stm32g4xx_hal_flash_ex.c **** }
 1067              		.loc 1 572 1
 1068 005e 00BF     		nop
 1069 0060 0C37     		adds	r7, r7, #12
 1070              	.LCFI37:
 1071              		.cfi_def_cfa_offset 4
 1072 0062 BD46     		mov	sp, r7
 1073              	.LCFI38:
 1074              		.cfi_def_cfa_register 13
 1075              		@ sp needed
 1076 0064 5DF8047B 		ldr	r7, [sp], #4
 1077              	.LCFI39:
 1078              		.cfi_restore 7
 1079              		.cfi_def_cfa_offset 0
 1080 0068 7047     		bx	lr
 1081              	.L69:
 1082 006a 00BF     		.align	2
 1083              	.L68:
 1084 006c 00200240 		.word	1073881088
 1085              		.cfi_endproc
 1086              	.LFE332:
 1088              		.section	.text.FLASH_PageErase,"ax",%progbits
 1089              		.align	1
 1090              		.global	FLASH_PageErase
 1091              		.syntax unified
ARM GAS  /tmp/cc1VkgmM.s 			page 30


 1092              		.thumb
 1093              		.thumb_func
 1094              		.fpu fpv4-sp-d16
 1096              	FLASH_PageErase:
 1097              	.LFB333:
 573:Drivers/STM32G4xx_HAL_Driver/Src/stm32g4xx_hal_flash_ex.c **** 
 574:Drivers/STM32G4xx_HAL_Driver/Src/stm32g4xx_hal_flash_ex.c **** /**
 575:Drivers/STM32G4xx_HAL_Driver/Src/stm32g4xx_hal_flash_ex.c ****   * @brief  Erase the specified FLASH memory page.
 576:Drivers/STM32G4xx_HAL_Driver/Src/stm32g4xx_hal_flash_ex.c ****   * @param  Page FLASH page to erase.
 577:Drivers/STM32G4xx_HAL_Driver/Src/stm32g4xx_hal_flash_ex.c ****   *         This parameter must be a value between 0 and (max number of pages in the bank - 1).
 578:Drivers/STM32G4xx_HAL_Driver/Src/stm32g4xx_hal_flash_ex.c ****   * @param  Banks Bank where the page will be erased.
 579:Drivers/STM32G4xx_HAL_Driver/Src/stm32g4xx_hal_flash_ex.c ****   *         This parameter can be one of the following values:
 580:Drivers/STM32G4xx_HAL_Driver/Src/stm32g4xx_hal_flash_ex.c ****   *            @arg FLASH_BANK_1: Page in bank 1 to be erased
 581:Drivers/STM32G4xx_HAL_Driver/Src/stm32g4xx_hal_flash_ex.c ****   *            @arg FLASH_BANK_2: Page in bank 2 to be erased (*)
 582:Drivers/STM32G4xx_HAL_Driver/Src/stm32g4xx_hal_flash_ex.c ****   * @note   (*) availability depends on devices
 583:Drivers/STM32G4xx_HAL_Driver/Src/stm32g4xx_hal_flash_ex.c ****   * @retval None
 584:Drivers/STM32G4xx_HAL_Driver/Src/stm32g4xx_hal_flash_ex.c ****   */
 585:Drivers/STM32G4xx_HAL_Driver/Src/stm32g4xx_hal_flash_ex.c **** void FLASH_PageErase(uint32_t Page, uint32_t Banks)
 586:Drivers/STM32G4xx_HAL_Driver/Src/stm32g4xx_hal_flash_ex.c **** {
 1098              		.loc 1 586 1
 1099              		.cfi_startproc
 1100              		@ args = 0, pretend = 0, frame = 8
 1101              		@ frame_needed = 1, uses_anonymous_args = 0
 1102              		@ link register save eliminated.
 1103 0000 80B4     		push	{r7}
 1104              	.LCFI40:
 1105              		.cfi_def_cfa_offset 4
 1106              		.cfi_offset 7, -4
 1107 0002 83B0     		sub	sp, sp, #12
 1108              	.LCFI41:
 1109              		.cfi_def_cfa_offset 16
 1110 0004 00AF     		add	r7, sp, #0
 1111              	.LCFI42:
 1112              		.cfi_def_cfa_register 7
 1113 0006 7860     		str	r0, [r7, #4]
 1114 0008 3960     		str	r1, [r7]
 587:Drivers/STM32G4xx_HAL_Driver/Src/stm32g4xx_hal_flash_ex.c ****   /* Check the parameters */
 588:Drivers/STM32G4xx_HAL_Driver/Src/stm32g4xx_hal_flash_ex.c ****   assert_param(IS_FLASH_PAGE(Page));
 589:Drivers/STM32G4xx_HAL_Driver/Src/stm32g4xx_hal_flash_ex.c **** 
 590:Drivers/STM32G4xx_HAL_Driver/Src/stm32g4xx_hal_flash_ex.c **** #if defined (FLASH_OPTR_DBANK)
 591:Drivers/STM32G4xx_HAL_Driver/Src/stm32g4xx_hal_flash_ex.c ****   if (READ_BIT(FLASH->OPTR, FLASH_OPTR_DBANK) == 0U)
 1115              		.loc 1 591 7
 1116 000a 1E4B     		ldr	r3, .L74
 1117 000c 1B6A     		ldr	r3, [r3, #32]
 1118 000e 03F48003 		and	r3, r3, #4194304
 1119              		.loc 1 591 6
 1120 0012 002B     		cmp	r3, #0
 1121 0014 06D1     		bne	.L71
 592:Drivers/STM32G4xx_HAL_Driver/Src/stm32g4xx_hal_flash_ex.c ****   {
 593:Drivers/STM32G4xx_HAL_Driver/Src/stm32g4xx_hal_flash_ex.c ****     CLEAR_BIT(FLASH->CR, FLASH_CR_BKER);
 1122              		.loc 1 593 5
 1123 0016 1B4B     		ldr	r3, .L74
 1124 0018 5B69     		ldr	r3, [r3, #20]
 1125 001a 1A4A     		ldr	r2, .L74
 1126 001c 23F40063 		bic	r3, r3, #2048
 1127 0020 5361     		str	r3, [r2, #20]
 1128 0022 11E0     		b	.L72
ARM GAS  /tmp/cc1VkgmM.s 			page 31


 1129              	.L71:
 594:Drivers/STM32G4xx_HAL_Driver/Src/stm32g4xx_hal_flash_ex.c ****   }
 595:Drivers/STM32G4xx_HAL_Driver/Src/stm32g4xx_hal_flash_ex.c ****   else
 596:Drivers/STM32G4xx_HAL_Driver/Src/stm32g4xx_hal_flash_ex.c ****   {
 597:Drivers/STM32G4xx_HAL_Driver/Src/stm32g4xx_hal_flash_ex.c ****     assert_param(IS_FLASH_BANK_EXCLUSIVE(Banks));
 598:Drivers/STM32G4xx_HAL_Driver/Src/stm32g4xx_hal_flash_ex.c **** 
 599:Drivers/STM32G4xx_HAL_Driver/Src/stm32g4xx_hal_flash_ex.c ****     if ((Banks & FLASH_BANK_1) != 0U)
 1130              		.loc 1 599 16
 1131 0024 3B68     		ldr	r3, [r7]
 1132 0026 03F00103 		and	r3, r3, #1
 1133              		.loc 1 599 8
 1134 002a 002B     		cmp	r3, #0
 1135 002c 06D0     		beq	.L73
 600:Drivers/STM32G4xx_HAL_Driver/Src/stm32g4xx_hal_flash_ex.c ****     {
 601:Drivers/STM32G4xx_HAL_Driver/Src/stm32g4xx_hal_flash_ex.c ****       CLEAR_BIT(FLASH->CR, FLASH_CR_BKER);
 1136              		.loc 1 601 7
 1137 002e 154B     		ldr	r3, .L74
 1138 0030 5B69     		ldr	r3, [r3, #20]
 1139 0032 144A     		ldr	r2, .L74
 1140 0034 23F40063 		bic	r3, r3, #2048
 1141 0038 5361     		str	r3, [r2, #20]
 1142 003a 05E0     		b	.L72
 1143              	.L73:
 602:Drivers/STM32G4xx_HAL_Driver/Src/stm32g4xx_hal_flash_ex.c ****     }
 603:Drivers/STM32G4xx_HAL_Driver/Src/stm32g4xx_hal_flash_ex.c ****     else
 604:Drivers/STM32G4xx_HAL_Driver/Src/stm32g4xx_hal_flash_ex.c ****     {
 605:Drivers/STM32G4xx_HAL_Driver/Src/stm32g4xx_hal_flash_ex.c ****       SET_BIT(FLASH->CR, FLASH_CR_BKER);
 1144              		.loc 1 605 7
 1145 003c 114B     		ldr	r3, .L74
 1146 003e 5B69     		ldr	r3, [r3, #20]
 1147 0040 104A     		ldr	r2, .L74
 1148 0042 43F40063 		orr	r3, r3, #2048
 1149 0046 5361     		str	r3, [r2, #20]
 1150              	.L72:
 606:Drivers/STM32G4xx_HAL_Driver/Src/stm32g4xx_hal_flash_ex.c ****     }
 607:Drivers/STM32G4xx_HAL_Driver/Src/stm32g4xx_hal_flash_ex.c ****   }
 608:Drivers/STM32G4xx_HAL_Driver/Src/stm32g4xx_hal_flash_ex.c **** #endif
 609:Drivers/STM32G4xx_HAL_Driver/Src/stm32g4xx_hal_flash_ex.c **** 
 610:Drivers/STM32G4xx_HAL_Driver/Src/stm32g4xx_hal_flash_ex.c ****   /* Proceed to erase the page */
 611:Drivers/STM32G4xx_HAL_Driver/Src/stm32g4xx_hal_flash_ex.c ****   MODIFY_REG(FLASH->CR, FLASH_CR_PNB, ((Page & 0xFFU) << FLASH_CR_PNB_Pos));
 1151              		.loc 1 611 3
 1152 0048 0E4B     		ldr	r3, .L74
 1153 004a 5B69     		ldr	r3, [r3, #20]
 1154 004c 23F47E72 		bic	r2, r3, #1016
 1155 0050 7B68     		ldr	r3, [r7, #4]
 1156 0052 DB00     		lsls	r3, r3, #3
 1157 0054 03F4FF63 		and	r3, r3, #2040
 1158 0058 0A49     		ldr	r1, .L74
 1159 005a 1343     		orrs	r3, r3, r2
 1160 005c 4B61     		str	r3, [r1, #20]
 612:Drivers/STM32G4xx_HAL_Driver/Src/stm32g4xx_hal_flash_ex.c ****   SET_BIT(FLASH->CR, FLASH_CR_PER);
 1161              		.loc 1 612 3
 1162 005e 094B     		ldr	r3, .L74
 1163 0060 5B69     		ldr	r3, [r3, #20]
 1164 0062 084A     		ldr	r2, .L74
 1165 0064 43F00203 		orr	r3, r3, #2
 1166 0068 5361     		str	r3, [r2, #20]
ARM GAS  /tmp/cc1VkgmM.s 			page 32


 613:Drivers/STM32G4xx_HAL_Driver/Src/stm32g4xx_hal_flash_ex.c ****   SET_BIT(FLASH->CR, FLASH_CR_STRT);
 1167              		.loc 1 613 3
 1168 006a 064B     		ldr	r3, .L74
 1169 006c 5B69     		ldr	r3, [r3, #20]
 1170 006e 054A     		ldr	r2, .L74
 1171 0070 43F48033 		orr	r3, r3, #65536
 1172 0074 5361     		str	r3, [r2, #20]
 614:Drivers/STM32G4xx_HAL_Driver/Src/stm32g4xx_hal_flash_ex.c **** }
 1173              		.loc 1 614 1
 1174 0076 00BF     		nop
 1175 0078 0C37     		adds	r7, r7, #12
 1176              	.LCFI43:
 1177              		.cfi_def_cfa_offset 4
 1178 007a BD46     		mov	sp, r7
 1179              	.LCFI44:
 1180              		.cfi_def_cfa_register 13
 1181              		@ sp needed
 1182 007c 5DF8047B 		ldr	r7, [sp], #4
 1183              	.LCFI45:
 1184              		.cfi_restore 7
 1185              		.cfi_def_cfa_offset 0
 1186 0080 7047     		bx	lr
 1187              	.L75:
 1188 0082 00BF     		.align	2
 1189              	.L74:
 1190 0084 00200240 		.word	1073881088
 1191              		.cfi_endproc
 1192              	.LFE333:
 1194              		.section	.text.FLASH_FlushCaches,"ax",%progbits
 1195              		.align	1
 1196              		.global	FLASH_FlushCaches
 1197              		.syntax unified
 1198              		.thumb
 1199              		.thumb_func
 1200              		.fpu fpv4-sp-d16
 1202              	FLASH_FlushCaches:
 1203              	.LFB334:
 615:Drivers/STM32G4xx_HAL_Driver/Src/stm32g4xx_hal_flash_ex.c **** 
 616:Drivers/STM32G4xx_HAL_Driver/Src/stm32g4xx_hal_flash_ex.c **** /**
 617:Drivers/STM32G4xx_HAL_Driver/Src/stm32g4xx_hal_flash_ex.c ****   * @brief  Flush the instruction and data caches.
 618:Drivers/STM32G4xx_HAL_Driver/Src/stm32g4xx_hal_flash_ex.c ****   * @retval None
 619:Drivers/STM32G4xx_HAL_Driver/Src/stm32g4xx_hal_flash_ex.c ****   */
 620:Drivers/STM32G4xx_HAL_Driver/Src/stm32g4xx_hal_flash_ex.c **** void FLASH_FlushCaches(void)
 621:Drivers/STM32G4xx_HAL_Driver/Src/stm32g4xx_hal_flash_ex.c **** {
 1204              		.loc 1 621 1
 1205              		.cfi_startproc
 1206              		@ args = 0, pretend = 0, frame = 8
 1207              		@ frame_needed = 1, uses_anonymous_args = 0
 1208              		@ link register save eliminated.
 1209 0000 80B4     		push	{r7}
 1210              	.LCFI46:
 1211              		.cfi_def_cfa_offset 4
 1212              		.cfi_offset 7, -4
 1213 0002 83B0     		sub	sp, sp, #12
 1214              	.LCFI47:
 1215              		.cfi_def_cfa_offset 16
 1216 0004 00AF     		add	r7, sp, #0
ARM GAS  /tmp/cc1VkgmM.s 			page 33


 1217              	.LCFI48:
 1218              		.cfi_def_cfa_register 7
 622:Drivers/STM32G4xx_HAL_Driver/Src/stm32g4xx_hal_flash_ex.c ****   FLASH_CacheTypeDef cache = pFlash.CacheToReactivate;
 1219              		.loc 1 622 22
 1220 0006 1E4B     		ldr	r3, .L81
 1221 0008 1B7F     		ldrb	r3, [r3, #28]
 1222 000a FB71     		strb	r3, [r7, #7]
 623:Drivers/STM32G4xx_HAL_Driver/Src/stm32g4xx_hal_flash_ex.c **** 
 624:Drivers/STM32G4xx_HAL_Driver/Src/stm32g4xx_hal_flash_ex.c ****   /* Flush instruction cache  */
 625:Drivers/STM32G4xx_HAL_Driver/Src/stm32g4xx_hal_flash_ex.c ****   if ((cache == FLASH_CACHE_ICACHE_ENABLED) ||
 1223              		.loc 1 625 6
 1224 000c FB79     		ldrb	r3, [r7, #7]	@ zero_extendqisi2
 1225 000e 012B     		cmp	r3, #1
 1226 0010 02D0     		beq	.L77
 1227              		.loc 1 625 45 discriminator 1
 1228 0012 FB79     		ldrb	r3, [r7, #7]	@ zero_extendqisi2
 1229 0014 032B     		cmp	r3, #3
 1230 0016 11D1     		bne	.L78
 1231              	.L77:
 626:Drivers/STM32G4xx_HAL_Driver/Src/stm32g4xx_hal_flash_ex.c ****       (cache == FLASH_CACHE_ICACHE_DCACHE_ENABLED))
 627:Drivers/STM32G4xx_HAL_Driver/Src/stm32g4xx_hal_flash_ex.c ****   {
 628:Drivers/STM32G4xx_HAL_Driver/Src/stm32g4xx_hal_flash_ex.c ****     /* Reset instruction cache */
 629:Drivers/STM32G4xx_HAL_Driver/Src/stm32g4xx_hal_flash_ex.c ****     __HAL_FLASH_INSTRUCTION_CACHE_RESET();
 1232              		.loc 1 629 5
 1233 0018 1A4B     		ldr	r3, .L81+4
 1234 001a 1B68     		ldr	r3, [r3]
 1235 001c 194A     		ldr	r2, .L81+4
 1236 001e 43F40063 		orr	r3, r3, #2048
 1237 0022 1360     		str	r3, [r2]
 1238 0024 174B     		ldr	r3, .L81+4
 1239 0026 1B68     		ldr	r3, [r3]
 1240 0028 164A     		ldr	r2, .L81+4
 1241 002a 23F40063 		bic	r3, r3, #2048
 1242 002e 1360     		str	r3, [r2]
 630:Drivers/STM32G4xx_HAL_Driver/Src/stm32g4xx_hal_flash_ex.c ****     /* Enable instruction cache */
 631:Drivers/STM32G4xx_HAL_Driver/Src/stm32g4xx_hal_flash_ex.c ****     __HAL_FLASH_INSTRUCTION_CACHE_ENABLE();
 1243              		.loc 1 631 5
 1244 0030 144B     		ldr	r3, .L81+4
 1245 0032 1B68     		ldr	r3, [r3]
 1246 0034 134A     		ldr	r2, .L81+4
 1247 0036 43F40073 		orr	r3, r3, #512
 1248 003a 1360     		str	r3, [r2]
 1249              	.L78:
 632:Drivers/STM32G4xx_HAL_Driver/Src/stm32g4xx_hal_flash_ex.c ****   }
 633:Drivers/STM32G4xx_HAL_Driver/Src/stm32g4xx_hal_flash_ex.c **** 
 634:Drivers/STM32G4xx_HAL_Driver/Src/stm32g4xx_hal_flash_ex.c ****   /* Flush data cache */
 635:Drivers/STM32G4xx_HAL_Driver/Src/stm32g4xx_hal_flash_ex.c ****   if ((cache == FLASH_CACHE_DCACHE_ENABLED) ||
 1250              		.loc 1 635 6
 1251 003c FB79     		ldrb	r3, [r7, #7]	@ zero_extendqisi2
 1252 003e 022B     		cmp	r3, #2
 1253 0040 02D0     		beq	.L79
 1254              		.loc 1 635 45 discriminator 1
 1255 0042 FB79     		ldrb	r3, [r7, #7]	@ zero_extendqisi2
 1256 0044 032B     		cmp	r3, #3
 1257 0046 11D1     		bne	.L80
 1258              	.L79:
 636:Drivers/STM32G4xx_HAL_Driver/Src/stm32g4xx_hal_flash_ex.c ****       (cache == FLASH_CACHE_ICACHE_DCACHE_ENABLED))
ARM GAS  /tmp/cc1VkgmM.s 			page 34


 637:Drivers/STM32G4xx_HAL_Driver/Src/stm32g4xx_hal_flash_ex.c ****   {
 638:Drivers/STM32G4xx_HAL_Driver/Src/stm32g4xx_hal_flash_ex.c ****     /* Reset data cache */
 639:Drivers/STM32G4xx_HAL_Driver/Src/stm32g4xx_hal_flash_ex.c ****     __HAL_FLASH_DATA_CACHE_RESET();
 1259              		.loc 1 639 5
 1260 0048 0E4B     		ldr	r3, .L81+4
 1261 004a 1B68     		ldr	r3, [r3]
 1262 004c 0D4A     		ldr	r2, .L81+4
 1263 004e 43F48053 		orr	r3, r3, #4096
 1264 0052 1360     		str	r3, [r2]
 1265 0054 0B4B     		ldr	r3, .L81+4
 1266 0056 1B68     		ldr	r3, [r3]
 1267 0058 0A4A     		ldr	r2, .L81+4
 1268 005a 23F48053 		bic	r3, r3, #4096
 1269 005e 1360     		str	r3, [r2]
 640:Drivers/STM32G4xx_HAL_Driver/Src/stm32g4xx_hal_flash_ex.c ****     /* Enable data cache */
 641:Drivers/STM32G4xx_HAL_Driver/Src/stm32g4xx_hal_flash_ex.c ****     __HAL_FLASH_DATA_CACHE_ENABLE();
 1270              		.loc 1 641 5
 1271 0060 084B     		ldr	r3, .L81+4
 1272 0062 1B68     		ldr	r3, [r3]
 1273 0064 074A     		ldr	r2, .L81+4
 1274 0066 43F48063 		orr	r3, r3, #1024
 1275 006a 1360     		str	r3, [r2]
 1276              	.L80:
 642:Drivers/STM32G4xx_HAL_Driver/Src/stm32g4xx_hal_flash_ex.c ****   }
 643:Drivers/STM32G4xx_HAL_Driver/Src/stm32g4xx_hal_flash_ex.c **** 
 644:Drivers/STM32G4xx_HAL_Driver/Src/stm32g4xx_hal_flash_ex.c ****   /* Reset internal variable */
 645:Drivers/STM32G4xx_HAL_Driver/Src/stm32g4xx_hal_flash_ex.c ****   pFlash.CacheToReactivate = FLASH_CACHE_DISABLED;
 1277              		.loc 1 645 28
 1278 006c 044B     		ldr	r3, .L81
 1279 006e 0022     		movs	r2, #0
 1280 0070 1A77     		strb	r2, [r3, #28]
 646:Drivers/STM32G4xx_HAL_Driver/Src/stm32g4xx_hal_flash_ex.c **** }
 1281              		.loc 1 646 1
 1282 0072 00BF     		nop
 1283 0074 0C37     		adds	r7, r7, #12
 1284              	.LCFI49:
 1285              		.cfi_def_cfa_offset 4
 1286 0076 BD46     		mov	sp, r7
 1287              	.LCFI50:
 1288              		.cfi_def_cfa_register 13
 1289              		@ sp needed
 1290 0078 5DF8047B 		ldr	r7, [sp], #4
 1291              	.LCFI51:
 1292              		.cfi_restore 7
 1293              		.cfi_def_cfa_offset 0
 1294 007c 7047     		bx	lr
 1295              	.L82:
 1296 007e 00BF     		.align	2
 1297              	.L81:
 1298 0080 00000000 		.word	pFlash
 1299 0084 00200240 		.word	1073881088
 1300              		.cfi_endproc
 1301              	.LFE334:
 1303              		.section	.text.FLASH_OB_WRPConfig,"ax",%progbits
 1304              		.align	1
 1305              		.syntax unified
 1306              		.thumb
ARM GAS  /tmp/cc1VkgmM.s 			page 35


 1307              		.thumb_func
 1308              		.fpu fpv4-sp-d16
 1310              	FLASH_OB_WRPConfig:
 1311              	.LFB335:
 647:Drivers/STM32G4xx_HAL_Driver/Src/stm32g4xx_hal_flash_ex.c **** 
 648:Drivers/STM32G4xx_HAL_Driver/Src/stm32g4xx_hal_flash_ex.c **** /**
 649:Drivers/STM32G4xx_HAL_Driver/Src/stm32g4xx_hal_flash_ex.c ****   * @brief  Configure the write protection area into Option Bytes.
 650:Drivers/STM32G4xx_HAL_Driver/Src/stm32g4xx_hal_flash_ex.c ****   * @note   When the memory read protection level is selected (RDP level = 1),
 651:Drivers/STM32G4xx_HAL_Driver/Src/stm32g4xx_hal_flash_ex.c ****   *         it is not possible to program or erase Flash memory if the CPU debug
 652:Drivers/STM32G4xx_HAL_Driver/Src/stm32g4xx_hal_flash_ex.c ****   *         features are connected (JTAG or single wire) or boot code is being
 653:Drivers/STM32G4xx_HAL_Driver/Src/stm32g4xx_hal_flash_ex.c ****   *         executed from RAM or System flash, even if WRP is not activated.
 654:Drivers/STM32G4xx_HAL_Driver/Src/stm32g4xx_hal_flash_ex.c ****   * @note   To configure any option bytes, the option lock bit OPTLOCK must be
 655:Drivers/STM32G4xx_HAL_Driver/Src/stm32g4xx_hal_flash_ex.c ****   *         cleared with the call of HAL_FLASH_OB_Unlock() function.
 656:Drivers/STM32G4xx_HAL_Driver/Src/stm32g4xx_hal_flash_ex.c ****   * @note   New option bytes configuration will be taken into account in two cases:
 657:Drivers/STM32G4xx_HAL_Driver/Src/stm32g4xx_hal_flash_ex.c ****   *         - after an option bytes launch through the call of HAL_FLASH_OB_Launch()
 658:Drivers/STM32G4xx_HAL_Driver/Src/stm32g4xx_hal_flash_ex.c ****   *         - after a power reset (BOR reset or exit from Standby/Shutdown modes)
 659:Drivers/STM32G4xx_HAL_Driver/Src/stm32g4xx_hal_flash_ex.c ****   * @param  WRPArea specifies the area to be configured.
 660:Drivers/STM32G4xx_HAL_Driver/Src/stm32g4xx_hal_flash_ex.c ****   *         This parameter can be one of the following values:
 661:Drivers/STM32G4xx_HAL_Driver/Src/stm32g4xx_hal_flash_ex.c ****   *            @arg OB_WRPAREA_BANK1_AREAA: Flash Bank 1 Area A
 662:Drivers/STM32G4xx_HAL_Driver/Src/stm32g4xx_hal_flash_ex.c ****   *            @arg OB_WRPAREA_BANK1_AREAB: Flash Bank 1 Area B
 663:Drivers/STM32G4xx_HAL_Driver/Src/stm32g4xx_hal_flash_ex.c ****   *            @arg OB_WRPAREA_BANK2_AREAA: Flash Bank 2 Area A (*)
 664:Drivers/STM32G4xx_HAL_Driver/Src/stm32g4xx_hal_flash_ex.c ****   *            @arg OB_WRPAREA_BANK2_AREAB: Flash Bank 2 Area B (*)
 665:Drivers/STM32G4xx_HAL_Driver/Src/stm32g4xx_hal_flash_ex.c ****   * @note   (*) availability depends on devices
 666:Drivers/STM32G4xx_HAL_Driver/Src/stm32g4xx_hal_flash_ex.c ****   * @param  WRPStartOffset specifies the start page of the write protected area.
 667:Drivers/STM32G4xx_HAL_Driver/Src/stm32g4xx_hal_flash_ex.c ****   *         This parameter can be page number between 0 and (max number of pages in the bank - 1).
 668:Drivers/STM32G4xx_HAL_Driver/Src/stm32g4xx_hal_flash_ex.c ****   * @param  WRDPEndOffset specifies the end page of the write protected area.
 669:Drivers/STM32G4xx_HAL_Driver/Src/stm32g4xx_hal_flash_ex.c ****   *         This parameter can be page number between WRPStartOffset and (max number of pages in th
 670:Drivers/STM32G4xx_HAL_Driver/Src/stm32g4xx_hal_flash_ex.c ****   * @retval HAL_Status
 671:Drivers/STM32G4xx_HAL_Driver/Src/stm32g4xx_hal_flash_ex.c ****   */
 672:Drivers/STM32G4xx_HAL_Driver/Src/stm32g4xx_hal_flash_ex.c **** static HAL_StatusTypeDef FLASH_OB_WRPConfig(uint32_t WRPArea, uint32_t WRPStartOffset, uint32_t WRD
 673:Drivers/STM32G4xx_HAL_Driver/Src/stm32g4xx_hal_flash_ex.c **** {
 1312              		.loc 1 673 1
 1313              		.cfi_startproc
 1314              		@ args = 0, pretend = 0, frame = 24
 1315              		@ frame_needed = 1, uses_anonymous_args = 0
 1316 0000 80B5     		push	{r7, lr}
 1317              	.LCFI52:
 1318              		.cfi_def_cfa_offset 8
 1319              		.cfi_offset 7, -8
 1320              		.cfi_offset 14, -4
 1321 0002 86B0     		sub	sp, sp, #24
 1322              	.LCFI53:
 1323              		.cfi_def_cfa_offset 32
 1324 0004 00AF     		add	r7, sp, #0
 1325              	.LCFI54:
 1326              		.cfi_def_cfa_register 7
 1327 0006 F860     		str	r0, [r7, #12]
 1328 0008 B960     		str	r1, [r7, #8]
 1329 000a 7A60     		str	r2, [r7, #4]
 674:Drivers/STM32G4xx_HAL_Driver/Src/stm32g4xx_hal_flash_ex.c ****   HAL_StatusTypeDef status;
 675:Drivers/STM32G4xx_HAL_Driver/Src/stm32g4xx_hal_flash_ex.c **** 
 676:Drivers/STM32G4xx_HAL_Driver/Src/stm32g4xx_hal_flash_ex.c ****   /* Check the parameters */
 677:Drivers/STM32G4xx_HAL_Driver/Src/stm32g4xx_hal_flash_ex.c ****   assert_param(IS_OB_WRPAREA(WRPArea));
 678:Drivers/STM32G4xx_HAL_Driver/Src/stm32g4xx_hal_flash_ex.c ****   assert_param(IS_FLASH_PAGE(WRPStartOffset));
 679:Drivers/STM32G4xx_HAL_Driver/Src/stm32g4xx_hal_flash_ex.c ****   assert_param(IS_FLASH_PAGE(WRDPEndOffset));
 680:Drivers/STM32G4xx_HAL_Driver/Src/stm32g4xx_hal_flash_ex.c **** 
 681:Drivers/STM32G4xx_HAL_Driver/Src/stm32g4xx_hal_flash_ex.c ****   /* Wait for last operation to be completed */
ARM GAS  /tmp/cc1VkgmM.s 			page 36


 682:Drivers/STM32G4xx_HAL_Driver/Src/stm32g4xx_hal_flash_ex.c ****   status = FLASH_WaitForLastOperation((uint32_t)FLASH_TIMEOUT_VALUE);
 1330              		.loc 1 682 12
 1331 000c 4FF47A70 		mov	r0, #1000
 1332 0010 FFF7FEFF 		bl	FLASH_WaitForLastOperation
 1333 0014 0346     		mov	r3, r0
 1334 0016 FB75     		strb	r3, [r7, #23]
 683:Drivers/STM32G4xx_HAL_Driver/Src/stm32g4xx_hal_flash_ex.c **** 
 684:Drivers/STM32G4xx_HAL_Driver/Src/stm32g4xx_hal_flash_ex.c ****   if (status == HAL_OK)
 1335              		.loc 1 684 6
 1336 0018 FB7D     		ldrb	r3, [r7, #23]	@ zero_extendqisi2
 1337 001a 002B     		cmp	r3, #0
 1338 001c 32D1     		bne	.L84
 685:Drivers/STM32G4xx_HAL_Driver/Src/stm32g4xx_hal_flash_ex.c ****   {
 686:Drivers/STM32G4xx_HAL_Driver/Src/stm32g4xx_hal_flash_ex.c ****     /* Configure the write protected area */
 687:Drivers/STM32G4xx_HAL_Driver/Src/stm32g4xx_hal_flash_ex.c ****     if (WRPArea == OB_WRPAREA_BANK1_AREAA)
 1339              		.loc 1 687 8
 1340 001e FB68     		ldr	r3, [r7, #12]
 1341 0020 002B     		cmp	r3, #0
 1342 0022 06D1     		bne	.L85
 688:Drivers/STM32G4xx_HAL_Driver/Src/stm32g4xx_hal_flash_ex.c ****     {
 689:Drivers/STM32G4xx_HAL_Driver/Src/stm32g4xx_hal_flash_ex.c ****       FLASH->WRP1AR = ((WRDPEndOffset << FLASH_WRP1AR_WRP1A_END_Pos) | WRPStartOffset);
 1343              		.loc 1 689 39
 1344 0024 7B68     		ldr	r3, [r7, #4]
 1345 0026 1A04     		lsls	r2, r3, #16
 1346              		.loc 1 689 12
 1347 0028 1949     		ldr	r1, .L90
 1348              		.loc 1 689 70
 1349 002a BB68     		ldr	r3, [r7, #8]
 1350 002c 1343     		orrs	r3, r3, r2
 1351              		.loc 1 689 21
 1352 002e CB62     		str	r3, [r1, #44]
 1353 0030 1CE0     		b	.L86
 1354              	.L85:
 690:Drivers/STM32G4xx_HAL_Driver/Src/stm32g4xx_hal_flash_ex.c ****     }
 691:Drivers/STM32G4xx_HAL_Driver/Src/stm32g4xx_hal_flash_ex.c ****     else if (WRPArea == OB_WRPAREA_BANK1_AREAB)
 1355              		.loc 1 691 13
 1356 0032 FB68     		ldr	r3, [r7, #12]
 1357 0034 012B     		cmp	r3, #1
 1358 0036 06D1     		bne	.L87
 692:Drivers/STM32G4xx_HAL_Driver/Src/stm32g4xx_hal_flash_ex.c ****     {
 693:Drivers/STM32G4xx_HAL_Driver/Src/stm32g4xx_hal_flash_ex.c ****       FLASH->WRP1BR = ((WRDPEndOffset << FLASH_WRP1BR_WRP1B_END_Pos) | WRPStartOffset);
 1359              		.loc 1 693 39
 1360 0038 7B68     		ldr	r3, [r7, #4]
 1361 003a 1A04     		lsls	r2, r3, #16
 1362              		.loc 1 693 12
 1363 003c 1449     		ldr	r1, .L90
 1364              		.loc 1 693 70
 1365 003e BB68     		ldr	r3, [r7, #8]
 1366 0040 1343     		orrs	r3, r3, r2
 1367              		.loc 1 693 21
 1368 0042 0B63     		str	r3, [r1, #48]
 1369 0044 12E0     		b	.L86
 1370              	.L87:
 694:Drivers/STM32G4xx_HAL_Driver/Src/stm32g4xx_hal_flash_ex.c ****     }
 695:Drivers/STM32G4xx_HAL_Driver/Src/stm32g4xx_hal_flash_ex.c **** #if defined (FLASH_OPTR_DBANK)
 696:Drivers/STM32G4xx_HAL_Driver/Src/stm32g4xx_hal_flash_ex.c ****     else if (WRPArea == OB_WRPAREA_BANK2_AREAA)
 1371              		.loc 1 696 13
ARM GAS  /tmp/cc1VkgmM.s 			page 37


 1372 0046 FB68     		ldr	r3, [r7, #12]
 1373 0048 022B     		cmp	r3, #2
 1374 004a 06D1     		bne	.L88
 697:Drivers/STM32G4xx_HAL_Driver/Src/stm32g4xx_hal_flash_ex.c ****     {
 698:Drivers/STM32G4xx_HAL_Driver/Src/stm32g4xx_hal_flash_ex.c ****       FLASH->WRP2AR = ((WRDPEndOffset << FLASH_WRP2AR_WRP2A_END_Pos) | WRPStartOffset);
 1375              		.loc 1 698 39
 1376 004c 7B68     		ldr	r3, [r7, #4]
 1377 004e 1A04     		lsls	r2, r3, #16
 1378              		.loc 1 698 12
 1379 0050 0F49     		ldr	r1, .L90
 1380              		.loc 1 698 70
 1381 0052 BB68     		ldr	r3, [r7, #8]
 1382 0054 1343     		orrs	r3, r3, r2
 1383              		.loc 1 698 21
 1384 0056 CB64     		str	r3, [r1, #76]
 1385 0058 08E0     		b	.L86
 1386              	.L88:
 699:Drivers/STM32G4xx_HAL_Driver/Src/stm32g4xx_hal_flash_ex.c ****     }
 700:Drivers/STM32G4xx_HAL_Driver/Src/stm32g4xx_hal_flash_ex.c ****     else if (WRPArea == OB_WRPAREA_BANK2_AREAB)
 1387              		.loc 1 700 13
 1388 005a FB68     		ldr	r3, [r7, #12]
 1389 005c 042B     		cmp	r3, #4
 1390 005e 05D1     		bne	.L86
 701:Drivers/STM32G4xx_HAL_Driver/Src/stm32g4xx_hal_flash_ex.c ****     {
 702:Drivers/STM32G4xx_HAL_Driver/Src/stm32g4xx_hal_flash_ex.c ****       FLASH->WRP2BR = ((WRDPEndOffset << FLASH_WRP2BR_WRP2B_END_Pos) | WRPStartOffset);
 1391              		.loc 1 702 39
 1392 0060 7B68     		ldr	r3, [r7, #4]
 1393 0062 1A04     		lsls	r2, r3, #16
 1394              		.loc 1 702 12
 1395 0064 0A49     		ldr	r1, .L90
 1396              		.loc 1 702 70
 1397 0066 BB68     		ldr	r3, [r7, #8]
 1398 0068 1343     		orrs	r3, r3, r2
 1399              		.loc 1 702 21
 1400 006a 0B65     		str	r3, [r1, #80]
 1401              	.L86:
 703:Drivers/STM32G4xx_HAL_Driver/Src/stm32g4xx_hal_flash_ex.c ****     }
 704:Drivers/STM32G4xx_HAL_Driver/Src/stm32g4xx_hal_flash_ex.c **** #endif
 705:Drivers/STM32G4xx_HAL_Driver/Src/stm32g4xx_hal_flash_ex.c ****     else
 706:Drivers/STM32G4xx_HAL_Driver/Src/stm32g4xx_hal_flash_ex.c ****     {
 707:Drivers/STM32G4xx_HAL_Driver/Src/stm32g4xx_hal_flash_ex.c ****       /* Nothing to do */
 708:Drivers/STM32G4xx_HAL_Driver/Src/stm32g4xx_hal_flash_ex.c ****     }
 709:Drivers/STM32G4xx_HAL_Driver/Src/stm32g4xx_hal_flash_ex.c **** 
 710:Drivers/STM32G4xx_HAL_Driver/Src/stm32g4xx_hal_flash_ex.c ****     /* Set OPTSTRT Bit */
 711:Drivers/STM32G4xx_HAL_Driver/Src/stm32g4xx_hal_flash_ex.c ****     SET_BIT(FLASH->CR, FLASH_CR_OPTSTRT);
 1402              		.loc 1 711 5
 1403 006c 084B     		ldr	r3, .L90
 1404 006e 5B69     		ldr	r3, [r3, #20]
 1405 0070 074A     		ldr	r2, .L90
 1406 0072 43F40033 		orr	r3, r3, #131072
 1407 0076 5361     		str	r3, [r2, #20]
 712:Drivers/STM32G4xx_HAL_Driver/Src/stm32g4xx_hal_flash_ex.c **** 
 713:Drivers/STM32G4xx_HAL_Driver/Src/stm32g4xx_hal_flash_ex.c ****     /* Wait for last operation to be completed */
 714:Drivers/STM32G4xx_HAL_Driver/Src/stm32g4xx_hal_flash_ex.c ****     status = FLASH_WaitForLastOperation((uint32_t)FLASH_TIMEOUT_VALUE);
 1408              		.loc 1 714 14
 1409 0078 4FF47A70 		mov	r0, #1000
 1410 007c FFF7FEFF 		bl	FLASH_WaitForLastOperation
ARM GAS  /tmp/cc1VkgmM.s 			page 38


 1411 0080 0346     		mov	r3, r0
 1412 0082 FB75     		strb	r3, [r7, #23]
 1413              	.L84:
 715:Drivers/STM32G4xx_HAL_Driver/Src/stm32g4xx_hal_flash_ex.c ****   }
 716:Drivers/STM32G4xx_HAL_Driver/Src/stm32g4xx_hal_flash_ex.c **** 
 717:Drivers/STM32G4xx_HAL_Driver/Src/stm32g4xx_hal_flash_ex.c ****   return status;
 1414              		.loc 1 717 10
 1415 0084 FB7D     		ldrb	r3, [r7, #23]	@ zero_extendqisi2
 718:Drivers/STM32G4xx_HAL_Driver/Src/stm32g4xx_hal_flash_ex.c **** }
 1416              		.loc 1 718 1
 1417 0086 1846     		mov	r0, r3
 1418 0088 1837     		adds	r7, r7, #24
 1419              	.LCFI55:
 1420              		.cfi_def_cfa_offset 8
 1421 008a BD46     		mov	sp, r7
 1422              	.LCFI56:
 1423              		.cfi_def_cfa_register 13
 1424              		@ sp needed
 1425 008c 80BD     		pop	{r7, pc}
 1426              	.L91:
 1427 008e 00BF     		.align	2
 1428              	.L90:
 1429 0090 00200240 		.word	1073881088
 1430              		.cfi_endproc
 1431              	.LFE335:
 1433              		.section	.text.FLASH_OB_RDPConfig,"ax",%progbits
 1434              		.align	1
 1435              		.syntax unified
 1436              		.thumb
 1437              		.thumb_func
 1438              		.fpu fpv4-sp-d16
 1440              	FLASH_OB_RDPConfig:
 1441              	.LFB336:
 719:Drivers/STM32G4xx_HAL_Driver/Src/stm32g4xx_hal_flash_ex.c **** 
 720:Drivers/STM32G4xx_HAL_Driver/Src/stm32g4xx_hal_flash_ex.c **** /**
 721:Drivers/STM32G4xx_HAL_Driver/Src/stm32g4xx_hal_flash_ex.c ****   * @brief  Set the read protection level into Option Bytes.
 722:Drivers/STM32G4xx_HAL_Driver/Src/stm32g4xx_hal_flash_ex.c ****   * @note   To configure any option bytes, the option lock bit OPTLOCK must be
 723:Drivers/STM32G4xx_HAL_Driver/Src/stm32g4xx_hal_flash_ex.c ****   *         cleared with the call of HAL_FLASH_OB_Unlock() function.
 724:Drivers/STM32G4xx_HAL_Driver/Src/stm32g4xx_hal_flash_ex.c ****   * @note   New option bytes configuration will be taken into account in two cases:
 725:Drivers/STM32G4xx_HAL_Driver/Src/stm32g4xx_hal_flash_ex.c ****   *         - after an option bytes launch through the call of HAL_FLASH_OB_Launch()
 726:Drivers/STM32G4xx_HAL_Driver/Src/stm32g4xx_hal_flash_ex.c ****   *         - after a power reset (BOR reset or exit from Standby/Shutdown modes)
 727:Drivers/STM32G4xx_HAL_Driver/Src/stm32g4xx_hal_flash_ex.c ****   * @note   !!! Warning : When enabling OB_RDP level 2 it's no more possible
 728:Drivers/STM32G4xx_HAL_Driver/Src/stm32g4xx_hal_flash_ex.c ****   *         to go back to level 1 or 0 !!!
 729:Drivers/STM32G4xx_HAL_Driver/Src/stm32g4xx_hal_flash_ex.c ****   * @param  RDPLevel specifies the read protection level.
 730:Drivers/STM32G4xx_HAL_Driver/Src/stm32g4xx_hal_flash_ex.c ****   *         This parameter can be one of the following values:
 731:Drivers/STM32G4xx_HAL_Driver/Src/stm32g4xx_hal_flash_ex.c ****   *            @arg OB_RDP_LEVEL_0: No protection
 732:Drivers/STM32G4xx_HAL_Driver/Src/stm32g4xx_hal_flash_ex.c ****   *            @arg OB_RDP_LEVEL_1: Memory Read protection
 733:Drivers/STM32G4xx_HAL_Driver/Src/stm32g4xx_hal_flash_ex.c ****   *            @arg OB_RDP_LEVEL_2: Full chip protection
 734:Drivers/STM32G4xx_HAL_Driver/Src/stm32g4xx_hal_flash_ex.c ****   *
 735:Drivers/STM32G4xx_HAL_Driver/Src/stm32g4xx_hal_flash_ex.c ****   * @retval HAL_Status
 736:Drivers/STM32G4xx_HAL_Driver/Src/stm32g4xx_hal_flash_ex.c ****   */
 737:Drivers/STM32G4xx_HAL_Driver/Src/stm32g4xx_hal_flash_ex.c **** static HAL_StatusTypeDef FLASH_OB_RDPConfig(uint32_t RDPLevel)
 738:Drivers/STM32G4xx_HAL_Driver/Src/stm32g4xx_hal_flash_ex.c **** {
 1442              		.loc 1 738 1
 1443              		.cfi_startproc
 1444              		@ args = 0, pretend = 0, frame = 16
 1445              		@ frame_needed = 1, uses_anonymous_args = 0
ARM GAS  /tmp/cc1VkgmM.s 			page 39


 1446 0000 80B5     		push	{r7, lr}
 1447              	.LCFI57:
 1448              		.cfi_def_cfa_offset 8
 1449              		.cfi_offset 7, -8
 1450              		.cfi_offset 14, -4
 1451 0002 84B0     		sub	sp, sp, #16
 1452              	.LCFI58:
 1453              		.cfi_def_cfa_offset 24
 1454 0004 00AF     		add	r7, sp, #0
 1455              	.LCFI59:
 1456              		.cfi_def_cfa_register 7
 1457 0006 7860     		str	r0, [r7, #4]
 739:Drivers/STM32G4xx_HAL_Driver/Src/stm32g4xx_hal_flash_ex.c ****   HAL_StatusTypeDef status;
 740:Drivers/STM32G4xx_HAL_Driver/Src/stm32g4xx_hal_flash_ex.c **** 
 741:Drivers/STM32G4xx_HAL_Driver/Src/stm32g4xx_hal_flash_ex.c ****   /* Check the parameters */
 742:Drivers/STM32G4xx_HAL_Driver/Src/stm32g4xx_hal_flash_ex.c ****   assert_param(IS_OB_RDP_LEVEL(RDPLevel));
 743:Drivers/STM32G4xx_HAL_Driver/Src/stm32g4xx_hal_flash_ex.c **** 
 744:Drivers/STM32G4xx_HAL_Driver/Src/stm32g4xx_hal_flash_ex.c ****   /* Wait for last operation to be completed */
 745:Drivers/STM32G4xx_HAL_Driver/Src/stm32g4xx_hal_flash_ex.c ****   status = FLASH_WaitForLastOperation((uint32_t)FLASH_TIMEOUT_VALUE);
 1458              		.loc 1 745 12
 1459 0008 4FF47A70 		mov	r0, #1000
 1460 000c FFF7FEFF 		bl	FLASH_WaitForLastOperation
 1461 0010 0346     		mov	r3, r0
 1462 0012 FB73     		strb	r3, [r7, #15]
 746:Drivers/STM32G4xx_HAL_Driver/Src/stm32g4xx_hal_flash_ex.c **** 
 747:Drivers/STM32G4xx_HAL_Driver/Src/stm32g4xx_hal_flash_ex.c ****   if (status == HAL_OK)
 1463              		.loc 1 747 6
 1464 0014 FB7B     		ldrb	r3, [r7, #15]	@ zero_extendqisi2
 1465 0016 002B     		cmp	r3, #0
 1466 0018 13D1     		bne	.L93
 748:Drivers/STM32G4xx_HAL_Driver/Src/stm32g4xx_hal_flash_ex.c ****   {
 749:Drivers/STM32G4xx_HAL_Driver/Src/stm32g4xx_hal_flash_ex.c ****     /* Configure the RDP level in the option bytes register */
 750:Drivers/STM32G4xx_HAL_Driver/Src/stm32g4xx_hal_flash_ex.c ****     MODIFY_REG(FLASH->OPTR, FLASH_OPTR_RDP, RDPLevel);
 1467              		.loc 1 750 5
 1468 001a 0C4B     		ldr	r3, .L95
 1469 001c 1B6A     		ldr	r3, [r3, #32]
 1470 001e 23F0FF02 		bic	r2, r3, #255
 1471 0022 0A49     		ldr	r1, .L95
 1472 0024 7B68     		ldr	r3, [r7, #4]
 1473 0026 1343     		orrs	r3, r3, r2
 1474 0028 0B62     		str	r3, [r1, #32]
 751:Drivers/STM32G4xx_HAL_Driver/Src/stm32g4xx_hal_flash_ex.c **** 
 752:Drivers/STM32G4xx_HAL_Driver/Src/stm32g4xx_hal_flash_ex.c ****     /* Set OPTSTRT Bit */
 753:Drivers/STM32G4xx_HAL_Driver/Src/stm32g4xx_hal_flash_ex.c ****     SET_BIT(FLASH->CR, FLASH_CR_OPTSTRT);
 1475              		.loc 1 753 5
 1476 002a 084B     		ldr	r3, .L95
 1477 002c 5B69     		ldr	r3, [r3, #20]
 1478 002e 074A     		ldr	r2, .L95
 1479 0030 43F40033 		orr	r3, r3, #131072
 1480 0034 5361     		str	r3, [r2, #20]
 754:Drivers/STM32G4xx_HAL_Driver/Src/stm32g4xx_hal_flash_ex.c **** 
 755:Drivers/STM32G4xx_HAL_Driver/Src/stm32g4xx_hal_flash_ex.c ****     /* Wait for last operation to be completed */
 756:Drivers/STM32G4xx_HAL_Driver/Src/stm32g4xx_hal_flash_ex.c ****     status = FLASH_WaitForLastOperation((uint32_t)FLASH_TIMEOUT_VALUE);
 1481              		.loc 1 756 14
 1482 0036 4FF47A70 		mov	r0, #1000
 1483 003a FFF7FEFF 		bl	FLASH_WaitForLastOperation
 1484 003e 0346     		mov	r3, r0
ARM GAS  /tmp/cc1VkgmM.s 			page 40


 1485 0040 FB73     		strb	r3, [r7, #15]
 1486              	.L93:
 757:Drivers/STM32G4xx_HAL_Driver/Src/stm32g4xx_hal_flash_ex.c ****   }
 758:Drivers/STM32G4xx_HAL_Driver/Src/stm32g4xx_hal_flash_ex.c **** 
 759:Drivers/STM32G4xx_HAL_Driver/Src/stm32g4xx_hal_flash_ex.c ****   return status;
 1487              		.loc 1 759 10
 1488 0042 FB7B     		ldrb	r3, [r7, #15]	@ zero_extendqisi2
 760:Drivers/STM32G4xx_HAL_Driver/Src/stm32g4xx_hal_flash_ex.c **** }
 1489              		.loc 1 760 1
 1490 0044 1846     		mov	r0, r3
 1491 0046 1037     		adds	r7, r7, #16
 1492              	.LCFI60:
 1493              		.cfi_def_cfa_offset 8
 1494 0048 BD46     		mov	sp, r7
 1495              	.LCFI61:
 1496              		.cfi_def_cfa_register 13
 1497              		@ sp needed
 1498 004a 80BD     		pop	{r7, pc}
 1499              	.L96:
 1500              		.align	2
 1501              	.L95:
 1502 004c 00200240 		.word	1073881088
 1503              		.cfi_endproc
 1504              	.LFE336:
 1506              		.section	.text.FLASH_OB_UserConfig,"ax",%progbits
 1507              		.align	1
 1508              		.syntax unified
 1509              		.thumb
 1510              		.thumb_func
 1511              		.fpu fpv4-sp-d16
 1513              	FLASH_OB_UserConfig:
 1514              	.LFB337:
 761:Drivers/STM32G4xx_HAL_Driver/Src/stm32g4xx_hal_flash_ex.c **** 
 762:Drivers/STM32G4xx_HAL_Driver/Src/stm32g4xx_hal_flash_ex.c **** /**
 763:Drivers/STM32G4xx_HAL_Driver/Src/stm32g4xx_hal_flash_ex.c ****   * @brief  Program the FLASH User Option Bytes.
 764:Drivers/STM32G4xx_HAL_Driver/Src/stm32g4xx_hal_flash_ex.c ****   * @note   To configure any option bytes, the option lock bit OPTLOCK must be
 765:Drivers/STM32G4xx_HAL_Driver/Src/stm32g4xx_hal_flash_ex.c ****   *         cleared with the call of HAL_FLASH_OB_Unlock() function.
 766:Drivers/STM32G4xx_HAL_Driver/Src/stm32g4xx_hal_flash_ex.c ****   * @note   New option bytes configuration will be taken into account in two cases:
 767:Drivers/STM32G4xx_HAL_Driver/Src/stm32g4xx_hal_flash_ex.c ****   *         - after an option bytes launch through the call of HAL_FLASH_OB_Launch()
 768:Drivers/STM32G4xx_HAL_Driver/Src/stm32g4xx_hal_flash_ex.c ****   *         - after a power reset (BOR reset or exit from Standby/Shutdown modes)
 769:Drivers/STM32G4xx_HAL_Driver/Src/stm32g4xx_hal_flash_ex.c ****   * @param  UserType The FLASH User Option Bytes to be modified.
 770:Drivers/STM32G4xx_HAL_Driver/Src/stm32g4xx_hal_flash_ex.c ****   *         This parameter can be a combination of @ref FLASH_OB_USER_Type.
 771:Drivers/STM32G4xx_HAL_Driver/Src/stm32g4xx_hal_flash_ex.c ****   * @param  UserConfig The selected User Option Bytes values:
 772:Drivers/STM32G4xx_HAL_Driver/Src/stm32g4xx_hal_flash_ex.c ****   *         This parameter can be a combination of @ref FLASH_OB_USER_BOR_LEVEL,
 773:Drivers/STM32G4xx_HAL_Driver/Src/stm32g4xx_hal_flash_ex.c ****   *         @ref FLASH_OB_USER_nRST_STOP, @ref FLASH_OB_USER_nRST_STANDBY ,
 774:Drivers/STM32G4xx_HAL_Driver/Src/stm32g4xx_hal_flash_ex.c ****   *         @ref FLASH_OB_USER_nRST_SHUTDOWN, @ref FLASH_OB_USER_IWDG_SW,
 775:Drivers/STM32G4xx_HAL_Driver/Src/stm32g4xx_hal_flash_ex.c ****   *         @ref FLASH_OB_USER_IWDG_STOP, @ref FLASH_OB_USER_IWDG_STANDBY,
 776:Drivers/STM32G4xx_HAL_Driver/Src/stm32g4xx_hal_flash_ex.c ****   *         @ref FLASH_OB_USER_WWDG_SW, @ref FLASH_OB_USER_WWDG_SW,
 777:Drivers/STM32G4xx_HAL_Driver/Src/stm32g4xx_hal_flash_ex.c ****   *         @ref FLASH_OB_USER_BFB2 (*), @ref FLASH_OB_USER_nBOOT1,
 778:Drivers/STM32G4xx_HAL_Driver/Src/stm32g4xx_hal_flash_ex.c ****   *         @ref FLASH_OB_USER_SRAM_PE, @ref FLASH_OB_USER_CCMSRAM_RST,
 779:Drivers/STM32G4xx_HAL_Driver/Src/stm32g4xx_hal_flash_ex.c ****   *         @ref FLASH_OB_USER_nSWBOOT0, @ref FLASH_OB_USER_nBOOT0,
 780:Drivers/STM32G4xx_HAL_Driver/Src/stm32g4xx_hal_flash_ex.c ****   *         @ref FLASH_OB_USER_NRST_MODE, @ref FLASH_OB_USER_INTERNAL_RESET_HOLDER
 781:Drivers/STM32G4xx_HAL_Driver/Src/stm32g4xx_hal_flash_ex.c ****   * @note   (*) availability depends on devices
 782:Drivers/STM32G4xx_HAL_Driver/Src/stm32g4xx_hal_flash_ex.c ****   * @retval HAL_Status
 783:Drivers/STM32G4xx_HAL_Driver/Src/stm32g4xx_hal_flash_ex.c ****   */
 784:Drivers/STM32G4xx_HAL_Driver/Src/stm32g4xx_hal_flash_ex.c **** static HAL_StatusTypeDef FLASH_OB_UserConfig(uint32_t UserType, uint32_t UserConfig)
 785:Drivers/STM32G4xx_HAL_Driver/Src/stm32g4xx_hal_flash_ex.c **** {
ARM GAS  /tmp/cc1VkgmM.s 			page 41


 1515              		.loc 1 785 1
 1516              		.cfi_startproc
 1517              		@ args = 0, pretend = 0, frame = 24
 1518              		@ frame_needed = 1, uses_anonymous_args = 0
 1519 0000 80B5     		push	{r7, lr}
 1520              	.LCFI62:
 1521              		.cfi_def_cfa_offset 8
 1522              		.cfi_offset 7, -8
 1523              		.cfi_offset 14, -4
 1524 0002 86B0     		sub	sp, sp, #24
 1525              	.LCFI63:
 1526              		.cfi_def_cfa_offset 32
 1527 0004 00AF     		add	r7, sp, #0
 1528              	.LCFI64:
 1529              		.cfi_def_cfa_register 7
 1530 0006 7860     		str	r0, [r7, #4]
 1531 0008 3960     		str	r1, [r7]
 786:Drivers/STM32G4xx_HAL_Driver/Src/stm32g4xx_hal_flash_ex.c ****   uint32_t optr_reg_val = 0;
 1532              		.loc 1 786 12
 1533 000a 0023     		movs	r3, #0
 1534 000c 7B61     		str	r3, [r7, #20]
 787:Drivers/STM32G4xx_HAL_Driver/Src/stm32g4xx_hal_flash_ex.c ****   uint32_t optr_reg_mask = 0;
 1535              		.loc 1 787 12
 1536 000e 0023     		movs	r3, #0
 1537 0010 3B61     		str	r3, [r7, #16]
 788:Drivers/STM32G4xx_HAL_Driver/Src/stm32g4xx_hal_flash_ex.c ****   HAL_StatusTypeDef status;
 789:Drivers/STM32G4xx_HAL_Driver/Src/stm32g4xx_hal_flash_ex.c **** 
 790:Drivers/STM32G4xx_HAL_Driver/Src/stm32g4xx_hal_flash_ex.c ****   /* Check the parameters */
 791:Drivers/STM32G4xx_HAL_Driver/Src/stm32g4xx_hal_flash_ex.c ****   assert_param(IS_OB_USER_TYPE(UserType));
 792:Drivers/STM32G4xx_HAL_Driver/Src/stm32g4xx_hal_flash_ex.c **** 
 793:Drivers/STM32G4xx_HAL_Driver/Src/stm32g4xx_hal_flash_ex.c ****   /* Wait for last operation to be completed */
 794:Drivers/STM32G4xx_HAL_Driver/Src/stm32g4xx_hal_flash_ex.c ****   status = FLASH_WaitForLastOperation((uint32_t)FLASH_TIMEOUT_VALUE);
 1538              		.loc 1 794 12
 1539 0012 4FF47A70 		mov	r0, #1000
 1540 0016 FFF7FEFF 		bl	FLASH_WaitForLastOperation
 1541 001a 0346     		mov	r3, r0
 1542 001c FB73     		strb	r3, [r7, #15]
 795:Drivers/STM32G4xx_HAL_Driver/Src/stm32g4xx_hal_flash_ex.c **** 
 796:Drivers/STM32G4xx_HAL_Driver/Src/stm32g4xx_hal_flash_ex.c ****   if (status == HAL_OK)
 1543              		.loc 1 796 6
 1544 001e FB7B     		ldrb	r3, [r7, #15]	@ zero_extendqisi2
 1545 0020 002B     		cmp	r3, #0
 1546 0022 40F00581 		bne	.L98
 797:Drivers/STM32G4xx_HAL_Driver/Src/stm32g4xx_hal_flash_ex.c ****   {
 798:Drivers/STM32G4xx_HAL_Driver/Src/stm32g4xx_hal_flash_ex.c ****     if ((UserType & OB_USER_BOR_LEV) != 0U)
 1547              		.loc 1 798 19
 1548 0026 7B68     		ldr	r3, [r7, #4]
 1549 0028 03F00103 		and	r3, r3, #1
 1550              		.loc 1 798 8
 1551 002c 002B     		cmp	r3, #0
 1552 002e 09D0     		beq	.L99
 799:Drivers/STM32G4xx_HAL_Driver/Src/stm32g4xx_hal_flash_ex.c ****     {
 800:Drivers/STM32G4xx_HAL_Driver/Src/stm32g4xx_hal_flash_ex.c ****       /* BOR level option byte should be modified */
 801:Drivers/STM32G4xx_HAL_Driver/Src/stm32g4xx_hal_flash_ex.c ****       assert_param(IS_OB_USER_BOR_LEVEL(UserConfig & FLASH_OPTR_BOR_LEV));
 802:Drivers/STM32G4xx_HAL_Driver/Src/stm32g4xx_hal_flash_ex.c **** 
 803:Drivers/STM32G4xx_HAL_Driver/Src/stm32g4xx_hal_flash_ex.c ****       /* Set value and mask for BOR level option byte */
 804:Drivers/STM32G4xx_HAL_Driver/Src/stm32g4xx_hal_flash_ex.c ****       optr_reg_val |= (UserConfig & FLASH_OPTR_BOR_LEV);
ARM GAS  /tmp/cc1VkgmM.s 			page 42


 1553              		.loc 1 804 35
 1554 0030 3B68     		ldr	r3, [r7]
 1555 0032 03F4E063 		and	r3, r3, #1792
 1556              		.loc 1 804 20
 1557 0036 7A69     		ldr	r2, [r7, #20]
 1558 0038 1343     		orrs	r3, r3, r2
 1559 003a 7B61     		str	r3, [r7, #20]
 805:Drivers/STM32G4xx_HAL_Driver/Src/stm32g4xx_hal_flash_ex.c ****       optr_reg_mask |= FLASH_OPTR_BOR_LEV;
 1560              		.loc 1 805 21
 1561 003c 3B69     		ldr	r3, [r7, #16]
 1562 003e 43F4E063 		orr	r3, r3, #1792
 1563 0042 3B61     		str	r3, [r7, #16]
 1564              	.L99:
 806:Drivers/STM32G4xx_HAL_Driver/Src/stm32g4xx_hal_flash_ex.c ****     }
 807:Drivers/STM32G4xx_HAL_Driver/Src/stm32g4xx_hal_flash_ex.c **** 
 808:Drivers/STM32G4xx_HAL_Driver/Src/stm32g4xx_hal_flash_ex.c ****     if ((UserType & OB_USER_nRST_STOP) != 0U)
 1565              		.loc 1 808 19
 1566 0044 7B68     		ldr	r3, [r7, #4]
 1567 0046 03F00203 		and	r3, r3, #2
 1568              		.loc 1 808 8
 1569 004a 002B     		cmp	r3, #0
 1570 004c 09D0     		beq	.L100
 809:Drivers/STM32G4xx_HAL_Driver/Src/stm32g4xx_hal_flash_ex.c ****     {
 810:Drivers/STM32G4xx_HAL_Driver/Src/stm32g4xx_hal_flash_ex.c ****       /* nRST_STOP option byte should be modified */
 811:Drivers/STM32G4xx_HAL_Driver/Src/stm32g4xx_hal_flash_ex.c ****       assert_param(IS_OB_USER_STOP(UserConfig & FLASH_OPTR_nRST_STOP));
 812:Drivers/STM32G4xx_HAL_Driver/Src/stm32g4xx_hal_flash_ex.c **** 
 813:Drivers/STM32G4xx_HAL_Driver/Src/stm32g4xx_hal_flash_ex.c ****       /* Set value and mask for nRST_STOP option byte */
 814:Drivers/STM32G4xx_HAL_Driver/Src/stm32g4xx_hal_flash_ex.c ****       optr_reg_val |= (UserConfig & FLASH_OPTR_nRST_STOP);
 1571              		.loc 1 814 35
 1572 004e 3B68     		ldr	r3, [r7]
 1573 0050 03F48053 		and	r3, r3, #4096
 1574              		.loc 1 814 20
 1575 0054 7A69     		ldr	r2, [r7, #20]
 1576 0056 1343     		orrs	r3, r3, r2
 1577 0058 7B61     		str	r3, [r7, #20]
 815:Drivers/STM32G4xx_HAL_Driver/Src/stm32g4xx_hal_flash_ex.c ****       optr_reg_mask |= FLASH_OPTR_nRST_STOP;
 1578              		.loc 1 815 21
 1579 005a 3B69     		ldr	r3, [r7, #16]
 1580 005c 43F48053 		orr	r3, r3, #4096
 1581 0060 3B61     		str	r3, [r7, #16]
 1582              	.L100:
 816:Drivers/STM32G4xx_HAL_Driver/Src/stm32g4xx_hal_flash_ex.c ****     }
 817:Drivers/STM32G4xx_HAL_Driver/Src/stm32g4xx_hal_flash_ex.c **** 
 818:Drivers/STM32G4xx_HAL_Driver/Src/stm32g4xx_hal_flash_ex.c ****     if ((UserType & OB_USER_nRST_STDBY) != 0U)
 1583              		.loc 1 818 19
 1584 0062 7B68     		ldr	r3, [r7, #4]
 1585 0064 03F00403 		and	r3, r3, #4
 1586              		.loc 1 818 8
 1587 0068 002B     		cmp	r3, #0
 1588 006a 09D0     		beq	.L101
 819:Drivers/STM32G4xx_HAL_Driver/Src/stm32g4xx_hal_flash_ex.c ****     {
 820:Drivers/STM32G4xx_HAL_Driver/Src/stm32g4xx_hal_flash_ex.c ****       /* nRST_STDBY option byte should be modified */
 821:Drivers/STM32G4xx_HAL_Driver/Src/stm32g4xx_hal_flash_ex.c ****       assert_param(IS_OB_USER_STANDBY(UserConfig & FLASH_OPTR_nRST_STDBY));
 822:Drivers/STM32G4xx_HAL_Driver/Src/stm32g4xx_hal_flash_ex.c **** 
 823:Drivers/STM32G4xx_HAL_Driver/Src/stm32g4xx_hal_flash_ex.c ****       /* Set value and mask for nRST_STDBY option byte */
 824:Drivers/STM32G4xx_HAL_Driver/Src/stm32g4xx_hal_flash_ex.c ****       optr_reg_val |= (UserConfig & FLASH_OPTR_nRST_STDBY);
 1589              		.loc 1 824 35
ARM GAS  /tmp/cc1VkgmM.s 			page 43


 1590 006c 3B68     		ldr	r3, [r7]
 1591 006e 03F40053 		and	r3, r3, #8192
 1592              		.loc 1 824 20
 1593 0072 7A69     		ldr	r2, [r7, #20]
 1594 0074 1343     		orrs	r3, r3, r2
 1595 0076 7B61     		str	r3, [r7, #20]
 825:Drivers/STM32G4xx_HAL_Driver/Src/stm32g4xx_hal_flash_ex.c ****       optr_reg_mask |= FLASH_OPTR_nRST_STDBY;
 1596              		.loc 1 825 21
 1597 0078 3B69     		ldr	r3, [r7, #16]
 1598 007a 43F40053 		orr	r3, r3, #8192
 1599 007e 3B61     		str	r3, [r7, #16]
 1600              	.L101:
 826:Drivers/STM32G4xx_HAL_Driver/Src/stm32g4xx_hal_flash_ex.c ****     }
 827:Drivers/STM32G4xx_HAL_Driver/Src/stm32g4xx_hal_flash_ex.c **** 
 828:Drivers/STM32G4xx_HAL_Driver/Src/stm32g4xx_hal_flash_ex.c ****     if ((UserType & OB_USER_nRST_SHDW) != 0U)
 1601              		.loc 1 828 19
 1602 0080 7B68     		ldr	r3, [r7, #4]
 1603 0082 03F48053 		and	r3, r3, #4096
 1604              		.loc 1 828 8
 1605 0086 002B     		cmp	r3, #0
 1606 0088 09D0     		beq	.L102
 829:Drivers/STM32G4xx_HAL_Driver/Src/stm32g4xx_hal_flash_ex.c ****     {
 830:Drivers/STM32G4xx_HAL_Driver/Src/stm32g4xx_hal_flash_ex.c ****       /* nRST_SHDW option byte should be modified */
 831:Drivers/STM32G4xx_HAL_Driver/Src/stm32g4xx_hal_flash_ex.c ****       assert_param(IS_OB_USER_SHUTDOWN(UserConfig & FLASH_OPTR_nRST_SHDW));
 832:Drivers/STM32G4xx_HAL_Driver/Src/stm32g4xx_hal_flash_ex.c **** 
 833:Drivers/STM32G4xx_HAL_Driver/Src/stm32g4xx_hal_flash_ex.c ****       /* Set value and mask for nRST_SHDW option byte */
 834:Drivers/STM32G4xx_HAL_Driver/Src/stm32g4xx_hal_flash_ex.c ****       optr_reg_val |= (UserConfig & FLASH_OPTR_nRST_SHDW);
 1607              		.loc 1 834 35
 1608 008a 3B68     		ldr	r3, [r7]
 1609 008c 03F48043 		and	r3, r3, #16384
 1610              		.loc 1 834 20
 1611 0090 7A69     		ldr	r2, [r7, #20]
 1612 0092 1343     		orrs	r3, r3, r2
 1613 0094 7B61     		str	r3, [r7, #20]
 835:Drivers/STM32G4xx_HAL_Driver/Src/stm32g4xx_hal_flash_ex.c ****       optr_reg_mask |= FLASH_OPTR_nRST_SHDW;
 1614              		.loc 1 835 21
 1615 0096 3B69     		ldr	r3, [r7, #16]
 1616 0098 43F48043 		orr	r3, r3, #16384
 1617 009c 3B61     		str	r3, [r7, #16]
 1618              	.L102:
 836:Drivers/STM32G4xx_HAL_Driver/Src/stm32g4xx_hal_flash_ex.c ****     }
 837:Drivers/STM32G4xx_HAL_Driver/Src/stm32g4xx_hal_flash_ex.c **** 
 838:Drivers/STM32G4xx_HAL_Driver/Src/stm32g4xx_hal_flash_ex.c ****     if ((UserType & OB_USER_IWDG_SW) != 0U)
 1619              		.loc 1 838 19
 1620 009e 7B68     		ldr	r3, [r7, #4]
 1621 00a0 03F00803 		and	r3, r3, #8
 1622              		.loc 1 838 8
 1623 00a4 002B     		cmp	r3, #0
 1624 00a6 09D0     		beq	.L103
 839:Drivers/STM32G4xx_HAL_Driver/Src/stm32g4xx_hal_flash_ex.c ****     {
 840:Drivers/STM32G4xx_HAL_Driver/Src/stm32g4xx_hal_flash_ex.c ****       /* IWDG_SW option byte should be modified */
 841:Drivers/STM32G4xx_HAL_Driver/Src/stm32g4xx_hal_flash_ex.c ****       assert_param(IS_OB_USER_IWDG(UserConfig & FLASH_OPTR_IWDG_SW));
 842:Drivers/STM32G4xx_HAL_Driver/Src/stm32g4xx_hal_flash_ex.c **** 
 843:Drivers/STM32G4xx_HAL_Driver/Src/stm32g4xx_hal_flash_ex.c ****       /* Set value and mask for IWDG_SW option byte */
 844:Drivers/STM32G4xx_HAL_Driver/Src/stm32g4xx_hal_flash_ex.c ****       optr_reg_val |= (UserConfig & FLASH_OPTR_IWDG_SW);
 1625              		.loc 1 844 35
 1626 00a8 3B68     		ldr	r3, [r7]
ARM GAS  /tmp/cc1VkgmM.s 			page 44


 1627 00aa 03F48033 		and	r3, r3, #65536
 1628              		.loc 1 844 20
 1629 00ae 7A69     		ldr	r2, [r7, #20]
 1630 00b0 1343     		orrs	r3, r3, r2
 1631 00b2 7B61     		str	r3, [r7, #20]
 845:Drivers/STM32G4xx_HAL_Driver/Src/stm32g4xx_hal_flash_ex.c ****       optr_reg_mask |= FLASH_OPTR_IWDG_SW;
 1632              		.loc 1 845 21
 1633 00b4 3B69     		ldr	r3, [r7, #16]
 1634 00b6 43F48033 		orr	r3, r3, #65536
 1635 00ba 3B61     		str	r3, [r7, #16]
 1636              	.L103:
 846:Drivers/STM32G4xx_HAL_Driver/Src/stm32g4xx_hal_flash_ex.c ****     }
 847:Drivers/STM32G4xx_HAL_Driver/Src/stm32g4xx_hal_flash_ex.c **** 
 848:Drivers/STM32G4xx_HAL_Driver/Src/stm32g4xx_hal_flash_ex.c ****     if ((UserType & OB_USER_IWDG_STOP) != 0U)
 1637              		.loc 1 848 19
 1638 00bc 7B68     		ldr	r3, [r7, #4]
 1639 00be 03F01003 		and	r3, r3, #16
 1640              		.loc 1 848 8
 1641 00c2 002B     		cmp	r3, #0
 1642 00c4 09D0     		beq	.L104
 849:Drivers/STM32G4xx_HAL_Driver/Src/stm32g4xx_hal_flash_ex.c ****     {
 850:Drivers/STM32G4xx_HAL_Driver/Src/stm32g4xx_hal_flash_ex.c ****       /* IWDG_STOP option byte should be modified */
 851:Drivers/STM32G4xx_HAL_Driver/Src/stm32g4xx_hal_flash_ex.c ****       assert_param(IS_OB_USER_IWDG_STOP(UserConfig & FLASH_OPTR_IWDG_STOP));
 852:Drivers/STM32G4xx_HAL_Driver/Src/stm32g4xx_hal_flash_ex.c **** 
 853:Drivers/STM32G4xx_HAL_Driver/Src/stm32g4xx_hal_flash_ex.c ****       /* Set value and mask for IWDG_STOP option byte */
 854:Drivers/STM32G4xx_HAL_Driver/Src/stm32g4xx_hal_flash_ex.c ****       optr_reg_val |= (UserConfig & FLASH_OPTR_IWDG_STOP);
 1643              		.loc 1 854 35
 1644 00c6 3B68     		ldr	r3, [r7]
 1645 00c8 03F40033 		and	r3, r3, #131072
 1646              		.loc 1 854 20
 1647 00cc 7A69     		ldr	r2, [r7, #20]
 1648 00ce 1343     		orrs	r3, r3, r2
 1649 00d0 7B61     		str	r3, [r7, #20]
 855:Drivers/STM32G4xx_HAL_Driver/Src/stm32g4xx_hal_flash_ex.c ****       optr_reg_mask |= FLASH_OPTR_IWDG_STOP;
 1650              		.loc 1 855 21
 1651 00d2 3B69     		ldr	r3, [r7, #16]
 1652 00d4 43F40033 		orr	r3, r3, #131072
 1653 00d8 3B61     		str	r3, [r7, #16]
 1654              	.L104:
 856:Drivers/STM32G4xx_HAL_Driver/Src/stm32g4xx_hal_flash_ex.c ****     }
 857:Drivers/STM32G4xx_HAL_Driver/Src/stm32g4xx_hal_flash_ex.c **** 
 858:Drivers/STM32G4xx_HAL_Driver/Src/stm32g4xx_hal_flash_ex.c ****     if ((UserType & OB_USER_IWDG_STDBY) != 0U)
 1655              		.loc 1 858 19
 1656 00da 7B68     		ldr	r3, [r7, #4]
 1657 00dc 03F02003 		and	r3, r3, #32
 1658              		.loc 1 858 8
 1659 00e0 002B     		cmp	r3, #0
 1660 00e2 09D0     		beq	.L105
 859:Drivers/STM32G4xx_HAL_Driver/Src/stm32g4xx_hal_flash_ex.c ****     {
 860:Drivers/STM32G4xx_HAL_Driver/Src/stm32g4xx_hal_flash_ex.c ****       /* IWDG_STDBY option byte should be modified */
 861:Drivers/STM32G4xx_HAL_Driver/Src/stm32g4xx_hal_flash_ex.c ****       assert_param(IS_OB_USER_IWDG_STDBY(UserConfig & FLASH_OPTR_IWDG_STDBY));
 862:Drivers/STM32G4xx_HAL_Driver/Src/stm32g4xx_hal_flash_ex.c **** 
 863:Drivers/STM32G4xx_HAL_Driver/Src/stm32g4xx_hal_flash_ex.c ****       /* Set value and mask for IWDG_STDBY option byte */
 864:Drivers/STM32G4xx_HAL_Driver/Src/stm32g4xx_hal_flash_ex.c ****       optr_reg_val |= (UserConfig & FLASH_OPTR_IWDG_STDBY);
 1661              		.loc 1 864 35
 1662 00e4 3B68     		ldr	r3, [r7]
 1663 00e6 03F48023 		and	r3, r3, #262144
ARM GAS  /tmp/cc1VkgmM.s 			page 45


 1664              		.loc 1 864 20
 1665 00ea 7A69     		ldr	r2, [r7, #20]
 1666 00ec 1343     		orrs	r3, r3, r2
 1667 00ee 7B61     		str	r3, [r7, #20]
 865:Drivers/STM32G4xx_HAL_Driver/Src/stm32g4xx_hal_flash_ex.c ****       optr_reg_mask |= FLASH_OPTR_IWDG_STDBY;
 1668              		.loc 1 865 21
 1669 00f0 3B69     		ldr	r3, [r7, #16]
 1670 00f2 43F48023 		orr	r3, r3, #262144
 1671 00f6 3B61     		str	r3, [r7, #16]
 1672              	.L105:
 866:Drivers/STM32G4xx_HAL_Driver/Src/stm32g4xx_hal_flash_ex.c ****     }
 867:Drivers/STM32G4xx_HAL_Driver/Src/stm32g4xx_hal_flash_ex.c **** 
 868:Drivers/STM32G4xx_HAL_Driver/Src/stm32g4xx_hal_flash_ex.c ****     if ((UserType & OB_USER_WWDG_SW) != 0U)
 1673              		.loc 1 868 19
 1674 00f8 7B68     		ldr	r3, [r7, #4]
 1675 00fa 03F04003 		and	r3, r3, #64
 1676              		.loc 1 868 8
 1677 00fe 002B     		cmp	r3, #0
 1678 0100 09D0     		beq	.L106
 869:Drivers/STM32G4xx_HAL_Driver/Src/stm32g4xx_hal_flash_ex.c ****     {
 870:Drivers/STM32G4xx_HAL_Driver/Src/stm32g4xx_hal_flash_ex.c ****       /* WWDG_SW option byte should be modified */
 871:Drivers/STM32G4xx_HAL_Driver/Src/stm32g4xx_hal_flash_ex.c ****       assert_param(IS_OB_USER_WWDG(UserConfig & FLASH_OPTR_WWDG_SW));
 872:Drivers/STM32G4xx_HAL_Driver/Src/stm32g4xx_hal_flash_ex.c **** 
 873:Drivers/STM32G4xx_HAL_Driver/Src/stm32g4xx_hal_flash_ex.c ****       /* Set value and mask for WWDG_SW option byte */
 874:Drivers/STM32G4xx_HAL_Driver/Src/stm32g4xx_hal_flash_ex.c ****       optr_reg_val |= (UserConfig & FLASH_OPTR_WWDG_SW);
 1679              		.loc 1 874 35
 1680 0102 3B68     		ldr	r3, [r7]
 1681 0104 03F40023 		and	r3, r3, #524288
 1682              		.loc 1 874 20
 1683 0108 7A69     		ldr	r2, [r7, #20]
 1684 010a 1343     		orrs	r3, r3, r2
 1685 010c 7B61     		str	r3, [r7, #20]
 875:Drivers/STM32G4xx_HAL_Driver/Src/stm32g4xx_hal_flash_ex.c ****       optr_reg_mask |= FLASH_OPTR_WWDG_SW;
 1686              		.loc 1 875 21
 1687 010e 3B69     		ldr	r3, [r7, #16]
 1688 0110 43F40023 		orr	r3, r3, #524288
 1689 0114 3B61     		str	r3, [r7, #16]
 1690              	.L106:
 876:Drivers/STM32G4xx_HAL_Driver/Src/stm32g4xx_hal_flash_ex.c ****     }
 877:Drivers/STM32G4xx_HAL_Driver/Src/stm32g4xx_hal_flash_ex.c **** 
 878:Drivers/STM32G4xx_HAL_Driver/Src/stm32g4xx_hal_flash_ex.c **** #if defined (FLASH_OPTR_BFB2)
 879:Drivers/STM32G4xx_HAL_Driver/Src/stm32g4xx_hal_flash_ex.c ****     if ((UserType & OB_USER_BFB2) != 0U)
 1691              		.loc 1 879 19
 1692 0116 7B68     		ldr	r3, [r7, #4]
 1693 0118 03F08003 		and	r3, r3, #128
 1694              		.loc 1 879 8
 1695 011c 002B     		cmp	r3, #0
 1696 011e 09D0     		beq	.L107
 880:Drivers/STM32G4xx_HAL_Driver/Src/stm32g4xx_hal_flash_ex.c ****     {
 881:Drivers/STM32G4xx_HAL_Driver/Src/stm32g4xx_hal_flash_ex.c ****       /* BFB2 option byte should be modified */
 882:Drivers/STM32G4xx_HAL_Driver/Src/stm32g4xx_hal_flash_ex.c ****       assert_param(IS_OB_USER_BFB2(UserConfig & FLASH_OPTR_BFB2));
 883:Drivers/STM32G4xx_HAL_Driver/Src/stm32g4xx_hal_flash_ex.c **** 
 884:Drivers/STM32G4xx_HAL_Driver/Src/stm32g4xx_hal_flash_ex.c ****       /* Set value and mask for BFB2 option byte */
 885:Drivers/STM32G4xx_HAL_Driver/Src/stm32g4xx_hal_flash_ex.c ****       optr_reg_val |= (UserConfig & FLASH_OPTR_BFB2);
 1697              		.loc 1 885 35
 1698 0120 3B68     		ldr	r3, [r7]
 1699 0122 03F48013 		and	r3, r3, #1048576
ARM GAS  /tmp/cc1VkgmM.s 			page 46


 1700              		.loc 1 885 20
 1701 0126 7A69     		ldr	r2, [r7, #20]
 1702 0128 1343     		orrs	r3, r3, r2
 1703 012a 7B61     		str	r3, [r7, #20]
 886:Drivers/STM32G4xx_HAL_Driver/Src/stm32g4xx_hal_flash_ex.c ****       optr_reg_mask |= FLASH_OPTR_BFB2;
 1704              		.loc 1 886 21
 1705 012c 3B69     		ldr	r3, [r7, #16]
 1706 012e 43F48013 		orr	r3, r3, #1048576
 1707 0132 3B61     		str	r3, [r7, #16]
 1708              	.L107:
 887:Drivers/STM32G4xx_HAL_Driver/Src/stm32g4xx_hal_flash_ex.c ****     }
 888:Drivers/STM32G4xx_HAL_Driver/Src/stm32g4xx_hal_flash_ex.c **** #endif
 889:Drivers/STM32G4xx_HAL_Driver/Src/stm32g4xx_hal_flash_ex.c **** 
 890:Drivers/STM32G4xx_HAL_Driver/Src/stm32g4xx_hal_flash_ex.c ****     if ((UserType & OB_USER_nBOOT1) != 0U)
 1709              		.loc 1 890 19
 1710 0134 7B68     		ldr	r3, [r7, #4]
 1711 0136 03F40073 		and	r3, r3, #512
 1712              		.loc 1 890 8
 1713 013a 002B     		cmp	r3, #0
 1714 013c 09D0     		beq	.L108
 891:Drivers/STM32G4xx_HAL_Driver/Src/stm32g4xx_hal_flash_ex.c ****     {
 892:Drivers/STM32G4xx_HAL_Driver/Src/stm32g4xx_hal_flash_ex.c ****       /* nBOOT1 option byte should be modified */
 893:Drivers/STM32G4xx_HAL_Driver/Src/stm32g4xx_hal_flash_ex.c ****       assert_param(IS_OB_USER_BOOT1(UserConfig & FLASH_OPTR_nBOOT1));
 894:Drivers/STM32G4xx_HAL_Driver/Src/stm32g4xx_hal_flash_ex.c **** 
 895:Drivers/STM32G4xx_HAL_Driver/Src/stm32g4xx_hal_flash_ex.c ****       /* Set value and mask for nBOOT1 option byte */
 896:Drivers/STM32G4xx_HAL_Driver/Src/stm32g4xx_hal_flash_ex.c ****       optr_reg_val |= (UserConfig & FLASH_OPTR_nBOOT1);
 1715              		.loc 1 896 35
 1716 013e 3B68     		ldr	r3, [r7]
 1717 0140 03F40003 		and	r3, r3, #8388608
 1718              		.loc 1 896 20
 1719 0144 7A69     		ldr	r2, [r7, #20]
 1720 0146 1343     		orrs	r3, r3, r2
 1721 0148 7B61     		str	r3, [r7, #20]
 897:Drivers/STM32G4xx_HAL_Driver/Src/stm32g4xx_hal_flash_ex.c ****       optr_reg_mask |= FLASH_OPTR_nBOOT1;
 1722              		.loc 1 897 21
 1723 014a 3B69     		ldr	r3, [r7, #16]
 1724 014c 43F40003 		orr	r3, r3, #8388608
 1725 0150 3B61     		str	r3, [r7, #16]
 1726              	.L108:
 898:Drivers/STM32G4xx_HAL_Driver/Src/stm32g4xx_hal_flash_ex.c ****     }
 899:Drivers/STM32G4xx_HAL_Driver/Src/stm32g4xx_hal_flash_ex.c **** 
 900:Drivers/STM32G4xx_HAL_Driver/Src/stm32g4xx_hal_flash_ex.c ****     if ((UserType & OB_USER_SRAM_PE) != 0U)
 1727              		.loc 1 900 19
 1728 0152 7B68     		ldr	r3, [r7, #4]
 1729 0154 03F48063 		and	r3, r3, #1024
 1730              		.loc 1 900 8
 1731 0158 002B     		cmp	r3, #0
 1732 015a 09D0     		beq	.L109
 901:Drivers/STM32G4xx_HAL_Driver/Src/stm32g4xx_hal_flash_ex.c ****     {
 902:Drivers/STM32G4xx_HAL_Driver/Src/stm32g4xx_hal_flash_ex.c ****       /* SRAM_PE option byte should be modified */
 903:Drivers/STM32G4xx_HAL_Driver/Src/stm32g4xx_hal_flash_ex.c ****       assert_param(IS_OB_USER_SRAM_PARITY(UserConfig & FLASH_OPTR_SRAM_PE));
 904:Drivers/STM32G4xx_HAL_Driver/Src/stm32g4xx_hal_flash_ex.c **** 
 905:Drivers/STM32G4xx_HAL_Driver/Src/stm32g4xx_hal_flash_ex.c ****       /* Set value and mask for SRAM_PE option byte */
 906:Drivers/STM32G4xx_HAL_Driver/Src/stm32g4xx_hal_flash_ex.c ****       optr_reg_val |= (UserConfig & FLASH_OPTR_SRAM_PE);
 1733              		.loc 1 906 35
 1734 015c 3B68     		ldr	r3, [r7]
 1735 015e 03F08073 		and	r3, r3, #16777216
ARM GAS  /tmp/cc1VkgmM.s 			page 47


 1736              		.loc 1 906 20
 1737 0162 7A69     		ldr	r2, [r7, #20]
 1738 0164 1343     		orrs	r3, r3, r2
 1739 0166 7B61     		str	r3, [r7, #20]
 907:Drivers/STM32G4xx_HAL_Driver/Src/stm32g4xx_hal_flash_ex.c ****       optr_reg_mask |= FLASH_OPTR_SRAM_PE;
 1740              		.loc 1 907 21
 1741 0168 3B69     		ldr	r3, [r7, #16]
 1742 016a 43F08073 		orr	r3, r3, #16777216
 1743 016e 3B61     		str	r3, [r7, #16]
 1744              	.L109:
 908:Drivers/STM32G4xx_HAL_Driver/Src/stm32g4xx_hal_flash_ex.c ****     }
 909:Drivers/STM32G4xx_HAL_Driver/Src/stm32g4xx_hal_flash_ex.c **** 
 910:Drivers/STM32G4xx_HAL_Driver/Src/stm32g4xx_hal_flash_ex.c ****     if ((UserType & OB_USER_CCMSRAM_RST) != 0U)
 1745              		.loc 1 910 19
 1746 0170 7B68     		ldr	r3, [r7, #4]
 1747 0172 03F40063 		and	r3, r3, #2048
 1748              		.loc 1 910 8
 1749 0176 002B     		cmp	r3, #0
 1750 0178 09D0     		beq	.L110
 911:Drivers/STM32G4xx_HAL_Driver/Src/stm32g4xx_hal_flash_ex.c ****     {
 912:Drivers/STM32G4xx_HAL_Driver/Src/stm32g4xx_hal_flash_ex.c ****       /* CCMSRAM_RST option byte should be modified */
 913:Drivers/STM32G4xx_HAL_Driver/Src/stm32g4xx_hal_flash_ex.c ****       assert_param(IS_OB_USER_CCMSRAM_RST(UserConfig & FLASH_OPTR_CCMSRAM_RST));
 914:Drivers/STM32G4xx_HAL_Driver/Src/stm32g4xx_hal_flash_ex.c **** 
 915:Drivers/STM32G4xx_HAL_Driver/Src/stm32g4xx_hal_flash_ex.c ****       /* Set value and mask for CCMSRAM_RST option byte */
 916:Drivers/STM32G4xx_HAL_Driver/Src/stm32g4xx_hal_flash_ex.c ****       optr_reg_val |= (UserConfig & FLASH_OPTR_CCMSRAM_RST);
 1751              		.loc 1 916 35
 1752 017a 3B68     		ldr	r3, [r7]
 1753 017c 03F00073 		and	r3, r3, #33554432
 1754              		.loc 1 916 20
 1755 0180 7A69     		ldr	r2, [r7, #20]
 1756 0182 1343     		orrs	r3, r3, r2
 1757 0184 7B61     		str	r3, [r7, #20]
 917:Drivers/STM32G4xx_HAL_Driver/Src/stm32g4xx_hal_flash_ex.c ****       optr_reg_mask |= FLASH_OPTR_CCMSRAM_RST;
 1758              		.loc 1 917 21
 1759 0186 3B69     		ldr	r3, [r7, #16]
 1760 0188 43F00073 		orr	r3, r3, #33554432
 1761 018c 3B61     		str	r3, [r7, #16]
 1762              	.L110:
 918:Drivers/STM32G4xx_HAL_Driver/Src/stm32g4xx_hal_flash_ex.c ****     }
 919:Drivers/STM32G4xx_HAL_Driver/Src/stm32g4xx_hal_flash_ex.c **** 
 920:Drivers/STM32G4xx_HAL_Driver/Src/stm32g4xx_hal_flash_ex.c ****     if ((UserType & OB_USER_nSWBOOT0) != 0U)
 1763              		.loc 1 920 19
 1764 018e 7B68     		ldr	r3, [r7, #4]
 1765 0190 03F40053 		and	r3, r3, #8192
 1766              		.loc 1 920 8
 1767 0194 002B     		cmp	r3, #0
 1768 0196 09D0     		beq	.L111
 921:Drivers/STM32G4xx_HAL_Driver/Src/stm32g4xx_hal_flash_ex.c ****     {
 922:Drivers/STM32G4xx_HAL_Driver/Src/stm32g4xx_hal_flash_ex.c ****       /* nSWBOOT0 option byte should be modified */
 923:Drivers/STM32G4xx_HAL_Driver/Src/stm32g4xx_hal_flash_ex.c ****       assert_param(IS_OB_USER_SWBOOT0(UserConfig & FLASH_OPTR_nSWBOOT0));
 924:Drivers/STM32G4xx_HAL_Driver/Src/stm32g4xx_hal_flash_ex.c **** 
 925:Drivers/STM32G4xx_HAL_Driver/Src/stm32g4xx_hal_flash_ex.c ****       /* Set value and mask for nSWBOOT0 option byte */
 926:Drivers/STM32G4xx_HAL_Driver/Src/stm32g4xx_hal_flash_ex.c ****       optr_reg_val |= (UserConfig & FLASH_OPTR_nSWBOOT0);
 1769              		.loc 1 926 35
 1770 0198 3B68     		ldr	r3, [r7]
 1771 019a 03F08063 		and	r3, r3, #67108864
 1772              		.loc 1 926 20
ARM GAS  /tmp/cc1VkgmM.s 			page 48


 1773 019e 7A69     		ldr	r2, [r7, #20]
 1774 01a0 1343     		orrs	r3, r3, r2
 1775 01a2 7B61     		str	r3, [r7, #20]
 927:Drivers/STM32G4xx_HAL_Driver/Src/stm32g4xx_hal_flash_ex.c ****       optr_reg_mask |= FLASH_OPTR_nSWBOOT0;
 1776              		.loc 1 927 21
 1777 01a4 3B69     		ldr	r3, [r7, #16]
 1778 01a6 43F08063 		orr	r3, r3, #67108864
 1779 01aa 3B61     		str	r3, [r7, #16]
 1780              	.L111:
 928:Drivers/STM32G4xx_HAL_Driver/Src/stm32g4xx_hal_flash_ex.c ****     }
 929:Drivers/STM32G4xx_HAL_Driver/Src/stm32g4xx_hal_flash_ex.c **** 
 930:Drivers/STM32G4xx_HAL_Driver/Src/stm32g4xx_hal_flash_ex.c ****     if ((UserType & OB_USER_nBOOT0) != 0U)
 1781              		.loc 1 930 19
 1782 01ac 7B68     		ldr	r3, [r7, #4]
 1783 01ae 03F48043 		and	r3, r3, #16384
 1784              		.loc 1 930 8
 1785 01b2 002B     		cmp	r3, #0
 1786 01b4 09D0     		beq	.L112
 931:Drivers/STM32G4xx_HAL_Driver/Src/stm32g4xx_hal_flash_ex.c ****     {
 932:Drivers/STM32G4xx_HAL_Driver/Src/stm32g4xx_hal_flash_ex.c ****       /* nBOOT0 option byte should be modified */
 933:Drivers/STM32G4xx_HAL_Driver/Src/stm32g4xx_hal_flash_ex.c ****       assert_param(IS_OB_USER_BOOT0(UserConfig & FLASH_OPTR_nBOOT0));
 934:Drivers/STM32G4xx_HAL_Driver/Src/stm32g4xx_hal_flash_ex.c **** 
 935:Drivers/STM32G4xx_HAL_Driver/Src/stm32g4xx_hal_flash_ex.c ****       /* Set value and mask for nBOOT0 option byte */
 936:Drivers/STM32G4xx_HAL_Driver/Src/stm32g4xx_hal_flash_ex.c ****       optr_reg_val |= (UserConfig & FLASH_OPTR_nBOOT0);
 1787              		.loc 1 936 35
 1788 01b6 3B68     		ldr	r3, [r7]
 1789 01b8 03F00063 		and	r3, r3, #134217728
 1790              		.loc 1 936 20
 1791 01bc 7A69     		ldr	r2, [r7, #20]
 1792 01be 1343     		orrs	r3, r3, r2
 1793 01c0 7B61     		str	r3, [r7, #20]
 937:Drivers/STM32G4xx_HAL_Driver/Src/stm32g4xx_hal_flash_ex.c ****       optr_reg_mask |= FLASH_OPTR_nBOOT0;
 1794              		.loc 1 937 21
 1795 01c2 3B69     		ldr	r3, [r7, #16]
 1796 01c4 43F00063 		orr	r3, r3, #134217728
 1797 01c8 3B61     		str	r3, [r7, #16]
 1798              	.L112:
 938:Drivers/STM32G4xx_HAL_Driver/Src/stm32g4xx_hal_flash_ex.c ****     }
 939:Drivers/STM32G4xx_HAL_Driver/Src/stm32g4xx_hal_flash_ex.c **** 
 940:Drivers/STM32G4xx_HAL_Driver/Src/stm32g4xx_hal_flash_ex.c ****     if ((UserType & OB_USER_NRST_MODE) != 0U)
 1799              		.loc 1 940 19
 1800 01ca 7B68     		ldr	r3, [r7, #4]
 1801 01cc 03F40043 		and	r3, r3, #32768
 1802              		.loc 1 940 8
 1803 01d0 002B     		cmp	r3, #0
 1804 01d2 09D0     		beq	.L113
 941:Drivers/STM32G4xx_HAL_Driver/Src/stm32g4xx_hal_flash_ex.c ****     {
 942:Drivers/STM32G4xx_HAL_Driver/Src/stm32g4xx_hal_flash_ex.c ****       /* Reset Configuration option byte should be modified */
 943:Drivers/STM32G4xx_HAL_Driver/Src/stm32g4xx_hal_flash_ex.c ****       assert_param(IS_OB_USER_NRST_MODE(UserConfig & FLASH_OPTR_NRST_MODE));
 944:Drivers/STM32G4xx_HAL_Driver/Src/stm32g4xx_hal_flash_ex.c **** 
 945:Drivers/STM32G4xx_HAL_Driver/Src/stm32g4xx_hal_flash_ex.c ****       /* Set value and mask for Reset Configuration option byte */
 946:Drivers/STM32G4xx_HAL_Driver/Src/stm32g4xx_hal_flash_ex.c ****       optr_reg_val |= (UserConfig & FLASH_OPTR_NRST_MODE);
 1805              		.loc 1 946 35
 1806 01d4 3B68     		ldr	r3, [r7]
 1807 01d6 03F04053 		and	r3, r3, #805306368
 1808              		.loc 1 946 20
 1809 01da 7A69     		ldr	r2, [r7, #20]
ARM GAS  /tmp/cc1VkgmM.s 			page 49


 1810 01dc 1343     		orrs	r3, r3, r2
 1811 01de 7B61     		str	r3, [r7, #20]
 947:Drivers/STM32G4xx_HAL_Driver/Src/stm32g4xx_hal_flash_ex.c ****       optr_reg_mask |= FLASH_OPTR_NRST_MODE;
 1812              		.loc 1 947 21
 1813 01e0 3B69     		ldr	r3, [r7, #16]
 1814 01e2 43F04053 		orr	r3, r3, #805306368
 1815 01e6 3B61     		str	r3, [r7, #16]
 1816              	.L113:
 948:Drivers/STM32G4xx_HAL_Driver/Src/stm32g4xx_hal_flash_ex.c ****     }
 949:Drivers/STM32G4xx_HAL_Driver/Src/stm32g4xx_hal_flash_ex.c **** 
 950:Drivers/STM32G4xx_HAL_Driver/Src/stm32g4xx_hal_flash_ex.c ****     if ((UserType & OB_USER_IRHEN) != 0U)
 1817              		.loc 1 950 19
 1818 01e8 7B68     		ldr	r3, [r7, #4]
 1819 01ea 03F48033 		and	r3, r3, #65536
 1820              		.loc 1 950 8
 1821 01ee 002B     		cmp	r3, #0
 1822 01f0 09D0     		beq	.L114
 951:Drivers/STM32G4xx_HAL_Driver/Src/stm32g4xx_hal_flash_ex.c ****     {
 952:Drivers/STM32G4xx_HAL_Driver/Src/stm32g4xx_hal_flash_ex.c ****       /* IRH option byte should be modified */
 953:Drivers/STM32G4xx_HAL_Driver/Src/stm32g4xx_hal_flash_ex.c ****       assert_param(IS_OB_USER_IRHEN(UserConfig & FLASH_OPTR_IRHEN));
 954:Drivers/STM32G4xx_HAL_Driver/Src/stm32g4xx_hal_flash_ex.c **** 
 955:Drivers/STM32G4xx_HAL_Driver/Src/stm32g4xx_hal_flash_ex.c ****       /* Set value and mask for IRH option byte */
 956:Drivers/STM32G4xx_HAL_Driver/Src/stm32g4xx_hal_flash_ex.c ****       optr_reg_val |= (UserConfig & FLASH_OPTR_IRHEN);
 1823              		.loc 1 956 35
 1824 01f2 3B68     		ldr	r3, [r7]
 1825 01f4 03F08043 		and	r3, r3, #1073741824
 1826              		.loc 1 956 20
 1827 01f8 7A69     		ldr	r2, [r7, #20]
 1828 01fa 1343     		orrs	r3, r3, r2
 1829 01fc 7B61     		str	r3, [r7, #20]
 957:Drivers/STM32G4xx_HAL_Driver/Src/stm32g4xx_hal_flash_ex.c ****       optr_reg_mask |= FLASH_OPTR_IRHEN;
 1830              		.loc 1 957 21
 1831 01fe 3B69     		ldr	r3, [r7, #16]
 1832 0200 43F08043 		orr	r3, r3, #1073741824
 1833 0204 3B61     		str	r3, [r7, #16]
 1834              	.L114:
 958:Drivers/STM32G4xx_HAL_Driver/Src/stm32g4xx_hal_flash_ex.c ****     }
 959:Drivers/STM32G4xx_HAL_Driver/Src/stm32g4xx_hal_flash_ex.c **** 
 960:Drivers/STM32G4xx_HAL_Driver/Src/stm32g4xx_hal_flash_ex.c ****     /* Configure the option bytes register */
 961:Drivers/STM32G4xx_HAL_Driver/Src/stm32g4xx_hal_flash_ex.c ****     MODIFY_REG(FLASH->OPTR, optr_reg_mask, optr_reg_val);
 1835              		.loc 1 961 5
 1836 0206 0D4B     		ldr	r3, .L116
 1837 0208 1A6A     		ldr	r2, [r3, #32]
 1838 020a 3B69     		ldr	r3, [r7, #16]
 1839 020c DB43     		mvns	r3, r3
 1840 020e 1A40     		ands	r2, r2, r3
 1841 0210 0A49     		ldr	r1, .L116
 1842 0212 7B69     		ldr	r3, [r7, #20]
 1843 0214 1343     		orrs	r3, r3, r2
 1844 0216 0B62     		str	r3, [r1, #32]
 962:Drivers/STM32G4xx_HAL_Driver/Src/stm32g4xx_hal_flash_ex.c **** 
 963:Drivers/STM32G4xx_HAL_Driver/Src/stm32g4xx_hal_flash_ex.c ****     /* Set OPTSTRT Bit */
 964:Drivers/STM32G4xx_HAL_Driver/Src/stm32g4xx_hal_flash_ex.c ****     SET_BIT(FLASH->CR, FLASH_CR_OPTSTRT);
 1845              		.loc 1 964 5
 1846 0218 084B     		ldr	r3, .L116
 1847 021a 5B69     		ldr	r3, [r3, #20]
 1848 021c 074A     		ldr	r2, .L116
ARM GAS  /tmp/cc1VkgmM.s 			page 50


 1849 021e 43F40033 		orr	r3, r3, #131072
 1850 0222 5361     		str	r3, [r2, #20]
 965:Drivers/STM32G4xx_HAL_Driver/Src/stm32g4xx_hal_flash_ex.c **** 
 966:Drivers/STM32G4xx_HAL_Driver/Src/stm32g4xx_hal_flash_ex.c ****     /* Wait for last operation to be completed */
 967:Drivers/STM32G4xx_HAL_Driver/Src/stm32g4xx_hal_flash_ex.c ****     status = FLASH_WaitForLastOperation((uint32_t)FLASH_TIMEOUT_VALUE);
 1851              		.loc 1 967 14
 1852 0224 4FF47A70 		mov	r0, #1000
 1853 0228 FFF7FEFF 		bl	FLASH_WaitForLastOperation
 1854 022c 0346     		mov	r3, r0
 1855 022e FB73     		strb	r3, [r7, #15]
 1856              	.L98:
 968:Drivers/STM32G4xx_HAL_Driver/Src/stm32g4xx_hal_flash_ex.c ****   }
 969:Drivers/STM32G4xx_HAL_Driver/Src/stm32g4xx_hal_flash_ex.c **** 
 970:Drivers/STM32G4xx_HAL_Driver/Src/stm32g4xx_hal_flash_ex.c ****   return status;
 1857              		.loc 1 970 10
 1858 0230 FB7B     		ldrb	r3, [r7, #15]	@ zero_extendqisi2
 971:Drivers/STM32G4xx_HAL_Driver/Src/stm32g4xx_hal_flash_ex.c **** }
 1859              		.loc 1 971 1
 1860 0232 1846     		mov	r0, r3
 1861 0234 1837     		adds	r7, r7, #24
 1862              	.LCFI65:
 1863              		.cfi_def_cfa_offset 8
 1864 0236 BD46     		mov	sp, r7
 1865              	.LCFI66:
 1866              		.cfi_def_cfa_register 13
 1867              		@ sp needed
 1868 0238 80BD     		pop	{r7, pc}
 1869              	.L117:
 1870 023a 00BF     		.align	2
 1871              	.L116:
 1872 023c 00200240 		.word	1073881088
 1873              		.cfi_endproc
 1874              	.LFE337:
 1876              		.section	.text.FLASH_OB_PCROPConfig,"ax",%progbits
 1877              		.align	1
 1878              		.syntax unified
 1879              		.thumb
 1880              		.thumb_func
 1881              		.fpu fpv4-sp-d16
 1883              	FLASH_OB_PCROPConfig:
 1884              	.LFB338:
 972:Drivers/STM32G4xx_HAL_Driver/Src/stm32g4xx_hal_flash_ex.c **** 
 973:Drivers/STM32G4xx_HAL_Driver/Src/stm32g4xx_hal_flash_ex.c **** /**
 974:Drivers/STM32G4xx_HAL_Driver/Src/stm32g4xx_hal_flash_ex.c ****   * @brief  Configure the Proprietary code readout protection area into Option Bytes.
 975:Drivers/STM32G4xx_HAL_Driver/Src/stm32g4xx_hal_flash_ex.c ****   * @note   To configure any option bytes, the option lock bit OPTLOCK must be
 976:Drivers/STM32G4xx_HAL_Driver/Src/stm32g4xx_hal_flash_ex.c ****   *         cleared with the call of HAL_FLASH_OB_Unlock() function.
 977:Drivers/STM32G4xx_HAL_Driver/Src/stm32g4xx_hal_flash_ex.c ****   * @note   New option bytes configuration will be taken into account in two cases:
 978:Drivers/STM32G4xx_HAL_Driver/Src/stm32g4xx_hal_flash_ex.c ****   *         - after an option bytes launch through the call of HAL_FLASH_OB_Launch()
 979:Drivers/STM32G4xx_HAL_Driver/Src/stm32g4xx_hal_flash_ex.c ****   *         - after a power reset (BOR reset or exit from Standby/Shutdown modes)
 980:Drivers/STM32G4xx_HAL_Driver/Src/stm32g4xx_hal_flash_ex.c ****   * @param  PCROPConfig specifies the configuration (Bank to be configured and PCROP_RDP option).
 981:Drivers/STM32G4xx_HAL_Driver/Src/stm32g4xx_hal_flash_ex.c ****   *         This parameter must be a combination of FLASH_BANK_1 or FLASH_BANK_2 (*)
 982:Drivers/STM32G4xx_HAL_Driver/Src/stm32g4xx_hal_flash_ex.c ****   *         with OB_PCROP_RDP_NOT_ERASE or OB_PCROP_RDP_ERASE.
 983:Drivers/STM32G4xx_HAL_Driver/Src/stm32g4xx_hal_flash_ex.c ****   * @note   (*) availability depends on devices
 984:Drivers/STM32G4xx_HAL_Driver/Src/stm32g4xx_hal_flash_ex.c ****   * @param  PCROPStartAddr specifies the start address of the Proprietary code readout protection.
 985:Drivers/STM32G4xx_HAL_Driver/Src/stm32g4xx_hal_flash_ex.c ****   *         This parameter can be an address between begin and end of the bank.
 986:Drivers/STM32G4xx_HAL_Driver/Src/stm32g4xx_hal_flash_ex.c ****   * @param  PCROPEndAddr specifies the end address of the Proprietary code readout protection.
 987:Drivers/STM32G4xx_HAL_Driver/Src/stm32g4xx_hal_flash_ex.c ****   *         This parameter can be an address between PCROPStartAddr and end of the bank.
ARM GAS  /tmp/cc1VkgmM.s 			page 51


 988:Drivers/STM32G4xx_HAL_Driver/Src/stm32g4xx_hal_flash_ex.c ****   * @retval HAL_Status
 989:Drivers/STM32G4xx_HAL_Driver/Src/stm32g4xx_hal_flash_ex.c ****   */
 990:Drivers/STM32G4xx_HAL_Driver/Src/stm32g4xx_hal_flash_ex.c **** static HAL_StatusTypeDef FLASH_OB_PCROPConfig(uint32_t PCROPConfig, uint32_t PCROPStartAddr, uint32
 991:Drivers/STM32G4xx_HAL_Driver/Src/stm32g4xx_hal_flash_ex.c **** {
 1885              		.loc 1 991 1
 1886              		.cfi_startproc
 1887              		@ args = 0, pretend = 0, frame = 32
 1888              		@ frame_needed = 1, uses_anonymous_args = 0
 1889 0000 80B5     		push	{r7, lr}
 1890              	.LCFI67:
 1891              		.cfi_def_cfa_offset 8
 1892              		.cfi_offset 7, -8
 1893              		.cfi_offset 14, -4
 1894 0002 88B0     		sub	sp, sp, #32
 1895              	.LCFI68:
 1896              		.cfi_def_cfa_offset 40
 1897 0004 00AF     		add	r7, sp, #0
 1898              	.LCFI69:
 1899              		.cfi_def_cfa_register 7
 1900 0006 F860     		str	r0, [r7, #12]
 1901 0008 B960     		str	r1, [r7, #8]
 1902 000a 7A60     		str	r2, [r7, #4]
 992:Drivers/STM32G4xx_HAL_Driver/Src/stm32g4xx_hal_flash_ex.c ****   HAL_StatusTypeDef status;
 993:Drivers/STM32G4xx_HAL_Driver/Src/stm32g4xx_hal_flash_ex.c ****   uint32_t reg_value;
 994:Drivers/STM32G4xx_HAL_Driver/Src/stm32g4xx_hal_flash_ex.c ****   uint32_t bank1_addr;
 995:Drivers/STM32G4xx_HAL_Driver/Src/stm32g4xx_hal_flash_ex.c **** #if defined (FLASH_OPTR_DBANK)
 996:Drivers/STM32G4xx_HAL_Driver/Src/stm32g4xx_hal_flash_ex.c ****   uint32_t bank2_addr;
 997:Drivers/STM32G4xx_HAL_Driver/Src/stm32g4xx_hal_flash_ex.c **** #endif
 998:Drivers/STM32G4xx_HAL_Driver/Src/stm32g4xx_hal_flash_ex.c **** 
 999:Drivers/STM32G4xx_HAL_Driver/Src/stm32g4xx_hal_flash_ex.c ****   /* Check the parameters */
1000:Drivers/STM32G4xx_HAL_Driver/Src/stm32g4xx_hal_flash_ex.c ****   assert_param(IS_FLASH_BANK_EXCLUSIVE(PCROPConfig & FLASH_BANK_BOTH));
1001:Drivers/STM32G4xx_HAL_Driver/Src/stm32g4xx_hal_flash_ex.c ****   assert_param(IS_OB_PCROP_RDP(PCROPConfig & FLASH_PCROP1ER_PCROP_RDP));
1002:Drivers/STM32G4xx_HAL_Driver/Src/stm32g4xx_hal_flash_ex.c ****   assert_param(IS_FLASH_MAIN_MEM_ADDRESS(PCROPStartAddr));
1003:Drivers/STM32G4xx_HAL_Driver/Src/stm32g4xx_hal_flash_ex.c ****   assert_param(IS_FLASH_MAIN_MEM_ADDRESS(PCROPEndAddr));
1004:Drivers/STM32G4xx_HAL_Driver/Src/stm32g4xx_hal_flash_ex.c **** 
1005:Drivers/STM32G4xx_HAL_Driver/Src/stm32g4xx_hal_flash_ex.c ****   /* Wait for last operation to be completed */
1006:Drivers/STM32G4xx_HAL_Driver/Src/stm32g4xx_hal_flash_ex.c ****   status = FLASH_WaitForLastOperation((uint32_t)FLASH_TIMEOUT_VALUE);
 1903              		.loc 1 1006 12
 1904 000c 4FF47A70 		mov	r0, #1000
 1905 0010 FFF7FEFF 		bl	FLASH_WaitForLastOperation
 1906 0014 0346     		mov	r3, r0
 1907 0016 FB77     		strb	r3, [r7, #31]
1007:Drivers/STM32G4xx_HAL_Driver/Src/stm32g4xx_hal_flash_ex.c **** 
1008:Drivers/STM32G4xx_HAL_Driver/Src/stm32g4xx_hal_flash_ex.c ****   if (status == HAL_OK)
 1908              		.loc 1 1008 6
 1909 0018 FB7F     		ldrb	r3, [r7, #31]	@ zero_extendqisi2
 1910 001a 002B     		cmp	r3, #0
 1911 001c 40F0DA80 		bne	.L119
1009:Drivers/STM32G4xx_HAL_Driver/Src/stm32g4xx_hal_flash_ex.c ****   {
1010:Drivers/STM32G4xx_HAL_Driver/Src/stm32g4xx_hal_flash_ex.c **** #if defined (FLASH_OPTR_DBANK)
1011:Drivers/STM32G4xx_HAL_Driver/Src/stm32g4xx_hal_flash_ex.c ****     /* Get the information about the bank swapping */
1012:Drivers/STM32G4xx_HAL_Driver/Src/stm32g4xx_hal_flash_ex.c ****     if (READ_BIT(SYSCFG->MEMRMP, SYSCFG_MEMRMP_FB_MODE) == 0U)
 1912              		.loc 1 1012 9
 1913 0020 6F4B     		ldr	r3, .L131
 1914 0022 1B68     		ldr	r3, [r3]
 1915 0024 03F48073 		and	r3, r3, #256
 1916              		.loc 1 1012 8
ARM GAS  /tmp/cc1VkgmM.s 			page 52


 1917 0028 002B     		cmp	r3, #0
 1918 002a 14D1     		bne	.L120
1013:Drivers/STM32G4xx_HAL_Driver/Src/stm32g4xx_hal_flash_ex.c ****     {
1014:Drivers/STM32G4xx_HAL_Driver/Src/stm32g4xx_hal_flash_ex.c ****       bank1_addr = FLASH_BASE;
 1919              		.loc 1 1014 18
 1920 002c 4FF00063 		mov	r3, #134217728
 1921 0030 BB61     		str	r3, [r7, #24]
1015:Drivers/STM32G4xx_HAL_Driver/Src/stm32g4xx_hal_flash_ex.c ****       bank2_addr = FLASH_BASE + FLASH_BANK_SIZE;
 1922              		.loc 1 1015 33
 1923 0032 6C4B     		ldr	r3, .L131+4
 1924 0034 1B88     		ldrh	r3, [r3]
 1925              		.loc 1 1015 31
 1926 0036 4FF6FF72 		movw	r2, #65535
 1927 003a 9342     		cmp	r3, r2
 1928 003c 08D0     		beq	.L121
 1929              		.loc 1 1015 33 discriminator 1
 1930 003e 694B     		ldr	r3, .L131+4
 1931 0040 1B68     		ldr	r3, [r3]
 1932 0042 9B02     		lsls	r3, r3, #10
 1933 0044 5A08     		lsrs	r2, r3, #1
 1934 0046 684B     		ldr	r3, .L131+8
 1935 0048 1340     		ands	r3, r3, r2
 1936              		.loc 1 1015 31 discriminator 1
 1937 004a 03F10063 		add	r3, r3, #134217728
 1938 004e 00E0     		b	.L122
 1939              	.L121:
 1940              		.loc 1 1015 31 is_stmt 0 discriminator 2
 1941 0050 664B     		ldr	r3, .L131+12
 1942              	.L122:
 1943              		.loc 1 1015 18 is_stmt 1 discriminator 4
 1944 0052 7B61     		str	r3, [r7, #20]
 1945 0054 13E0     		b	.L123
 1946              	.L120:
1016:Drivers/STM32G4xx_HAL_Driver/Src/stm32g4xx_hal_flash_ex.c ****     }
1017:Drivers/STM32G4xx_HAL_Driver/Src/stm32g4xx_hal_flash_ex.c ****     else
1018:Drivers/STM32G4xx_HAL_Driver/Src/stm32g4xx_hal_flash_ex.c ****     {
1019:Drivers/STM32G4xx_HAL_Driver/Src/stm32g4xx_hal_flash_ex.c ****       bank1_addr = FLASH_BASE + FLASH_BANK_SIZE;
 1947              		.loc 1 1019 33
 1948 0056 634B     		ldr	r3, .L131+4
 1949 0058 1B88     		ldrh	r3, [r3]
 1950              		.loc 1 1019 31
 1951 005a 4FF6FF72 		movw	r2, #65535
 1952 005e 9342     		cmp	r3, r2
 1953 0060 08D0     		beq	.L124
 1954              		.loc 1 1019 33 discriminator 1
 1955 0062 604B     		ldr	r3, .L131+4
 1956 0064 1B68     		ldr	r3, [r3]
 1957 0066 9B02     		lsls	r3, r3, #10
 1958 0068 5A08     		lsrs	r2, r3, #1
 1959 006a 5F4B     		ldr	r3, .L131+8
 1960 006c 1340     		ands	r3, r3, r2
 1961              		.loc 1 1019 31 discriminator 1
 1962 006e 03F10063 		add	r3, r3, #134217728
 1963 0072 00E0     		b	.L125
 1964              	.L124:
 1965              		.loc 1 1019 31 is_stmt 0 discriminator 2
 1966 0074 5D4B     		ldr	r3, .L131+12
ARM GAS  /tmp/cc1VkgmM.s 			page 53


 1967              	.L125:
 1968              		.loc 1 1019 18 is_stmt 1 discriminator 4
 1969 0076 BB61     		str	r3, [r7, #24]
1020:Drivers/STM32G4xx_HAL_Driver/Src/stm32g4xx_hal_flash_ex.c ****       bank2_addr = FLASH_BASE;
 1970              		.loc 1 1020 18 discriminator 4
 1971 0078 4FF00063 		mov	r3, #134217728
 1972 007c 7B61     		str	r3, [r7, #20]
 1973              	.L123:
1021:Drivers/STM32G4xx_HAL_Driver/Src/stm32g4xx_hal_flash_ex.c ****     }
1022:Drivers/STM32G4xx_HAL_Driver/Src/stm32g4xx_hal_flash_ex.c **** #else
1023:Drivers/STM32G4xx_HAL_Driver/Src/stm32g4xx_hal_flash_ex.c ****     bank1_addr = FLASH_BASE;
1024:Drivers/STM32G4xx_HAL_Driver/Src/stm32g4xx_hal_flash_ex.c **** #endif
1025:Drivers/STM32G4xx_HAL_Driver/Src/stm32g4xx_hal_flash_ex.c **** 
1026:Drivers/STM32G4xx_HAL_Driver/Src/stm32g4xx_hal_flash_ex.c **** #if defined (FLASH_OPTR_DBANK)
1027:Drivers/STM32G4xx_HAL_Driver/Src/stm32g4xx_hal_flash_ex.c ****     if (READ_BIT(FLASH->OPTR, FLASH_OPTR_DBANK) == 0U)
 1974              		.loc 1 1027 9
 1975 007e 5C4B     		ldr	r3, .L131+16
 1976 0080 1B6A     		ldr	r3, [r3, #32]
 1977 0082 03F48003 		and	r3, r3, #4194304
 1978              		.loc 1 1027 8
 1979 0086 002B     		cmp	r3, #0
 1980 0088 47D1     		bne	.L126
1028:Drivers/STM32G4xx_HAL_Driver/Src/stm32g4xx_hal_flash_ex.c ****     {
1029:Drivers/STM32G4xx_HAL_Driver/Src/stm32g4xx_hal_flash_ex.c ****       /* Configure the Proprietary code readout protection */
1030:Drivers/STM32G4xx_HAL_Driver/Src/stm32g4xx_hal_flash_ex.c ****       if ((PCROPConfig & FLASH_BANK_BOTH) == FLASH_BANK_1)
 1981              		.loc 1 1030 24
 1982 008a FB68     		ldr	r3, [r7, #12]
 1983 008c 03F00303 		and	r3, r3, #3
 1984              		.loc 1 1030 10
 1985 0090 012B     		cmp	r3, #1
 1986 0092 1ED1     		bne	.L127
1031:Drivers/STM32G4xx_HAL_Driver/Src/stm32g4xx_hal_flash_ex.c ****       {
1032:Drivers/STM32G4xx_HAL_Driver/Src/stm32g4xx_hal_flash_ex.c ****         reg_value = ((PCROPStartAddr - FLASH_BASE) >> 4);
 1987              		.loc 1 1032 38
 1988 0094 BB68     		ldr	r3, [r7, #8]
 1989 0096 03F17843 		add	r3, r3, #-134217728
 1990              		.loc 1 1032 19
 1991 009a 1B09     		lsrs	r3, r3, #4
 1992 009c 3B61     		str	r3, [r7, #16]
1033:Drivers/STM32G4xx_HAL_Driver/Src/stm32g4xx_hal_flash_ex.c ****         MODIFY_REG(FLASH->PCROP1SR, FLASH_PCROP1SR_PCROP1_STRT, reg_value);
 1993              		.loc 1 1033 9
 1994 009e 544B     		ldr	r3, .L131+16
 1995 00a0 5B6A     		ldr	r3, [r3, #36]
 1996 00a2 23F4FF43 		bic	r3, r3, #32640
 1997 00a6 23F07F03 		bic	r3, r3, #127
 1998 00aa 5149     		ldr	r1, .L131+16
 1999 00ac 3A69     		ldr	r2, [r7, #16]
 2000 00ae 1343     		orrs	r3, r3, r2
 2001 00b0 4B62     		str	r3, [r1, #36]
1034:Drivers/STM32G4xx_HAL_Driver/Src/stm32g4xx_hal_flash_ex.c **** 
1035:Drivers/STM32G4xx_HAL_Driver/Src/stm32g4xx_hal_flash_ex.c ****         reg_value = ((PCROPEndAddr - FLASH_BASE) >> 4);
 2002              		.loc 1 1035 36
 2003 00b2 7B68     		ldr	r3, [r7, #4]
 2004 00b4 03F17843 		add	r3, r3, #-134217728
 2005              		.loc 1 1035 19
 2006 00b8 1B09     		lsrs	r3, r3, #4
 2007 00ba 3B61     		str	r3, [r7, #16]
ARM GAS  /tmp/cc1VkgmM.s 			page 54


1036:Drivers/STM32G4xx_HAL_Driver/Src/stm32g4xx_hal_flash_ex.c ****         MODIFY_REG(FLASH->PCROP1ER, FLASH_PCROP1ER_PCROP1_END, reg_value);
 2008              		.loc 1 1036 9
 2009 00bc 4C4B     		ldr	r3, .L131+16
 2010 00be 9B6A     		ldr	r3, [r3, #40]
 2011 00c0 23F4FF43 		bic	r3, r3, #32640
 2012 00c4 23F07F03 		bic	r3, r3, #127
 2013 00c8 4949     		ldr	r1, .L131+16
 2014 00ca 3A69     		ldr	r2, [r7, #16]
 2015 00cc 1343     		orrs	r3, r3, r2
 2016 00ce 8B62     		str	r3, [r1, #40]
 2017 00d0 6AE0     		b	.L128
 2018              	.L127:
1037:Drivers/STM32G4xx_HAL_Driver/Src/stm32g4xx_hal_flash_ex.c ****       }
1038:Drivers/STM32G4xx_HAL_Driver/Src/stm32g4xx_hal_flash_ex.c ****       else if ((PCROPConfig & FLASH_BANK_BOTH) == FLASH_BANK_2)
 2019              		.loc 1 1038 29
 2020 00d2 FB68     		ldr	r3, [r7, #12]
 2021 00d4 03F00303 		and	r3, r3, #3
 2022              		.loc 1 1038 15
 2023 00d8 022B     		cmp	r3, #2
 2024 00da 65D1     		bne	.L128
1039:Drivers/STM32G4xx_HAL_Driver/Src/stm32g4xx_hal_flash_ex.c ****       {
1040:Drivers/STM32G4xx_HAL_Driver/Src/stm32g4xx_hal_flash_ex.c ****         reg_value = ((PCROPStartAddr - FLASH_BASE) >> 4);
 2025              		.loc 1 1040 38
 2026 00dc BB68     		ldr	r3, [r7, #8]
 2027 00de 03F17843 		add	r3, r3, #-134217728
 2028              		.loc 1 1040 19
 2029 00e2 1B09     		lsrs	r3, r3, #4
 2030 00e4 3B61     		str	r3, [r7, #16]
1041:Drivers/STM32G4xx_HAL_Driver/Src/stm32g4xx_hal_flash_ex.c ****         MODIFY_REG(FLASH->PCROP2SR, FLASH_PCROP2SR_PCROP2_STRT, reg_value);
 2031              		.loc 1 1041 9
 2032 00e6 424B     		ldr	r3, .L131+16
 2033 00e8 5B6C     		ldr	r3, [r3, #68]
 2034 00ea 23F4FF43 		bic	r3, r3, #32640
 2035 00ee 23F07F03 		bic	r3, r3, #127
 2036 00f2 3F49     		ldr	r1, .L131+16
 2037 00f4 3A69     		ldr	r2, [r7, #16]
 2038 00f6 1343     		orrs	r3, r3, r2
 2039 00f8 4B64     		str	r3, [r1, #68]
1042:Drivers/STM32G4xx_HAL_Driver/Src/stm32g4xx_hal_flash_ex.c **** 
1043:Drivers/STM32G4xx_HAL_Driver/Src/stm32g4xx_hal_flash_ex.c ****         reg_value = ((PCROPEndAddr - FLASH_BASE) >> 4);
 2040              		.loc 1 1043 36
 2041 00fa 7B68     		ldr	r3, [r7, #4]
 2042 00fc 03F17843 		add	r3, r3, #-134217728
 2043              		.loc 1 1043 19
 2044 0100 1B09     		lsrs	r3, r3, #4
 2045 0102 3B61     		str	r3, [r7, #16]
1044:Drivers/STM32G4xx_HAL_Driver/Src/stm32g4xx_hal_flash_ex.c ****         MODIFY_REG(FLASH->PCROP2ER, FLASH_PCROP2ER_PCROP2_END, reg_value);
 2046              		.loc 1 1044 9
 2047 0104 3A4B     		ldr	r3, .L131+16
 2048 0106 9B6C     		ldr	r3, [r3, #72]
 2049 0108 23F4FF43 		bic	r3, r3, #32640
 2050 010c 23F07F03 		bic	r3, r3, #127
 2051 0110 3749     		ldr	r1, .L131+16
 2052 0112 3A69     		ldr	r2, [r7, #16]
 2053 0114 1343     		orrs	r3, r3, r2
 2054 0116 8B64     		str	r3, [r1, #72]
 2055 0118 46E0     		b	.L128
ARM GAS  /tmp/cc1VkgmM.s 			page 55


 2056              	.L126:
1045:Drivers/STM32G4xx_HAL_Driver/Src/stm32g4xx_hal_flash_ex.c ****       }
1046:Drivers/STM32G4xx_HAL_Driver/Src/stm32g4xx_hal_flash_ex.c ****       else
1047:Drivers/STM32G4xx_HAL_Driver/Src/stm32g4xx_hal_flash_ex.c ****       {
1048:Drivers/STM32G4xx_HAL_Driver/Src/stm32g4xx_hal_flash_ex.c ****         /* Nothing to do */
1049:Drivers/STM32G4xx_HAL_Driver/Src/stm32g4xx_hal_flash_ex.c ****       }
1050:Drivers/STM32G4xx_HAL_Driver/Src/stm32g4xx_hal_flash_ex.c ****     }
1051:Drivers/STM32G4xx_HAL_Driver/Src/stm32g4xx_hal_flash_ex.c ****     else
1052:Drivers/STM32G4xx_HAL_Driver/Src/stm32g4xx_hal_flash_ex.c **** #endif
1053:Drivers/STM32G4xx_HAL_Driver/Src/stm32g4xx_hal_flash_ex.c ****     {
1054:Drivers/STM32G4xx_HAL_Driver/Src/stm32g4xx_hal_flash_ex.c ****       /* Configure the Proprietary code readout protection */
1055:Drivers/STM32G4xx_HAL_Driver/Src/stm32g4xx_hal_flash_ex.c ****       if ((PCROPConfig & FLASH_BANK_BOTH) == FLASH_BANK_1)
 2057              		.loc 1 1055 24
 2058 011a FB68     		ldr	r3, [r7, #12]
 2059 011c 03F00303 		and	r3, r3, #3
 2060              		.loc 1 1055 10
 2061 0120 012B     		cmp	r3, #1
 2062 0122 1ED1     		bne	.L129
1056:Drivers/STM32G4xx_HAL_Driver/Src/stm32g4xx_hal_flash_ex.c ****       {
1057:Drivers/STM32G4xx_HAL_Driver/Src/stm32g4xx_hal_flash_ex.c ****         reg_value = ((PCROPStartAddr - bank1_addr) >> 3);
 2063              		.loc 1 1057 38
 2064 0124 BA68     		ldr	r2, [r7, #8]
 2065 0126 BB69     		ldr	r3, [r7, #24]
 2066 0128 D31A     		subs	r3, r2, r3
 2067              		.loc 1 1057 19
 2068 012a DB08     		lsrs	r3, r3, #3
 2069 012c 3B61     		str	r3, [r7, #16]
1058:Drivers/STM32G4xx_HAL_Driver/Src/stm32g4xx_hal_flash_ex.c ****         MODIFY_REG(FLASH->PCROP1SR, FLASH_PCROP1SR_PCROP1_STRT, reg_value);
 2070              		.loc 1 1058 9
 2071 012e 304B     		ldr	r3, .L131+16
 2072 0130 5B6A     		ldr	r3, [r3, #36]
 2073 0132 23F4FF43 		bic	r3, r3, #32640
 2074 0136 23F07F03 		bic	r3, r3, #127
 2075 013a 2D49     		ldr	r1, .L131+16
 2076 013c 3A69     		ldr	r2, [r7, #16]
 2077 013e 1343     		orrs	r3, r3, r2
 2078 0140 4B62     		str	r3, [r1, #36]
1059:Drivers/STM32G4xx_HAL_Driver/Src/stm32g4xx_hal_flash_ex.c **** 
1060:Drivers/STM32G4xx_HAL_Driver/Src/stm32g4xx_hal_flash_ex.c ****         reg_value = ((PCROPEndAddr - bank1_addr) >> 3);
 2079              		.loc 1 1060 36
 2080 0142 7A68     		ldr	r2, [r7, #4]
 2081 0144 BB69     		ldr	r3, [r7, #24]
 2082 0146 D31A     		subs	r3, r2, r3
 2083              		.loc 1 1060 19
 2084 0148 DB08     		lsrs	r3, r3, #3
 2085 014a 3B61     		str	r3, [r7, #16]
1061:Drivers/STM32G4xx_HAL_Driver/Src/stm32g4xx_hal_flash_ex.c ****         MODIFY_REG(FLASH->PCROP1ER, FLASH_PCROP1ER_PCROP1_END, reg_value);
 2086              		.loc 1 1061 9
 2087 014c 284B     		ldr	r3, .L131+16
 2088 014e 9B6A     		ldr	r3, [r3, #40]
 2089 0150 23F4FF43 		bic	r3, r3, #32640
 2090 0154 23F07F03 		bic	r3, r3, #127
 2091 0158 2549     		ldr	r1, .L131+16
 2092 015a 3A69     		ldr	r2, [r7, #16]
 2093 015c 1343     		orrs	r3, r3, r2
 2094 015e 8B62     		str	r3, [r1, #40]
 2095 0160 22E0     		b	.L128
ARM GAS  /tmp/cc1VkgmM.s 			page 56


 2096              	.L129:
1062:Drivers/STM32G4xx_HAL_Driver/Src/stm32g4xx_hal_flash_ex.c ****       }
1063:Drivers/STM32G4xx_HAL_Driver/Src/stm32g4xx_hal_flash_ex.c **** #if defined (FLASH_OPTR_DBANK)
1064:Drivers/STM32G4xx_HAL_Driver/Src/stm32g4xx_hal_flash_ex.c ****       else if ((PCROPConfig & FLASH_BANK_BOTH) == FLASH_BANK_2)
 2097              		.loc 1 1064 29
 2098 0162 FB68     		ldr	r3, [r7, #12]
 2099 0164 03F00303 		and	r3, r3, #3
 2100              		.loc 1 1064 15
 2101 0168 022B     		cmp	r3, #2
 2102 016a 1DD1     		bne	.L128
1065:Drivers/STM32G4xx_HAL_Driver/Src/stm32g4xx_hal_flash_ex.c ****       {
1066:Drivers/STM32G4xx_HAL_Driver/Src/stm32g4xx_hal_flash_ex.c ****         reg_value = ((PCROPStartAddr - bank2_addr) >> 3);
 2103              		.loc 1 1066 38
 2104 016c BA68     		ldr	r2, [r7, #8]
 2105 016e 7B69     		ldr	r3, [r7, #20]
 2106 0170 D31A     		subs	r3, r2, r3
 2107              		.loc 1 1066 19
 2108 0172 DB08     		lsrs	r3, r3, #3
 2109 0174 3B61     		str	r3, [r7, #16]
1067:Drivers/STM32G4xx_HAL_Driver/Src/stm32g4xx_hal_flash_ex.c ****         MODIFY_REG(FLASH->PCROP2SR, FLASH_PCROP2SR_PCROP2_STRT, reg_value);
 2110              		.loc 1 1067 9
 2111 0176 1E4B     		ldr	r3, .L131+16
 2112 0178 5B6C     		ldr	r3, [r3, #68]
 2113 017a 23F4FF43 		bic	r3, r3, #32640
 2114 017e 23F07F03 		bic	r3, r3, #127
 2115 0182 1B49     		ldr	r1, .L131+16
 2116 0184 3A69     		ldr	r2, [r7, #16]
 2117 0186 1343     		orrs	r3, r3, r2
 2118 0188 4B64     		str	r3, [r1, #68]
1068:Drivers/STM32G4xx_HAL_Driver/Src/stm32g4xx_hal_flash_ex.c **** 
1069:Drivers/STM32G4xx_HAL_Driver/Src/stm32g4xx_hal_flash_ex.c ****         reg_value = ((PCROPEndAddr - bank2_addr) >> 3);
 2119              		.loc 1 1069 36
 2120 018a 7A68     		ldr	r2, [r7, #4]
 2121 018c 7B69     		ldr	r3, [r7, #20]
 2122 018e D31A     		subs	r3, r2, r3
 2123              		.loc 1 1069 19
 2124 0190 DB08     		lsrs	r3, r3, #3
 2125 0192 3B61     		str	r3, [r7, #16]
1070:Drivers/STM32G4xx_HAL_Driver/Src/stm32g4xx_hal_flash_ex.c ****         MODIFY_REG(FLASH->PCROP2ER, FLASH_PCROP2ER_PCROP2_END, reg_value);
 2126              		.loc 1 1070 9
 2127 0194 164B     		ldr	r3, .L131+16
 2128 0196 9B6C     		ldr	r3, [r3, #72]
 2129 0198 23F4FF43 		bic	r3, r3, #32640
 2130 019c 23F07F03 		bic	r3, r3, #127
 2131 01a0 1349     		ldr	r1, .L131+16
 2132 01a2 3A69     		ldr	r2, [r7, #16]
 2133 01a4 1343     		orrs	r3, r3, r2
 2134 01a6 8B64     		str	r3, [r1, #72]
 2135              	.L128:
1071:Drivers/STM32G4xx_HAL_Driver/Src/stm32g4xx_hal_flash_ex.c ****       }
1072:Drivers/STM32G4xx_HAL_Driver/Src/stm32g4xx_hal_flash_ex.c **** #endif
1073:Drivers/STM32G4xx_HAL_Driver/Src/stm32g4xx_hal_flash_ex.c ****       else
1074:Drivers/STM32G4xx_HAL_Driver/Src/stm32g4xx_hal_flash_ex.c ****       {
1075:Drivers/STM32G4xx_HAL_Driver/Src/stm32g4xx_hal_flash_ex.c ****         /* Nothing to do */
1076:Drivers/STM32G4xx_HAL_Driver/Src/stm32g4xx_hal_flash_ex.c ****       }
1077:Drivers/STM32G4xx_HAL_Driver/Src/stm32g4xx_hal_flash_ex.c ****     }
1078:Drivers/STM32G4xx_HAL_Driver/Src/stm32g4xx_hal_flash_ex.c **** 
ARM GAS  /tmp/cc1VkgmM.s 			page 57


1079:Drivers/STM32G4xx_HAL_Driver/Src/stm32g4xx_hal_flash_ex.c ****     MODIFY_REG(FLASH->PCROP1ER, FLASH_PCROP1ER_PCROP_RDP, (PCROPConfig & FLASH_PCROP1ER_PCROP_RDP))
 2136              		.loc 1 1079 5
 2137 01a8 114B     		ldr	r3, .L131+16
 2138 01aa 9B6A     		ldr	r3, [r3, #40]
 2139 01ac 23F00042 		bic	r2, r3, #-2147483648
 2140 01b0 FB68     		ldr	r3, [r7, #12]
 2141 01b2 03F00043 		and	r3, r3, #-2147483648
 2142 01b6 0E49     		ldr	r1, .L131+16
 2143 01b8 1343     		orrs	r3, r3, r2
 2144 01ba 8B62     		str	r3, [r1, #40]
1080:Drivers/STM32G4xx_HAL_Driver/Src/stm32g4xx_hal_flash_ex.c **** 
1081:Drivers/STM32G4xx_HAL_Driver/Src/stm32g4xx_hal_flash_ex.c ****     /* Set OPTSTRT Bit */
1082:Drivers/STM32G4xx_HAL_Driver/Src/stm32g4xx_hal_flash_ex.c ****     SET_BIT(FLASH->CR, FLASH_CR_OPTSTRT);
 2145              		.loc 1 1082 5
 2146 01bc 0C4B     		ldr	r3, .L131+16
 2147 01be 5B69     		ldr	r3, [r3, #20]
 2148 01c0 0B4A     		ldr	r2, .L131+16
 2149 01c2 43F40033 		orr	r3, r3, #131072
 2150 01c6 5361     		str	r3, [r2, #20]
1083:Drivers/STM32G4xx_HAL_Driver/Src/stm32g4xx_hal_flash_ex.c **** 
1084:Drivers/STM32G4xx_HAL_Driver/Src/stm32g4xx_hal_flash_ex.c ****     /* Wait for last operation to be completed */
1085:Drivers/STM32G4xx_HAL_Driver/Src/stm32g4xx_hal_flash_ex.c ****     status = FLASH_WaitForLastOperation((uint32_t)FLASH_TIMEOUT_VALUE);
 2151              		.loc 1 1085 14
 2152 01c8 4FF47A70 		mov	r0, #1000
 2153 01cc FFF7FEFF 		bl	FLASH_WaitForLastOperation
 2154 01d0 0346     		mov	r3, r0
 2155 01d2 FB77     		strb	r3, [r7, #31]
 2156              	.L119:
1086:Drivers/STM32G4xx_HAL_Driver/Src/stm32g4xx_hal_flash_ex.c ****   }
1087:Drivers/STM32G4xx_HAL_Driver/Src/stm32g4xx_hal_flash_ex.c **** 
1088:Drivers/STM32G4xx_HAL_Driver/Src/stm32g4xx_hal_flash_ex.c ****   return status;
 2157              		.loc 1 1088 10
 2158 01d4 FB7F     		ldrb	r3, [r7, #31]	@ zero_extendqisi2
1089:Drivers/STM32G4xx_HAL_Driver/Src/stm32g4xx_hal_flash_ex.c **** }
 2159              		.loc 1 1089 1
 2160 01d6 1846     		mov	r0, r3
 2161 01d8 2037     		adds	r7, r7, #32
 2162              	.LCFI70:
 2163              		.cfi_def_cfa_offset 8
 2164 01da BD46     		mov	sp, r7
 2165              	.LCFI71:
 2166              		.cfi_def_cfa_register 13
 2167              		@ sp needed
 2168 01dc 80BD     		pop	{r7, pc}
 2169              	.L132:
 2170 01de 00BF     		.align	2
 2171              	.L131:
 2172 01e0 00000140 		.word	1073807360
 2173 01e4 E075FF1F 		.word	536835552
 2174 01e8 00FEFF01 		.word	33553920
 2175 01ec 00000408 		.word	134479872
 2176 01f0 00200240 		.word	1073881088
 2177              		.cfi_endproc
 2178              	.LFE338:
 2180              		.section	.text.FLASH_OB_SecMemConfig,"ax",%progbits
 2181              		.align	1
 2182              		.syntax unified
ARM GAS  /tmp/cc1VkgmM.s 			page 58


 2183              		.thumb
 2184              		.thumb_func
 2185              		.fpu fpv4-sp-d16
 2187              	FLASH_OB_SecMemConfig:
 2188              	.LFB339:
1090:Drivers/STM32G4xx_HAL_Driver/Src/stm32g4xx_hal_flash_ex.c **** 
1091:Drivers/STM32G4xx_HAL_Driver/Src/stm32g4xx_hal_flash_ex.c **** /**
1092:Drivers/STM32G4xx_HAL_Driver/Src/stm32g4xx_hal_flash_ex.c ****   * @brief  Configure the Securable memory area into Option Bytes.
1093:Drivers/STM32G4xx_HAL_Driver/Src/stm32g4xx_hal_flash_ex.c ****   * @note   To configure any option bytes, the option lock bit OPTLOCK must be
1094:Drivers/STM32G4xx_HAL_Driver/Src/stm32g4xx_hal_flash_ex.c ****   *         cleared with the call of HAL_FLASH_OB_Unlock() function.
1095:Drivers/STM32G4xx_HAL_Driver/Src/stm32g4xx_hal_flash_ex.c ****   * @note   New option bytes configuration will be taken into account in two cases:
1096:Drivers/STM32G4xx_HAL_Driver/Src/stm32g4xx_hal_flash_ex.c ****   *         - after an option bytes launch through the call of HAL_FLASH_OB_Launch()
1097:Drivers/STM32G4xx_HAL_Driver/Src/stm32g4xx_hal_flash_ex.c ****   *         - after a power reset (BOR reset or exit from Standby/Shutdown modes)
1098:Drivers/STM32G4xx_HAL_Driver/Src/stm32g4xx_hal_flash_ex.c ****   * @param  SecBank specifies bank of securable memory area to be configured.
1099:Drivers/STM32G4xx_HAL_Driver/Src/stm32g4xx_hal_flash_ex.c ****   *          This parameter can be one of the following values:
1100:Drivers/STM32G4xx_HAL_Driver/Src/stm32g4xx_hal_flash_ex.c ****   *            @arg FLASH_BANK_1: Securable memory in Bank1 to be configured
1101:Drivers/STM32G4xx_HAL_Driver/Src/stm32g4xx_hal_flash_ex.c ****   *            @arg FLASH_BANK_2: Securable memory in Bank2 to be configured (*)
1102:Drivers/STM32G4xx_HAL_Driver/Src/stm32g4xx_hal_flash_ex.c ****   * @note   (*) availability depends on devices
1103:Drivers/STM32G4xx_HAL_Driver/Src/stm32g4xx_hal_flash_ex.c ****   * @param  SecSize specifies the number of pages of the Securable memory area,
1104:Drivers/STM32G4xx_HAL_Driver/Src/stm32g4xx_hal_flash_ex.c ****   *         starting from first page of the bank.
1105:Drivers/STM32G4xx_HAL_Driver/Src/stm32g4xx_hal_flash_ex.c ****   *         This parameter can be page number between 0 and (max number of pages in the bank - 1)
1106:Drivers/STM32G4xx_HAL_Driver/Src/stm32g4xx_hal_flash_ex.c ****   * @retval HAL Status
1107:Drivers/STM32G4xx_HAL_Driver/Src/stm32g4xx_hal_flash_ex.c ****   */
1108:Drivers/STM32G4xx_HAL_Driver/Src/stm32g4xx_hal_flash_ex.c **** static HAL_StatusTypeDef FLASH_OB_SecMemConfig(uint32_t SecBank, uint32_t SecSize)
1109:Drivers/STM32G4xx_HAL_Driver/Src/stm32g4xx_hal_flash_ex.c **** {
 2189              		.loc 1 1109 1
 2190              		.cfi_startproc
 2191              		@ args = 0, pretend = 0, frame = 16
 2192              		@ frame_needed = 1, uses_anonymous_args = 0
 2193 0000 80B5     		push	{r7, lr}
 2194              	.LCFI72:
 2195              		.cfi_def_cfa_offset 8
 2196              		.cfi_offset 7, -8
 2197              		.cfi_offset 14, -4
 2198 0002 84B0     		sub	sp, sp, #16
 2199              	.LCFI73:
 2200              		.cfi_def_cfa_offset 24
 2201 0004 00AF     		add	r7, sp, #0
 2202              	.LCFI74:
 2203              		.cfi_def_cfa_register 7
 2204 0006 7860     		str	r0, [r7, #4]
 2205 0008 3960     		str	r1, [r7]
1110:Drivers/STM32G4xx_HAL_Driver/Src/stm32g4xx_hal_flash_ex.c ****   HAL_StatusTypeDef status;
1111:Drivers/STM32G4xx_HAL_Driver/Src/stm32g4xx_hal_flash_ex.c **** 
1112:Drivers/STM32G4xx_HAL_Driver/Src/stm32g4xx_hal_flash_ex.c ****   /* Check the parameters */
1113:Drivers/STM32G4xx_HAL_Driver/Src/stm32g4xx_hal_flash_ex.c ****   assert_param(IS_FLASH_BANK_EXCLUSIVE(SecBank));
1114:Drivers/STM32G4xx_HAL_Driver/Src/stm32g4xx_hal_flash_ex.c ****   assert_param(IS_OB_SECMEM_SIZE(SecSize));
1115:Drivers/STM32G4xx_HAL_Driver/Src/stm32g4xx_hal_flash_ex.c **** 
1116:Drivers/STM32G4xx_HAL_Driver/Src/stm32g4xx_hal_flash_ex.c ****   /* Wait for last operation to be completed */
1117:Drivers/STM32G4xx_HAL_Driver/Src/stm32g4xx_hal_flash_ex.c ****   status = FLASH_WaitForLastOperation((uint32_t)FLASH_TIMEOUT_VALUE);
 2206              		.loc 1 1117 12
 2207 000a 4FF47A70 		mov	r0, #1000
 2208 000e FFF7FEFF 		bl	FLASH_WaitForLastOperation
 2209 0012 0346     		mov	r3, r0
 2210 0014 FB73     		strb	r3, [r7, #15]
1118:Drivers/STM32G4xx_HAL_Driver/Src/stm32g4xx_hal_flash_ex.c **** 
1119:Drivers/STM32G4xx_HAL_Driver/Src/stm32g4xx_hal_flash_ex.c ****   if (status == HAL_OK)
ARM GAS  /tmp/cc1VkgmM.s 			page 59


 2211              		.loc 1 1119 6
 2212 0016 FB7B     		ldrb	r3, [r7, #15]	@ zero_extendqisi2
 2213 0018 002B     		cmp	r3, #0
 2214 001a 22D1     		bne	.L134
1120:Drivers/STM32G4xx_HAL_Driver/Src/stm32g4xx_hal_flash_ex.c ****   {
1121:Drivers/STM32G4xx_HAL_Driver/Src/stm32g4xx_hal_flash_ex.c ****     /* Configure the write protected area */
1122:Drivers/STM32G4xx_HAL_Driver/Src/stm32g4xx_hal_flash_ex.c ****     if (SecBank == FLASH_BANK_1)
 2215              		.loc 1 1122 8
 2216 001c 7B68     		ldr	r3, [r7, #4]
 2217 001e 012B     		cmp	r3, #1
 2218 0020 08D1     		bne	.L135
1123:Drivers/STM32G4xx_HAL_Driver/Src/stm32g4xx_hal_flash_ex.c ****     {
1124:Drivers/STM32G4xx_HAL_Driver/Src/stm32g4xx_hal_flash_ex.c ****       MODIFY_REG(FLASH->SEC1R, FLASH_SEC1R_SEC_SIZE1, SecSize);
 2219              		.loc 1 1124 7
 2220 0022 124B     		ldr	r3, .L138
 2221 0024 1B6F     		ldr	r3, [r3, #112]
 2222 0026 23F0FF02 		bic	r2, r3, #255
 2223 002a 1049     		ldr	r1, .L138
 2224 002c 3B68     		ldr	r3, [r7]
 2225 002e 1343     		orrs	r3, r3, r2
 2226 0030 0B67     		str	r3, [r1, #112]
 2227 0032 0AE0     		b	.L136
 2228              	.L135:
1125:Drivers/STM32G4xx_HAL_Driver/Src/stm32g4xx_hal_flash_ex.c ****     }
1126:Drivers/STM32G4xx_HAL_Driver/Src/stm32g4xx_hal_flash_ex.c **** #if defined (FLASH_OPTR_DBANK)
1127:Drivers/STM32G4xx_HAL_Driver/Src/stm32g4xx_hal_flash_ex.c ****     else if (SecBank == FLASH_BANK_2)
 2229              		.loc 1 1127 13
 2230 0034 7B68     		ldr	r3, [r7, #4]
 2231 0036 022B     		cmp	r3, #2
 2232 0038 07D1     		bne	.L136
1128:Drivers/STM32G4xx_HAL_Driver/Src/stm32g4xx_hal_flash_ex.c ****     {
1129:Drivers/STM32G4xx_HAL_Driver/Src/stm32g4xx_hal_flash_ex.c ****       MODIFY_REG(FLASH->SEC2R, FLASH_SEC2R_SEC_SIZE2, SecSize);
 2233              		.loc 1 1129 7
 2234 003a 0C4B     		ldr	r3, .L138
 2235 003c 5B6F     		ldr	r3, [r3, #116]
 2236 003e 23F0FF02 		bic	r2, r3, #255
 2237 0042 0A49     		ldr	r1, .L138
 2238 0044 3B68     		ldr	r3, [r7]
 2239 0046 1343     		orrs	r3, r3, r2
 2240 0048 4B67     		str	r3, [r1, #116]
 2241              	.L136:
1130:Drivers/STM32G4xx_HAL_Driver/Src/stm32g4xx_hal_flash_ex.c ****     }
1131:Drivers/STM32G4xx_HAL_Driver/Src/stm32g4xx_hal_flash_ex.c ****     else
1132:Drivers/STM32G4xx_HAL_Driver/Src/stm32g4xx_hal_flash_ex.c ****     {
1133:Drivers/STM32G4xx_HAL_Driver/Src/stm32g4xx_hal_flash_ex.c ****       /* Nothing to do */
1134:Drivers/STM32G4xx_HAL_Driver/Src/stm32g4xx_hal_flash_ex.c ****     }
1135:Drivers/STM32G4xx_HAL_Driver/Src/stm32g4xx_hal_flash_ex.c **** #endif
1136:Drivers/STM32G4xx_HAL_Driver/Src/stm32g4xx_hal_flash_ex.c **** 
1137:Drivers/STM32G4xx_HAL_Driver/Src/stm32g4xx_hal_flash_ex.c ****     /* Set OPTSTRT Bit */
1138:Drivers/STM32G4xx_HAL_Driver/Src/stm32g4xx_hal_flash_ex.c ****     SET_BIT(FLASH->CR, FLASH_CR_OPTSTRT);
 2242              		.loc 1 1138 5
 2243 004a 084B     		ldr	r3, .L138
 2244 004c 5B69     		ldr	r3, [r3, #20]
 2245 004e 074A     		ldr	r2, .L138
 2246 0050 43F40033 		orr	r3, r3, #131072
 2247 0054 5361     		str	r3, [r2, #20]
1139:Drivers/STM32G4xx_HAL_Driver/Src/stm32g4xx_hal_flash_ex.c **** 
ARM GAS  /tmp/cc1VkgmM.s 			page 60


1140:Drivers/STM32G4xx_HAL_Driver/Src/stm32g4xx_hal_flash_ex.c ****     /* Wait for last operation to be completed */
1141:Drivers/STM32G4xx_HAL_Driver/Src/stm32g4xx_hal_flash_ex.c ****     status = FLASH_WaitForLastOperation((uint32_t)FLASH_TIMEOUT_VALUE);
 2248              		.loc 1 1141 14
 2249 0056 4FF47A70 		mov	r0, #1000
 2250 005a FFF7FEFF 		bl	FLASH_WaitForLastOperation
 2251 005e 0346     		mov	r3, r0
 2252 0060 FB73     		strb	r3, [r7, #15]
 2253              	.L134:
1142:Drivers/STM32G4xx_HAL_Driver/Src/stm32g4xx_hal_flash_ex.c ****   }
1143:Drivers/STM32G4xx_HAL_Driver/Src/stm32g4xx_hal_flash_ex.c **** 
1144:Drivers/STM32G4xx_HAL_Driver/Src/stm32g4xx_hal_flash_ex.c ****   return status;
 2254              		.loc 1 1144 10
 2255 0062 FB7B     		ldrb	r3, [r7, #15]	@ zero_extendqisi2
1145:Drivers/STM32G4xx_HAL_Driver/Src/stm32g4xx_hal_flash_ex.c **** }
 2256              		.loc 1 1145 1
 2257 0064 1846     		mov	r0, r3
 2258 0066 1037     		adds	r7, r7, #16
 2259              	.LCFI75:
 2260              		.cfi_def_cfa_offset 8
 2261 0068 BD46     		mov	sp, r7
 2262              	.LCFI76:
 2263              		.cfi_def_cfa_register 13
 2264              		@ sp needed
 2265 006a 80BD     		pop	{r7, pc}
 2266              	.L139:
 2267              		.align	2
 2268              	.L138:
 2269 006c 00200240 		.word	1073881088
 2270              		.cfi_endproc
 2271              	.LFE339:
 2273              		.section	.text.FLASH_OB_BootLockConfig,"ax",%progbits
 2274              		.align	1
 2275              		.syntax unified
 2276              		.thumb
 2277              		.thumb_func
 2278              		.fpu fpv4-sp-d16
 2280              	FLASH_OB_BootLockConfig:
 2281              	.LFB340:
1146:Drivers/STM32G4xx_HAL_Driver/Src/stm32g4xx_hal_flash_ex.c **** 
1147:Drivers/STM32G4xx_HAL_Driver/Src/stm32g4xx_hal_flash_ex.c **** /**
1148:Drivers/STM32G4xx_HAL_Driver/Src/stm32g4xx_hal_flash_ex.c ****   * @brief  Configure the Boot Lock into Option Bytes.
1149:Drivers/STM32G4xx_HAL_Driver/Src/stm32g4xx_hal_flash_ex.c ****   * @note   To configure any option bytes, the option lock bit OPTLOCK must be
1150:Drivers/STM32G4xx_HAL_Driver/Src/stm32g4xx_hal_flash_ex.c ****   *         cleared with the call of HAL_FLASH_OB_Unlock() function.
1151:Drivers/STM32G4xx_HAL_Driver/Src/stm32g4xx_hal_flash_ex.c ****   * @note   New option bytes configuration will be taken into account in two cases:
1152:Drivers/STM32G4xx_HAL_Driver/Src/stm32g4xx_hal_flash_ex.c ****   *         - after an option bytes launch through the call of HAL_FLASH_OB_Launch()
1153:Drivers/STM32G4xx_HAL_Driver/Src/stm32g4xx_hal_flash_ex.c ****   *         - after a power reset (BOR reset or exit from Standby/Shutdown modes)
1154:Drivers/STM32G4xx_HAL_Driver/Src/stm32g4xx_hal_flash_ex.c ****   * @param  BootLockConfig specifies the boot lock configuration.
1155:Drivers/STM32G4xx_HAL_Driver/Src/stm32g4xx_hal_flash_ex.c ****   *          This parameter can be one of the following values:
1156:Drivers/STM32G4xx_HAL_Driver/Src/stm32g4xx_hal_flash_ex.c ****   *            @arg OB_BOOT_LOCK_ENABLE: Enable Boot Lock
1157:Drivers/STM32G4xx_HAL_Driver/Src/stm32g4xx_hal_flash_ex.c ****   *            @arg OB_BOOT_LOCK_DISABLE: Disable Boot Lock
1158:Drivers/STM32G4xx_HAL_Driver/Src/stm32g4xx_hal_flash_ex.c ****   *
1159:Drivers/STM32G4xx_HAL_Driver/Src/stm32g4xx_hal_flash_ex.c ****   * @retval HAL_Status
1160:Drivers/STM32G4xx_HAL_Driver/Src/stm32g4xx_hal_flash_ex.c ****   */
1161:Drivers/STM32G4xx_HAL_Driver/Src/stm32g4xx_hal_flash_ex.c **** static HAL_StatusTypeDef FLASH_OB_BootLockConfig(uint32_t BootLockConfig)
1162:Drivers/STM32G4xx_HAL_Driver/Src/stm32g4xx_hal_flash_ex.c **** {
 2282              		.loc 1 1162 1
 2283              		.cfi_startproc
ARM GAS  /tmp/cc1VkgmM.s 			page 61


 2284              		@ args = 0, pretend = 0, frame = 16
 2285              		@ frame_needed = 1, uses_anonymous_args = 0
 2286 0000 80B5     		push	{r7, lr}
 2287              	.LCFI77:
 2288              		.cfi_def_cfa_offset 8
 2289              		.cfi_offset 7, -8
 2290              		.cfi_offset 14, -4
 2291 0002 84B0     		sub	sp, sp, #16
 2292              	.LCFI78:
 2293              		.cfi_def_cfa_offset 24
 2294 0004 00AF     		add	r7, sp, #0
 2295              	.LCFI79:
 2296              		.cfi_def_cfa_register 7
 2297 0006 7860     		str	r0, [r7, #4]
1163:Drivers/STM32G4xx_HAL_Driver/Src/stm32g4xx_hal_flash_ex.c ****   HAL_StatusTypeDef status;
1164:Drivers/STM32G4xx_HAL_Driver/Src/stm32g4xx_hal_flash_ex.c **** 
1165:Drivers/STM32G4xx_HAL_Driver/Src/stm32g4xx_hal_flash_ex.c ****   /* Check the parameters */
1166:Drivers/STM32G4xx_HAL_Driver/Src/stm32g4xx_hal_flash_ex.c ****   assert_param(IS_OB_BOOT_LOCK(BootLockConfig));
1167:Drivers/STM32G4xx_HAL_Driver/Src/stm32g4xx_hal_flash_ex.c **** 
1168:Drivers/STM32G4xx_HAL_Driver/Src/stm32g4xx_hal_flash_ex.c ****   /* Wait for last operation to be completed */
1169:Drivers/STM32G4xx_HAL_Driver/Src/stm32g4xx_hal_flash_ex.c ****   status = FLASH_WaitForLastOperation((uint32_t)FLASH_TIMEOUT_VALUE);
 2298              		.loc 1 1169 12
 2299 0008 4FF47A70 		mov	r0, #1000
 2300 000c FFF7FEFF 		bl	FLASH_WaitForLastOperation
 2301 0010 0346     		mov	r3, r0
 2302 0012 FB73     		strb	r3, [r7, #15]
1170:Drivers/STM32G4xx_HAL_Driver/Src/stm32g4xx_hal_flash_ex.c **** 
1171:Drivers/STM32G4xx_HAL_Driver/Src/stm32g4xx_hal_flash_ex.c ****   if (status == HAL_OK)
 2303              		.loc 1 1171 6
 2304 0014 FB7B     		ldrb	r3, [r7, #15]	@ zero_extendqisi2
 2305 0016 002B     		cmp	r3, #0
 2306 0018 13D1     		bne	.L141
1172:Drivers/STM32G4xx_HAL_Driver/Src/stm32g4xx_hal_flash_ex.c ****   {
1173:Drivers/STM32G4xx_HAL_Driver/Src/stm32g4xx_hal_flash_ex.c ****     MODIFY_REG(FLASH->SEC1R, FLASH_SEC1R_BOOT_LOCK, BootLockConfig);
 2307              		.loc 1 1173 5
 2308 001a 0C4B     		ldr	r3, .L143
 2309 001c 1B6F     		ldr	r3, [r3, #112]
 2310 001e 23F48032 		bic	r2, r3, #65536
 2311 0022 0A49     		ldr	r1, .L143
 2312 0024 7B68     		ldr	r3, [r7, #4]
 2313 0026 1343     		orrs	r3, r3, r2
 2314 0028 0B67     		str	r3, [r1, #112]
1174:Drivers/STM32G4xx_HAL_Driver/Src/stm32g4xx_hal_flash_ex.c **** 
1175:Drivers/STM32G4xx_HAL_Driver/Src/stm32g4xx_hal_flash_ex.c ****     /* Set OPTSTRT Bit */
1176:Drivers/STM32G4xx_HAL_Driver/Src/stm32g4xx_hal_flash_ex.c ****     SET_BIT(FLASH->CR, FLASH_CR_OPTSTRT);
 2315              		.loc 1 1176 5
 2316 002a 084B     		ldr	r3, .L143
 2317 002c 5B69     		ldr	r3, [r3, #20]
 2318 002e 074A     		ldr	r2, .L143
 2319 0030 43F40033 		orr	r3, r3, #131072
 2320 0034 5361     		str	r3, [r2, #20]
1177:Drivers/STM32G4xx_HAL_Driver/Src/stm32g4xx_hal_flash_ex.c **** 
1178:Drivers/STM32G4xx_HAL_Driver/Src/stm32g4xx_hal_flash_ex.c ****     /* Wait for last operation to be completed */
1179:Drivers/STM32G4xx_HAL_Driver/Src/stm32g4xx_hal_flash_ex.c ****     status = FLASH_WaitForLastOperation((uint32_t)FLASH_TIMEOUT_VALUE);
 2321              		.loc 1 1179 14
 2322 0036 4FF47A70 		mov	r0, #1000
 2323 003a FFF7FEFF 		bl	FLASH_WaitForLastOperation
ARM GAS  /tmp/cc1VkgmM.s 			page 62


 2324 003e 0346     		mov	r3, r0
 2325 0040 FB73     		strb	r3, [r7, #15]
 2326              	.L141:
1180:Drivers/STM32G4xx_HAL_Driver/Src/stm32g4xx_hal_flash_ex.c ****   }
1181:Drivers/STM32G4xx_HAL_Driver/Src/stm32g4xx_hal_flash_ex.c **** 
1182:Drivers/STM32G4xx_HAL_Driver/Src/stm32g4xx_hal_flash_ex.c ****   return status;
 2327              		.loc 1 1182 10
 2328 0042 FB7B     		ldrb	r3, [r7, #15]	@ zero_extendqisi2
1183:Drivers/STM32G4xx_HAL_Driver/Src/stm32g4xx_hal_flash_ex.c **** }
 2329              		.loc 1 1183 1
 2330 0044 1846     		mov	r0, r3
 2331 0046 1037     		adds	r7, r7, #16
 2332              	.LCFI80:
 2333              		.cfi_def_cfa_offset 8
 2334 0048 BD46     		mov	sp, r7
 2335              	.LCFI81:
 2336              		.cfi_def_cfa_register 13
 2337              		@ sp needed
 2338 004a 80BD     		pop	{r7, pc}
 2339              	.L144:
 2340              		.align	2
 2341              	.L143:
 2342 004c 00200240 		.word	1073881088
 2343              		.cfi_endproc
 2344              	.LFE340:
 2346              		.section	.text.FLASH_OB_GetSecMem,"ax",%progbits
 2347              		.align	1
 2348              		.syntax unified
 2349              		.thumb
 2350              		.thumb_func
 2351              		.fpu fpv4-sp-d16
 2353              	FLASH_OB_GetSecMem:
 2354              	.LFB341:
1184:Drivers/STM32G4xx_HAL_Driver/Src/stm32g4xx_hal_flash_ex.c **** 
1185:Drivers/STM32G4xx_HAL_Driver/Src/stm32g4xx_hal_flash_ex.c **** /**
1186:Drivers/STM32G4xx_HAL_Driver/Src/stm32g4xx_hal_flash_ex.c ****   * @brief  Return the Securable memory area configuration into Option Bytes.
1187:Drivers/STM32G4xx_HAL_Driver/Src/stm32g4xx_hal_flash_ex.c ****   * @param[in]  SecBank specifies the bank where securable memory area is located.
1188:Drivers/STM32G4xx_HAL_Driver/Src/stm32g4xx_hal_flash_ex.c ****   *          This parameter can be one of the following values:
1189:Drivers/STM32G4xx_HAL_Driver/Src/stm32g4xx_hal_flash_ex.c ****   *            @arg FLASH_BANK_1: Securable memory in Bank1
1190:Drivers/STM32G4xx_HAL_Driver/Src/stm32g4xx_hal_flash_ex.c ****   *            @arg FLASH_BANK_2: Securable memory in Bank2 (*)
1191:Drivers/STM32G4xx_HAL_Driver/Src/stm32g4xx_hal_flash_ex.c ****   * @note   (*) availability depends on devices
1192:Drivers/STM32G4xx_HAL_Driver/Src/stm32g4xx_hal_flash_ex.c ****   * @param[out]  SecSize specifies the number of pages used in the securable
1193:Drivers/STM32G4xx_HAL_Driver/Src/stm32g4xx_hal_flash_ex.c ****                  memory area of the bank.
1194:Drivers/STM32G4xx_HAL_Driver/Src/stm32g4xx_hal_flash_ex.c ****   * @retval None
1195:Drivers/STM32G4xx_HAL_Driver/Src/stm32g4xx_hal_flash_ex.c ****   */
1196:Drivers/STM32G4xx_HAL_Driver/Src/stm32g4xx_hal_flash_ex.c **** static void FLASH_OB_GetSecMem(uint32_t SecBank, uint32_t *SecSize)
1197:Drivers/STM32G4xx_HAL_Driver/Src/stm32g4xx_hal_flash_ex.c **** {
 2355              		.loc 1 1197 1
 2356              		.cfi_startproc
 2357              		@ args = 0, pretend = 0, frame = 8
 2358              		@ frame_needed = 1, uses_anonymous_args = 0
 2359              		@ link register save eliminated.
 2360 0000 80B4     		push	{r7}
 2361              	.LCFI82:
 2362              		.cfi_def_cfa_offset 4
 2363              		.cfi_offset 7, -4
 2364 0002 83B0     		sub	sp, sp, #12
ARM GAS  /tmp/cc1VkgmM.s 			page 63


 2365              	.LCFI83:
 2366              		.cfi_def_cfa_offset 16
 2367 0004 00AF     		add	r7, sp, #0
 2368              	.LCFI84:
 2369              		.cfi_def_cfa_register 7
 2370 0006 7860     		str	r0, [r7, #4]
 2371 0008 3960     		str	r1, [r7]
1198:Drivers/STM32G4xx_HAL_Driver/Src/stm32g4xx_hal_flash_ex.c ****   /* Get the configuration of the securable memory area */
1199:Drivers/STM32G4xx_HAL_Driver/Src/stm32g4xx_hal_flash_ex.c ****   if (SecBank == FLASH_BANK_1)
 2372              		.loc 1 1199 6
 2373 000a 7B68     		ldr	r3, [r7, #4]
 2374 000c 012B     		cmp	r3, #1
 2375 000e 05D1     		bne	.L146
1200:Drivers/STM32G4xx_HAL_Driver/Src/stm32g4xx_hal_flash_ex.c ****   {
1201:Drivers/STM32G4xx_HAL_Driver/Src/stm32g4xx_hal_flash_ex.c ****     *SecSize = READ_BIT(FLASH->SEC1R, FLASH_SEC1R_SEC_SIZE1);
 2376              		.loc 1 1201 16
 2377 0010 094B     		ldr	r3, .L149
 2378 0012 1B6F     		ldr	r3, [r3, #112]
 2379 0014 DAB2     		uxtb	r2, r3
 2380              		.loc 1 1201 14
 2381 0016 3B68     		ldr	r3, [r7]
 2382 0018 1A60     		str	r2, [r3]
1202:Drivers/STM32G4xx_HAL_Driver/Src/stm32g4xx_hal_flash_ex.c ****   }
1203:Drivers/STM32G4xx_HAL_Driver/Src/stm32g4xx_hal_flash_ex.c **** #if defined (FLASH_OPTR_DBANK)
1204:Drivers/STM32G4xx_HAL_Driver/Src/stm32g4xx_hal_flash_ex.c ****   else if (SecBank == FLASH_BANK_2)
1205:Drivers/STM32G4xx_HAL_Driver/Src/stm32g4xx_hal_flash_ex.c ****   {
1206:Drivers/STM32G4xx_HAL_Driver/Src/stm32g4xx_hal_flash_ex.c ****     *SecSize = READ_BIT(FLASH->SEC2R, FLASH_SEC2R_SEC_SIZE2);
1207:Drivers/STM32G4xx_HAL_Driver/Src/stm32g4xx_hal_flash_ex.c ****   }
1208:Drivers/STM32G4xx_HAL_Driver/Src/stm32g4xx_hal_flash_ex.c ****   else
1209:Drivers/STM32G4xx_HAL_Driver/Src/stm32g4xx_hal_flash_ex.c ****   {
1210:Drivers/STM32G4xx_HAL_Driver/Src/stm32g4xx_hal_flash_ex.c ****     /* Nothing to do */
1211:Drivers/STM32G4xx_HAL_Driver/Src/stm32g4xx_hal_flash_ex.c ****   }
1212:Drivers/STM32G4xx_HAL_Driver/Src/stm32g4xx_hal_flash_ex.c **** #endif
1213:Drivers/STM32G4xx_HAL_Driver/Src/stm32g4xx_hal_flash_ex.c **** }
 2383              		.loc 1 1213 1
 2384 001a 07E0     		b	.L148
 2385              	.L146:
1204:Drivers/STM32G4xx_HAL_Driver/Src/stm32g4xx_hal_flash_ex.c ****   {
 2386              		.loc 1 1204 11
 2387 001c 7B68     		ldr	r3, [r7, #4]
 2388 001e 022B     		cmp	r3, #2
 2389 0020 04D1     		bne	.L148
1206:Drivers/STM32G4xx_HAL_Driver/Src/stm32g4xx_hal_flash_ex.c ****   }
 2390              		.loc 1 1206 16
 2391 0022 054B     		ldr	r3, .L149
 2392 0024 5B6F     		ldr	r3, [r3, #116]
 2393 0026 DAB2     		uxtb	r2, r3
1206:Drivers/STM32G4xx_HAL_Driver/Src/stm32g4xx_hal_flash_ex.c ****   }
 2394              		.loc 1 1206 14
 2395 0028 3B68     		ldr	r3, [r7]
 2396 002a 1A60     		str	r2, [r3]
 2397              	.L148:
 2398              		.loc 1 1213 1
 2399 002c 00BF     		nop
 2400 002e 0C37     		adds	r7, r7, #12
 2401              	.LCFI85:
 2402              		.cfi_def_cfa_offset 4
ARM GAS  /tmp/cc1VkgmM.s 			page 64


 2403 0030 BD46     		mov	sp, r7
 2404              	.LCFI86:
 2405              		.cfi_def_cfa_register 13
 2406              		@ sp needed
 2407 0032 5DF8047B 		ldr	r7, [sp], #4
 2408              	.LCFI87:
 2409              		.cfi_restore 7
 2410              		.cfi_def_cfa_offset 0
 2411 0036 7047     		bx	lr
 2412              	.L150:
 2413              		.align	2
 2414              	.L149:
 2415 0038 00200240 		.word	1073881088
 2416              		.cfi_endproc
 2417              	.LFE341:
 2419              		.section	.text.FLASH_OB_GetBootLock,"ax",%progbits
 2420              		.align	1
 2421              		.syntax unified
 2422              		.thumb
 2423              		.thumb_func
 2424              		.fpu fpv4-sp-d16
 2426              	FLASH_OB_GetBootLock:
 2427              	.LFB342:
1214:Drivers/STM32G4xx_HAL_Driver/Src/stm32g4xx_hal_flash_ex.c **** 
1215:Drivers/STM32G4xx_HAL_Driver/Src/stm32g4xx_hal_flash_ex.c **** /**
1216:Drivers/STM32G4xx_HAL_Driver/Src/stm32g4xx_hal_flash_ex.c ****   * @brief  Return the Boot Lock configuration into Option Byte.
1217:Drivers/STM32G4xx_HAL_Driver/Src/stm32g4xx_hal_flash_ex.c ****   * @retval BootLockConfig.
1218:Drivers/STM32G4xx_HAL_Driver/Src/stm32g4xx_hal_flash_ex.c ****   *         This return value can be one of the following values:
1219:Drivers/STM32G4xx_HAL_Driver/Src/stm32g4xx_hal_flash_ex.c ****   *            @arg OB_BOOT_LOCK_ENABLE: Boot lock enabled
1220:Drivers/STM32G4xx_HAL_Driver/Src/stm32g4xx_hal_flash_ex.c ****   *            @arg OB_BOOT_LOCK_DISABLE: Boot lock disabled
1221:Drivers/STM32G4xx_HAL_Driver/Src/stm32g4xx_hal_flash_ex.c ****   */
1222:Drivers/STM32G4xx_HAL_Driver/Src/stm32g4xx_hal_flash_ex.c **** static uint32_t FLASH_OB_GetBootLock(void)
1223:Drivers/STM32G4xx_HAL_Driver/Src/stm32g4xx_hal_flash_ex.c **** {
 2428              		.loc 1 1223 1
 2429              		.cfi_startproc
 2430              		@ args = 0, pretend = 0, frame = 0
 2431              		@ frame_needed = 1, uses_anonymous_args = 0
 2432              		@ link register save eliminated.
 2433 0000 80B4     		push	{r7}
 2434              	.LCFI88:
 2435              		.cfi_def_cfa_offset 4
 2436              		.cfi_offset 7, -4
 2437 0002 00AF     		add	r7, sp, #0
 2438              	.LCFI89:
 2439              		.cfi_def_cfa_register 7
1224:Drivers/STM32G4xx_HAL_Driver/Src/stm32g4xx_hal_flash_ex.c ****   return (READ_REG(FLASH->SEC1R) & FLASH_SEC1R_BOOT_LOCK);
 2440              		.loc 1 1224 11
 2441 0004 044B     		ldr	r3, .L153
 2442 0006 1B6F     		ldr	r3, [r3, #112]
 2443              		.loc 1 1224 34
 2444 0008 03F48033 		and	r3, r3, #65536
1225:Drivers/STM32G4xx_HAL_Driver/Src/stm32g4xx_hal_flash_ex.c **** }
 2445              		.loc 1 1225 1
 2446 000c 1846     		mov	r0, r3
 2447 000e BD46     		mov	sp, r7
 2448              	.LCFI90:
 2449              		.cfi_def_cfa_register 13
ARM GAS  /tmp/cc1VkgmM.s 			page 65


 2450              		@ sp needed
 2451 0010 5DF8047B 		ldr	r7, [sp], #4
 2452              	.LCFI91:
 2453              		.cfi_restore 7
 2454              		.cfi_def_cfa_offset 0
 2455 0014 7047     		bx	lr
 2456              	.L154:
 2457 0016 00BF     		.align	2
 2458              	.L153:
 2459 0018 00200240 		.word	1073881088
 2460              		.cfi_endproc
 2461              	.LFE342:
 2463              		.section	.text.FLASH_OB_GetWRP,"ax",%progbits
 2464              		.align	1
 2465              		.syntax unified
 2466              		.thumb
 2467              		.thumb_func
 2468              		.fpu fpv4-sp-d16
 2470              	FLASH_OB_GetWRP:
 2471              	.LFB343:
1226:Drivers/STM32G4xx_HAL_Driver/Src/stm32g4xx_hal_flash_ex.c **** 
1227:Drivers/STM32G4xx_HAL_Driver/Src/stm32g4xx_hal_flash_ex.c **** /**
1228:Drivers/STM32G4xx_HAL_Driver/Src/stm32g4xx_hal_flash_ex.c ****   * @brief  Return the Write Protection configuration into Option Bytes.
1229:Drivers/STM32G4xx_HAL_Driver/Src/stm32g4xx_hal_flash_ex.c ****   * @param[in]  WRPArea specifies the area to be returned.
1230:Drivers/STM32G4xx_HAL_Driver/Src/stm32g4xx_hal_flash_ex.c ****   *          This parameter can be one of the following values:
1231:Drivers/STM32G4xx_HAL_Driver/Src/stm32g4xx_hal_flash_ex.c ****   *            @arg OB_WRPAREA_BANK1_AREAA: Flash Bank 1 Area A
1232:Drivers/STM32G4xx_HAL_Driver/Src/stm32g4xx_hal_flash_ex.c ****   *            @arg OB_WRPAREA_BANK1_AREAB: Flash Bank 1 Area B
1233:Drivers/STM32G4xx_HAL_Driver/Src/stm32g4xx_hal_flash_ex.c ****   *            @arg OB_WRPAREA_BANK2_AREAA: Flash Bank 2 Area A (don't apply to STM32G43x/STM32G44x
1234:Drivers/STM32G4xx_HAL_Driver/Src/stm32g4xx_hal_flash_ex.c ****   *            @arg OB_WRPAREA_BANK2_AREAB: Flash Bank 2 Area B (don't apply to STM32G43x/STM32G44x
1235:Drivers/STM32G4xx_HAL_Driver/Src/stm32g4xx_hal_flash_ex.c ****   * @param[out]  WRPStartOffset specifies the address where to copied the start page
1236:Drivers/STM32G4xx_HAL_Driver/Src/stm32g4xx_hal_flash_ex.c ****   *              of the write protected area.
1237:Drivers/STM32G4xx_HAL_Driver/Src/stm32g4xx_hal_flash_ex.c ****   * @param[out]  WRDPEndOffset specifies the address where to copied the end page of
1238:Drivers/STM32G4xx_HAL_Driver/Src/stm32g4xx_hal_flash_ex.c ****   *              the write protected area.
1239:Drivers/STM32G4xx_HAL_Driver/Src/stm32g4xx_hal_flash_ex.c ****   * @retval None
1240:Drivers/STM32G4xx_HAL_Driver/Src/stm32g4xx_hal_flash_ex.c ****   */
1241:Drivers/STM32G4xx_HAL_Driver/Src/stm32g4xx_hal_flash_ex.c **** static void FLASH_OB_GetWRP(uint32_t WRPArea, uint32_t *WRPStartOffset, uint32_t *WRDPEndOffset)
1242:Drivers/STM32G4xx_HAL_Driver/Src/stm32g4xx_hal_flash_ex.c **** {
 2472              		.loc 1 1242 1
 2473              		.cfi_startproc
 2474              		@ args = 0, pretend = 0, frame = 16
 2475              		@ frame_needed = 1, uses_anonymous_args = 0
 2476              		@ link register save eliminated.
 2477 0000 80B4     		push	{r7}
 2478              	.LCFI92:
 2479              		.cfi_def_cfa_offset 4
 2480              		.cfi_offset 7, -4
 2481 0002 85B0     		sub	sp, sp, #20
 2482              	.LCFI93:
 2483              		.cfi_def_cfa_offset 24
 2484 0004 00AF     		add	r7, sp, #0
 2485              	.LCFI94:
 2486              		.cfi_def_cfa_register 7
 2487 0006 F860     		str	r0, [r7, #12]
 2488 0008 B960     		str	r1, [r7, #8]
 2489 000a 7A60     		str	r2, [r7, #4]
1243:Drivers/STM32G4xx_HAL_Driver/Src/stm32g4xx_hal_flash_ex.c ****   /* Get the configuration of the write protected area */
1244:Drivers/STM32G4xx_HAL_Driver/Src/stm32g4xx_hal_flash_ex.c ****   if (WRPArea == OB_WRPAREA_BANK1_AREAA)
ARM GAS  /tmp/cc1VkgmM.s 			page 66


 2490              		.loc 1 1244 6
 2491 000c FB68     		ldr	r3, [r7, #12]
 2492 000e 002B     		cmp	r3, #0
 2493 0010 0DD1     		bne	.L156
1245:Drivers/STM32G4xx_HAL_Driver/Src/stm32g4xx_hal_flash_ex.c ****   {
1246:Drivers/STM32G4xx_HAL_Driver/Src/stm32g4xx_hal_flash_ex.c ****     *WRPStartOffset = READ_BIT(FLASH->WRP1AR, FLASH_WRP1AR_WRP1A_STRT);
 2494              		.loc 1 1246 23
 2495 0012 234B     		ldr	r3, .L161
 2496 0014 DB6A     		ldr	r3, [r3, #44]
 2497 0016 03F07F02 		and	r2, r3, #127
 2498              		.loc 1 1246 21
 2499 001a BB68     		ldr	r3, [r7, #8]
 2500 001c 1A60     		str	r2, [r3]
1247:Drivers/STM32G4xx_HAL_Driver/Src/stm32g4xx_hal_flash_ex.c ****     *WRDPEndOffset = (READ_BIT(FLASH->WRP1AR, FLASH_WRP1AR_WRP1A_END) >> FLASH_WRP1AR_WRP1A_END_Pos
 2501              		.loc 1 1247 23
 2502 001e 204B     		ldr	r3, .L161
 2503 0020 DB6A     		ldr	r3, [r3, #44]
 2504              		.loc 1 1247 71
 2505 0022 1B0C     		lsrs	r3, r3, #16
 2506 0024 03F07F02 		and	r2, r3, #127
 2507              		.loc 1 1247 20
 2508 0028 7B68     		ldr	r3, [r7, #4]
 2509 002a 1A60     		str	r2, [r3]
1248:Drivers/STM32G4xx_HAL_Driver/Src/stm32g4xx_hal_flash_ex.c ****   }
1249:Drivers/STM32G4xx_HAL_Driver/Src/stm32g4xx_hal_flash_ex.c ****   else if (WRPArea == OB_WRPAREA_BANK1_AREAB)
1250:Drivers/STM32G4xx_HAL_Driver/Src/stm32g4xx_hal_flash_ex.c ****   {
1251:Drivers/STM32G4xx_HAL_Driver/Src/stm32g4xx_hal_flash_ex.c ****     *WRPStartOffset = READ_BIT(FLASH->WRP1BR, FLASH_WRP1BR_WRP1B_STRT);
1252:Drivers/STM32G4xx_HAL_Driver/Src/stm32g4xx_hal_flash_ex.c ****     *WRDPEndOffset = (READ_BIT(FLASH->WRP1BR, FLASH_WRP1BR_WRP1B_END) >> FLASH_WRP1BR_WRP1B_END_Pos
1253:Drivers/STM32G4xx_HAL_Driver/Src/stm32g4xx_hal_flash_ex.c ****   }
1254:Drivers/STM32G4xx_HAL_Driver/Src/stm32g4xx_hal_flash_ex.c **** #if defined (FLASH_OPTR_DBANK)
1255:Drivers/STM32G4xx_HAL_Driver/Src/stm32g4xx_hal_flash_ex.c ****   else if (WRPArea == OB_WRPAREA_BANK2_AREAA)
1256:Drivers/STM32G4xx_HAL_Driver/Src/stm32g4xx_hal_flash_ex.c ****   {
1257:Drivers/STM32G4xx_HAL_Driver/Src/stm32g4xx_hal_flash_ex.c ****     *WRPStartOffset = READ_BIT(FLASH->WRP2AR, FLASH_WRP2AR_WRP2A_STRT);
1258:Drivers/STM32G4xx_HAL_Driver/Src/stm32g4xx_hal_flash_ex.c ****     *WRDPEndOffset = (READ_BIT(FLASH->WRP2AR, FLASH_WRP2AR_WRP2A_END) >> FLASH_WRP2AR_WRP2A_END_Pos
1259:Drivers/STM32G4xx_HAL_Driver/Src/stm32g4xx_hal_flash_ex.c ****   }
1260:Drivers/STM32G4xx_HAL_Driver/Src/stm32g4xx_hal_flash_ex.c ****   else if (WRPArea == OB_WRPAREA_BANK2_AREAB)
1261:Drivers/STM32G4xx_HAL_Driver/Src/stm32g4xx_hal_flash_ex.c ****   {
1262:Drivers/STM32G4xx_HAL_Driver/Src/stm32g4xx_hal_flash_ex.c ****     *WRPStartOffset = READ_BIT(FLASH->WRP2BR, FLASH_WRP2BR_WRP2B_STRT);
1263:Drivers/STM32G4xx_HAL_Driver/Src/stm32g4xx_hal_flash_ex.c ****     *WRDPEndOffset = (READ_BIT(FLASH->WRP2BR, FLASH_WRP2BR_WRP2B_END) >> FLASH_WRP2BR_WRP2B_END_Pos
1264:Drivers/STM32G4xx_HAL_Driver/Src/stm32g4xx_hal_flash_ex.c ****   }
1265:Drivers/STM32G4xx_HAL_Driver/Src/stm32g4xx_hal_flash_ex.c **** #endif
1266:Drivers/STM32G4xx_HAL_Driver/Src/stm32g4xx_hal_flash_ex.c ****   else
1267:Drivers/STM32G4xx_HAL_Driver/Src/stm32g4xx_hal_flash_ex.c ****   {
1268:Drivers/STM32G4xx_HAL_Driver/Src/stm32g4xx_hal_flash_ex.c ****     /* Nothing to do */
1269:Drivers/STM32G4xx_HAL_Driver/Src/stm32g4xx_hal_flash_ex.c ****   }
1270:Drivers/STM32G4xx_HAL_Driver/Src/stm32g4xx_hal_flash_ex.c **** }
 2510              		.loc 1 1270 1
 2511 002c 31E0     		b	.L160
 2512              	.L156:
1249:Drivers/STM32G4xx_HAL_Driver/Src/stm32g4xx_hal_flash_ex.c ****   {
 2513              		.loc 1 1249 11
 2514 002e FB68     		ldr	r3, [r7, #12]
 2515 0030 012B     		cmp	r3, #1
 2516 0032 0DD1     		bne	.L158
1251:Drivers/STM32G4xx_HAL_Driver/Src/stm32g4xx_hal_flash_ex.c ****     *WRDPEndOffset = (READ_BIT(FLASH->WRP1BR, FLASH_WRP1BR_WRP1B_END) >> FLASH_WRP1BR_WRP1B_END_Pos
 2517              		.loc 1 1251 23
 2518 0034 1A4B     		ldr	r3, .L161
ARM GAS  /tmp/cc1VkgmM.s 			page 67


 2519 0036 1B6B     		ldr	r3, [r3, #48]
 2520 0038 03F07F02 		and	r2, r3, #127
1251:Drivers/STM32G4xx_HAL_Driver/Src/stm32g4xx_hal_flash_ex.c ****     *WRDPEndOffset = (READ_BIT(FLASH->WRP1BR, FLASH_WRP1BR_WRP1B_END) >> FLASH_WRP1BR_WRP1B_END_Pos
 2521              		.loc 1 1251 21
 2522 003c BB68     		ldr	r3, [r7, #8]
 2523 003e 1A60     		str	r2, [r3]
1252:Drivers/STM32G4xx_HAL_Driver/Src/stm32g4xx_hal_flash_ex.c ****   }
 2524              		.loc 1 1252 23
 2525 0040 174B     		ldr	r3, .L161
 2526 0042 1B6B     		ldr	r3, [r3, #48]
1252:Drivers/STM32G4xx_HAL_Driver/Src/stm32g4xx_hal_flash_ex.c ****   }
 2527              		.loc 1 1252 71
 2528 0044 1B0C     		lsrs	r3, r3, #16
 2529 0046 03F07F02 		and	r2, r3, #127
1252:Drivers/STM32G4xx_HAL_Driver/Src/stm32g4xx_hal_flash_ex.c ****   }
 2530              		.loc 1 1252 20
 2531 004a 7B68     		ldr	r3, [r7, #4]
 2532 004c 1A60     		str	r2, [r3]
 2533              		.loc 1 1270 1
 2534 004e 20E0     		b	.L160
 2535              	.L158:
1255:Drivers/STM32G4xx_HAL_Driver/Src/stm32g4xx_hal_flash_ex.c ****   {
 2536              		.loc 1 1255 11
 2537 0050 FB68     		ldr	r3, [r7, #12]
 2538 0052 022B     		cmp	r3, #2
 2539 0054 0DD1     		bne	.L159
1257:Drivers/STM32G4xx_HAL_Driver/Src/stm32g4xx_hal_flash_ex.c ****     *WRDPEndOffset = (READ_BIT(FLASH->WRP2AR, FLASH_WRP2AR_WRP2A_END) >> FLASH_WRP2AR_WRP2A_END_Pos
 2540              		.loc 1 1257 23
 2541 0056 124B     		ldr	r3, .L161
 2542 0058 DB6C     		ldr	r3, [r3, #76]
 2543 005a 03F07F02 		and	r2, r3, #127
1257:Drivers/STM32G4xx_HAL_Driver/Src/stm32g4xx_hal_flash_ex.c ****     *WRDPEndOffset = (READ_BIT(FLASH->WRP2AR, FLASH_WRP2AR_WRP2A_END) >> FLASH_WRP2AR_WRP2A_END_Pos
 2544              		.loc 1 1257 21
 2545 005e BB68     		ldr	r3, [r7, #8]
 2546 0060 1A60     		str	r2, [r3]
1258:Drivers/STM32G4xx_HAL_Driver/Src/stm32g4xx_hal_flash_ex.c ****   }
 2547              		.loc 1 1258 23
 2548 0062 0F4B     		ldr	r3, .L161
 2549 0064 DB6C     		ldr	r3, [r3, #76]
1258:Drivers/STM32G4xx_HAL_Driver/Src/stm32g4xx_hal_flash_ex.c ****   }
 2550              		.loc 1 1258 71
 2551 0066 1B0C     		lsrs	r3, r3, #16
 2552 0068 03F07F02 		and	r2, r3, #127
1258:Drivers/STM32G4xx_HAL_Driver/Src/stm32g4xx_hal_flash_ex.c ****   }
 2553              		.loc 1 1258 20
 2554 006c 7B68     		ldr	r3, [r7, #4]
 2555 006e 1A60     		str	r2, [r3]
 2556              		.loc 1 1270 1
 2557 0070 0FE0     		b	.L160
 2558              	.L159:
1260:Drivers/STM32G4xx_HAL_Driver/Src/stm32g4xx_hal_flash_ex.c ****   {
 2559              		.loc 1 1260 11
 2560 0072 FB68     		ldr	r3, [r7, #12]
 2561 0074 042B     		cmp	r3, #4
 2562 0076 0CD1     		bne	.L160
1262:Drivers/STM32G4xx_HAL_Driver/Src/stm32g4xx_hal_flash_ex.c ****     *WRDPEndOffset = (READ_BIT(FLASH->WRP2BR, FLASH_WRP2BR_WRP2B_END) >> FLASH_WRP2BR_WRP2B_END_Pos
 2563              		.loc 1 1262 23
ARM GAS  /tmp/cc1VkgmM.s 			page 68


 2564 0078 094B     		ldr	r3, .L161
 2565 007a 1B6D     		ldr	r3, [r3, #80]
 2566 007c 03F07F02 		and	r2, r3, #127
1262:Drivers/STM32G4xx_HAL_Driver/Src/stm32g4xx_hal_flash_ex.c ****     *WRDPEndOffset = (READ_BIT(FLASH->WRP2BR, FLASH_WRP2BR_WRP2B_END) >> FLASH_WRP2BR_WRP2B_END_Pos
 2567              		.loc 1 1262 21
 2568 0080 BB68     		ldr	r3, [r7, #8]
 2569 0082 1A60     		str	r2, [r3]
1263:Drivers/STM32G4xx_HAL_Driver/Src/stm32g4xx_hal_flash_ex.c ****   }
 2570              		.loc 1 1263 23
 2571 0084 064B     		ldr	r3, .L161
 2572 0086 1B6D     		ldr	r3, [r3, #80]
1263:Drivers/STM32G4xx_HAL_Driver/Src/stm32g4xx_hal_flash_ex.c ****   }
 2573              		.loc 1 1263 71
 2574 0088 1B0C     		lsrs	r3, r3, #16
 2575 008a 03F07F02 		and	r2, r3, #127
1263:Drivers/STM32G4xx_HAL_Driver/Src/stm32g4xx_hal_flash_ex.c ****   }
 2576              		.loc 1 1263 20
 2577 008e 7B68     		ldr	r3, [r7, #4]
 2578 0090 1A60     		str	r2, [r3]
 2579              	.L160:
 2580              		.loc 1 1270 1
 2581 0092 00BF     		nop
 2582 0094 1437     		adds	r7, r7, #20
 2583              	.LCFI95:
 2584              		.cfi_def_cfa_offset 4
 2585 0096 BD46     		mov	sp, r7
 2586              	.LCFI96:
 2587              		.cfi_def_cfa_register 13
 2588              		@ sp needed
 2589 0098 5DF8047B 		ldr	r7, [sp], #4
 2590              	.LCFI97:
 2591              		.cfi_restore 7
 2592              		.cfi_def_cfa_offset 0
 2593 009c 7047     		bx	lr
 2594              	.L162:
 2595 009e 00BF     		.align	2
 2596              	.L161:
 2597 00a0 00200240 		.word	1073881088
 2598              		.cfi_endproc
 2599              	.LFE343:
 2601              		.section	.text.FLASH_OB_GetRDP,"ax",%progbits
 2602              		.align	1
 2603              		.syntax unified
 2604              		.thumb
 2605              		.thumb_func
 2606              		.fpu fpv4-sp-d16
 2608              	FLASH_OB_GetRDP:
 2609              	.LFB344:
1271:Drivers/STM32G4xx_HAL_Driver/Src/stm32g4xx_hal_flash_ex.c **** 
1272:Drivers/STM32G4xx_HAL_Driver/Src/stm32g4xx_hal_flash_ex.c **** /**
1273:Drivers/STM32G4xx_HAL_Driver/Src/stm32g4xx_hal_flash_ex.c ****   * @brief  Return the FLASH Read Protection level into Option Bytes.
1274:Drivers/STM32G4xx_HAL_Driver/Src/stm32g4xx_hal_flash_ex.c ****   * @retval RDP_Level
1275:Drivers/STM32G4xx_HAL_Driver/Src/stm32g4xx_hal_flash_ex.c ****   *         This return value can be one of the following values:
1276:Drivers/STM32G4xx_HAL_Driver/Src/stm32g4xx_hal_flash_ex.c ****   *            @arg OB_RDP_LEVEL_0: No protection
1277:Drivers/STM32G4xx_HAL_Driver/Src/stm32g4xx_hal_flash_ex.c ****   *            @arg OB_RDP_LEVEL_1: Read protection of the memory
1278:Drivers/STM32G4xx_HAL_Driver/Src/stm32g4xx_hal_flash_ex.c ****   *            @arg OB_RDP_LEVEL_2: Full chip protection
1279:Drivers/STM32G4xx_HAL_Driver/Src/stm32g4xx_hal_flash_ex.c ****   */
ARM GAS  /tmp/cc1VkgmM.s 			page 69


1280:Drivers/STM32G4xx_HAL_Driver/Src/stm32g4xx_hal_flash_ex.c **** static uint32_t FLASH_OB_GetRDP(void)
1281:Drivers/STM32G4xx_HAL_Driver/Src/stm32g4xx_hal_flash_ex.c **** {
 2610              		.loc 1 1281 1
 2611              		.cfi_startproc
 2612              		@ args = 0, pretend = 0, frame = 8
 2613              		@ frame_needed = 1, uses_anonymous_args = 0
 2614              		@ link register save eliminated.
 2615 0000 80B4     		push	{r7}
 2616              	.LCFI98:
 2617              		.cfi_def_cfa_offset 4
 2618              		.cfi_offset 7, -4
 2619 0002 83B0     		sub	sp, sp, #12
 2620              	.LCFI99:
 2621              		.cfi_def_cfa_offset 16
 2622 0004 00AF     		add	r7, sp, #0
 2623              	.LCFI100:
 2624              		.cfi_def_cfa_register 7
1282:Drivers/STM32G4xx_HAL_Driver/Src/stm32g4xx_hal_flash_ex.c ****   uint32_t rdp_level = READ_BIT(FLASH->OPTR, FLASH_OPTR_RDP);
 2625              		.loc 1 1282 24
 2626 0006 094B     		ldr	r3, .L166
 2627 0008 1B6A     		ldr	r3, [r3, #32]
 2628              		.loc 1 1282 12
 2629 000a DBB2     		uxtb	r3, r3
 2630 000c 7B60     		str	r3, [r7, #4]
1283:Drivers/STM32G4xx_HAL_Driver/Src/stm32g4xx_hal_flash_ex.c **** 
1284:Drivers/STM32G4xx_HAL_Driver/Src/stm32g4xx_hal_flash_ex.c ****   if ((rdp_level != OB_RDP_LEVEL_0) && (rdp_level != OB_RDP_LEVEL_2))
 2631              		.loc 1 1284 6
 2632 000e 7B68     		ldr	r3, [r7, #4]
 2633 0010 AA2B     		cmp	r3, #170
 2634 0012 04D0     		beq	.L164
 2635              		.loc 1 1284 37 discriminator 1
 2636 0014 7B68     		ldr	r3, [r7, #4]
 2637 0016 CC2B     		cmp	r3, #204
 2638 0018 01D0     		beq	.L164
1285:Drivers/STM32G4xx_HAL_Driver/Src/stm32g4xx_hal_flash_ex.c ****   {
1286:Drivers/STM32G4xx_HAL_Driver/Src/stm32g4xx_hal_flash_ex.c ****     return (OB_RDP_LEVEL_1);
 2639              		.loc 1 1286 12
 2640 001a BB23     		movs	r3, #187
 2641 001c 00E0     		b	.L165
 2642              	.L164:
1287:Drivers/STM32G4xx_HAL_Driver/Src/stm32g4xx_hal_flash_ex.c ****   }
1288:Drivers/STM32G4xx_HAL_Driver/Src/stm32g4xx_hal_flash_ex.c ****   else
1289:Drivers/STM32G4xx_HAL_Driver/Src/stm32g4xx_hal_flash_ex.c ****   {
1290:Drivers/STM32G4xx_HAL_Driver/Src/stm32g4xx_hal_flash_ex.c ****     return rdp_level;
 2643              		.loc 1 1290 12
 2644 001e 7B68     		ldr	r3, [r7, #4]
 2645              	.L165:
1291:Drivers/STM32G4xx_HAL_Driver/Src/stm32g4xx_hal_flash_ex.c ****   }
1292:Drivers/STM32G4xx_HAL_Driver/Src/stm32g4xx_hal_flash_ex.c **** }
 2646              		.loc 1 1292 1
 2647 0020 1846     		mov	r0, r3
 2648 0022 0C37     		adds	r7, r7, #12
 2649              	.LCFI101:
 2650              		.cfi_def_cfa_offset 4
 2651 0024 BD46     		mov	sp, r7
 2652              	.LCFI102:
 2653              		.cfi_def_cfa_register 13
ARM GAS  /tmp/cc1VkgmM.s 			page 70


 2654              		@ sp needed
 2655 0026 5DF8047B 		ldr	r7, [sp], #4
 2656              	.LCFI103:
 2657              		.cfi_restore 7
 2658              		.cfi_def_cfa_offset 0
 2659 002a 7047     		bx	lr
 2660              	.L167:
 2661              		.align	2
 2662              	.L166:
 2663 002c 00200240 		.word	1073881088
 2664              		.cfi_endproc
 2665              	.LFE344:
 2667              		.section	.text.FLASH_OB_GetUser,"ax",%progbits
 2668              		.align	1
 2669              		.syntax unified
 2670              		.thumb
 2671              		.thumb_func
 2672              		.fpu fpv4-sp-d16
 2674              	FLASH_OB_GetUser:
 2675              	.LFB345:
1293:Drivers/STM32G4xx_HAL_Driver/Src/stm32g4xx_hal_flash_ex.c **** 
1294:Drivers/STM32G4xx_HAL_Driver/Src/stm32g4xx_hal_flash_ex.c **** /**
1295:Drivers/STM32G4xx_HAL_Driver/Src/stm32g4xx_hal_flash_ex.c ****   * @brief  Return the FLASH User Option Byte value.
1296:Drivers/STM32G4xx_HAL_Driver/Src/stm32g4xx_hal_flash_ex.c ****   * @retval OB_user_config
1297:Drivers/STM32G4xx_HAL_Driver/Src/stm32g4xx_hal_flash_ex.c ****   *         This return value is a combination of @ref FLASH_OB_USER_BOR_LEVEL,
1298:Drivers/STM32G4xx_HAL_Driver/Src/stm32g4xx_hal_flash_ex.c ****   *         @ref FLASH_OB_USER_nRST_STOP, @ref FLASH_OB_USER_nRST_STANDBY,
1299:Drivers/STM32G4xx_HAL_Driver/Src/stm32g4xx_hal_flash_ex.c ****   *         @ref FLASH_OB_USER_nRST_SHUTDOWN, @ref FLASH_OB_USER_IWDG_SW,
1300:Drivers/STM32G4xx_HAL_Driver/Src/stm32g4xx_hal_flash_ex.c ****   *         @ref FLASH_OB_USER_IWDG_STOP, @ref FLASH_OB_USER_IWDG_STANDBY,
1301:Drivers/STM32G4xx_HAL_Driver/Src/stm32g4xx_hal_flash_ex.c ****   *         @ref FLASH_OB_USER_WWDG_SW, @ref FLASH_OB_USER_WWDG_SW,
1302:Drivers/STM32G4xx_HAL_Driver/Src/stm32g4xx_hal_flash_ex.c ****   *         @ref FLASH_OB_USER_BFB2 (*), @ref FLASH_OB_USER_DBANK (*),
1303:Drivers/STM32G4xx_HAL_Driver/Src/stm32g4xx_hal_flash_ex.c ****   *         @ref FLASH_OB_USER_nBOOT1, @ref FLASH_OB_USER_SRAM_PE,
1304:Drivers/STM32G4xx_HAL_Driver/Src/stm32g4xx_hal_flash_ex.c ****   *         @ref FLASH_OB_USER_CCMSRAM_RST, @ref OB_USER_nSWBOOT0,@ref FLASH_OB_USER_nBOOT0,
1305:Drivers/STM32G4xx_HAL_Driver/Src/stm32g4xx_hal_flash_ex.c ****   *         @ref FLASH_OB_USER_NRST_MODE, @ref FLASH_OB_USER_INTERNAL_RESET_HOLDER
1306:Drivers/STM32G4xx_HAL_Driver/Src/stm32g4xx_hal_flash_ex.c ****   * @note  (*) availability depends on devices
1307:Drivers/STM32G4xx_HAL_Driver/Src/stm32g4xx_hal_flash_ex.c ****   */
1308:Drivers/STM32G4xx_HAL_Driver/Src/stm32g4xx_hal_flash_ex.c **** static uint32_t FLASH_OB_GetUser(void)
1309:Drivers/STM32G4xx_HAL_Driver/Src/stm32g4xx_hal_flash_ex.c **** {
 2676              		.loc 1 1309 1
 2677              		.cfi_startproc
 2678              		@ args = 0, pretend = 0, frame = 8
 2679              		@ frame_needed = 1, uses_anonymous_args = 0
 2680              		@ link register save eliminated.
 2681 0000 80B4     		push	{r7}
 2682              	.LCFI104:
 2683              		.cfi_def_cfa_offset 4
 2684              		.cfi_offset 7, -4
 2685 0002 83B0     		sub	sp, sp, #12
 2686              	.LCFI105:
 2687              		.cfi_def_cfa_offset 16
 2688 0004 00AF     		add	r7, sp, #0
 2689              	.LCFI106:
 2690              		.cfi_def_cfa_register 7
1310:Drivers/STM32G4xx_HAL_Driver/Src/stm32g4xx_hal_flash_ex.c ****   uint32_t user_config = READ_REG(FLASH->OPTR);
 2691              		.loc 1 1310 26
 2692 0006 074B     		ldr	r3, .L170
 2693              		.loc 1 1310 12
 2694 0008 1B6A     		ldr	r3, [r3, #32]
ARM GAS  /tmp/cc1VkgmM.s 			page 71


 2695 000a 7B60     		str	r3, [r7, #4]
1311:Drivers/STM32G4xx_HAL_Driver/Src/stm32g4xx_hal_flash_ex.c ****   CLEAR_BIT(user_config, FLASH_OPTR_RDP);
 2696              		.loc 1 1311 3
 2697 000c 7B68     		ldr	r3, [r7, #4]
 2698 000e 23F0FF03 		bic	r3, r3, #255
 2699 0012 7B60     		str	r3, [r7, #4]
1312:Drivers/STM32G4xx_HAL_Driver/Src/stm32g4xx_hal_flash_ex.c **** 
1313:Drivers/STM32G4xx_HAL_Driver/Src/stm32g4xx_hal_flash_ex.c ****   return user_config;
 2700              		.loc 1 1313 10
 2701 0014 7B68     		ldr	r3, [r7, #4]
1314:Drivers/STM32G4xx_HAL_Driver/Src/stm32g4xx_hal_flash_ex.c **** }
 2702              		.loc 1 1314 1
 2703 0016 1846     		mov	r0, r3
 2704 0018 0C37     		adds	r7, r7, #12
 2705              	.LCFI107:
 2706              		.cfi_def_cfa_offset 4
 2707 001a BD46     		mov	sp, r7
 2708              	.LCFI108:
 2709              		.cfi_def_cfa_register 13
 2710              		@ sp needed
 2711 001c 5DF8047B 		ldr	r7, [sp], #4
 2712              	.LCFI109:
 2713              		.cfi_restore 7
 2714              		.cfi_def_cfa_offset 0
 2715 0020 7047     		bx	lr
 2716              	.L171:
 2717 0022 00BF     		.align	2
 2718              	.L170:
 2719 0024 00200240 		.word	1073881088
 2720              		.cfi_endproc
 2721              	.LFE345:
 2723              		.section	.text.FLASH_OB_GetPCROP,"ax",%progbits
 2724              		.align	1
 2725              		.syntax unified
 2726              		.thumb
 2727              		.thumb_func
 2728              		.fpu fpv4-sp-d16
 2730              	FLASH_OB_GetPCROP:
 2731              	.LFB346:
1315:Drivers/STM32G4xx_HAL_Driver/Src/stm32g4xx_hal_flash_ex.c **** 
1316:Drivers/STM32G4xx_HAL_Driver/Src/stm32g4xx_hal_flash_ex.c **** /**
1317:Drivers/STM32G4xx_HAL_Driver/Src/stm32g4xx_hal_flash_ex.c ****   * @brief  Return the FLASH PCROP configuration into Option Bytes.
1318:Drivers/STM32G4xx_HAL_Driver/Src/stm32g4xx_hal_flash_ex.c ****   * @param[in,out] PCROPConfig specifies the configuration (Bank to be configured and PCROP_RDP opt
1319:Drivers/STM32G4xx_HAL_Driver/Src/stm32g4xx_hal_flash_ex.c ****   *        This parameter must be a combination of FLASH_BANK_1 or FLASH_BANK_2
1320:Drivers/STM32G4xx_HAL_Driver/Src/stm32g4xx_hal_flash_ex.c ****   *        with OB_PCROP_RDP_NOT_ERASE or OB_PCROP_RDP_ERASE.
1321:Drivers/STM32G4xx_HAL_Driver/Src/stm32g4xx_hal_flash_ex.c ****   * @param[out] PCROPStartAddr specifies the address where to copied the start address
1322:Drivers/STM32G4xx_HAL_Driver/Src/stm32g4xx_hal_flash_ex.c ****   *        of the Proprietary code readout protection.
1323:Drivers/STM32G4xx_HAL_Driver/Src/stm32g4xx_hal_flash_ex.c ****   * @param[out] PCROPEndAddr specifies the address where to copied the end address of
1324:Drivers/STM32G4xx_HAL_Driver/Src/stm32g4xx_hal_flash_ex.c ****   *        the Proprietary code readout protection.
1325:Drivers/STM32G4xx_HAL_Driver/Src/stm32g4xx_hal_flash_ex.c ****   * @retval None
1326:Drivers/STM32G4xx_HAL_Driver/Src/stm32g4xx_hal_flash_ex.c ****   */
1327:Drivers/STM32G4xx_HAL_Driver/Src/stm32g4xx_hal_flash_ex.c **** static void FLASH_OB_GetPCROP(uint32_t *PCROPConfig, uint32_t *PCROPStartAddr, uint32_t *PCROPEndAd
1328:Drivers/STM32G4xx_HAL_Driver/Src/stm32g4xx_hal_flash_ex.c **** {
 2732              		.loc 1 1328 1
 2733              		.cfi_startproc
 2734              		@ args = 0, pretend = 0, frame = 32
 2735              		@ frame_needed = 1, uses_anonymous_args = 0
ARM GAS  /tmp/cc1VkgmM.s 			page 72


 2736              		@ link register save eliminated.
 2737 0000 80B4     		push	{r7}
 2738              	.LCFI110:
 2739              		.cfi_def_cfa_offset 4
 2740              		.cfi_offset 7, -4
 2741 0002 89B0     		sub	sp, sp, #36
 2742              	.LCFI111:
 2743              		.cfi_def_cfa_offset 40
 2744 0004 00AF     		add	r7, sp, #0
 2745              	.LCFI112:
 2746              		.cfi_def_cfa_register 7
 2747 0006 F860     		str	r0, [r7, #12]
 2748 0008 B960     		str	r1, [r7, #8]
 2749 000a 7A60     		str	r2, [r7, #4]
1329:Drivers/STM32G4xx_HAL_Driver/Src/stm32g4xx_hal_flash_ex.c ****   uint32_t reg_value;
1330:Drivers/STM32G4xx_HAL_Driver/Src/stm32g4xx_hal_flash_ex.c ****   uint32_t bank1_addr;
1331:Drivers/STM32G4xx_HAL_Driver/Src/stm32g4xx_hal_flash_ex.c **** #if defined (FLASH_OPTR_DBANK)
1332:Drivers/STM32G4xx_HAL_Driver/Src/stm32g4xx_hal_flash_ex.c ****   uint32_t bank2_addr;
1333:Drivers/STM32G4xx_HAL_Driver/Src/stm32g4xx_hal_flash_ex.c **** 
1334:Drivers/STM32G4xx_HAL_Driver/Src/stm32g4xx_hal_flash_ex.c ****   /* Get the information about the bank swapping */
1335:Drivers/STM32G4xx_HAL_Driver/Src/stm32g4xx_hal_flash_ex.c ****   if (READ_BIT(SYSCFG->MEMRMP, SYSCFG_MEMRMP_FB_MODE) == 0U)
 2750              		.loc 1 1335 7
 2751 000c 5B4B     		ldr	r3, .L183
 2752 000e 1B68     		ldr	r3, [r3]
 2753 0010 03F48073 		and	r3, r3, #256
 2754              		.loc 1 1335 6
 2755 0014 002B     		cmp	r3, #0
 2756 0016 14D1     		bne	.L173
1336:Drivers/STM32G4xx_HAL_Driver/Src/stm32g4xx_hal_flash_ex.c ****   {
1337:Drivers/STM32G4xx_HAL_Driver/Src/stm32g4xx_hal_flash_ex.c ****     bank1_addr = FLASH_BASE;
 2757              		.loc 1 1337 16
 2758 0018 4FF00063 		mov	r3, #134217728
 2759 001c FB61     		str	r3, [r7, #28]
1338:Drivers/STM32G4xx_HAL_Driver/Src/stm32g4xx_hal_flash_ex.c ****     bank2_addr = FLASH_BASE + FLASH_BANK_SIZE;
 2760              		.loc 1 1338 31
 2761 001e 584B     		ldr	r3, .L183+4
 2762 0020 1B88     		ldrh	r3, [r3]
 2763              		.loc 1 1338 29
 2764 0022 4FF6FF72 		movw	r2, #65535
 2765 0026 9342     		cmp	r3, r2
 2766 0028 08D0     		beq	.L174
 2767              		.loc 1 1338 31 discriminator 1
 2768 002a 554B     		ldr	r3, .L183+4
 2769 002c 1B68     		ldr	r3, [r3]
 2770 002e 9B02     		lsls	r3, r3, #10
 2771 0030 5A08     		lsrs	r2, r3, #1
 2772 0032 544B     		ldr	r3, .L183+8
 2773 0034 1340     		ands	r3, r3, r2
 2774              		.loc 1 1338 29 discriminator 1
 2775 0036 03F10063 		add	r3, r3, #134217728
 2776 003a 00E0     		b	.L175
 2777              	.L174:
 2778              		.loc 1 1338 29 is_stmt 0 discriminator 2
 2779 003c 524B     		ldr	r3, .L183+12
 2780              	.L175:
 2781              		.loc 1 1338 16 is_stmt 1 discriminator 4
 2782 003e BB61     		str	r3, [r7, #24]
ARM GAS  /tmp/cc1VkgmM.s 			page 73


 2783 0040 13E0     		b	.L176
 2784              	.L173:
1339:Drivers/STM32G4xx_HAL_Driver/Src/stm32g4xx_hal_flash_ex.c ****   }
1340:Drivers/STM32G4xx_HAL_Driver/Src/stm32g4xx_hal_flash_ex.c ****   else
1341:Drivers/STM32G4xx_HAL_Driver/Src/stm32g4xx_hal_flash_ex.c ****   {
1342:Drivers/STM32G4xx_HAL_Driver/Src/stm32g4xx_hal_flash_ex.c ****     bank1_addr = FLASH_BASE + FLASH_BANK_SIZE;
 2785              		.loc 1 1342 31
 2786 0042 4F4B     		ldr	r3, .L183+4
 2787 0044 1B88     		ldrh	r3, [r3]
 2788              		.loc 1 1342 29
 2789 0046 4FF6FF72 		movw	r2, #65535
 2790 004a 9342     		cmp	r3, r2
 2791 004c 08D0     		beq	.L177
 2792              		.loc 1 1342 31 discriminator 1
 2793 004e 4C4B     		ldr	r3, .L183+4
 2794 0050 1B68     		ldr	r3, [r3]
 2795 0052 9B02     		lsls	r3, r3, #10
 2796 0054 5A08     		lsrs	r2, r3, #1
 2797 0056 4B4B     		ldr	r3, .L183+8
 2798 0058 1340     		ands	r3, r3, r2
 2799              		.loc 1 1342 29 discriminator 1
 2800 005a 03F10063 		add	r3, r3, #134217728
 2801 005e 00E0     		b	.L178
 2802              	.L177:
 2803              		.loc 1 1342 29 is_stmt 0 discriminator 2
 2804 0060 494B     		ldr	r3, .L183+12
 2805              	.L178:
 2806              		.loc 1 1342 16 is_stmt 1 discriminator 4
 2807 0062 FB61     		str	r3, [r7, #28]
1343:Drivers/STM32G4xx_HAL_Driver/Src/stm32g4xx_hal_flash_ex.c ****     bank2_addr = FLASH_BASE;
 2808              		.loc 1 1343 16 discriminator 4
 2809 0064 4FF00063 		mov	r3, #134217728
 2810 0068 BB61     		str	r3, [r7, #24]
 2811              	.L176:
1344:Drivers/STM32G4xx_HAL_Driver/Src/stm32g4xx_hal_flash_ex.c ****   }
1345:Drivers/STM32G4xx_HAL_Driver/Src/stm32g4xx_hal_flash_ex.c **** #else
1346:Drivers/STM32G4xx_HAL_Driver/Src/stm32g4xx_hal_flash_ex.c ****   bank1_addr = FLASH_BASE;
1347:Drivers/STM32G4xx_HAL_Driver/Src/stm32g4xx_hal_flash_ex.c **** #endif
1348:Drivers/STM32G4xx_HAL_Driver/Src/stm32g4xx_hal_flash_ex.c **** 
1349:Drivers/STM32G4xx_HAL_Driver/Src/stm32g4xx_hal_flash_ex.c **** #if defined (FLASH_OPTR_DBANK)
1350:Drivers/STM32G4xx_HAL_Driver/Src/stm32g4xx_hal_flash_ex.c ****   if (READ_BIT(FLASH->OPTR, FLASH_OPTR_DBANK) == 0U)
 2812              		.loc 1 1350 7
 2813 006a 484B     		ldr	r3, .L183+16
 2814 006c 1B6A     		ldr	r3, [r3, #32]
 2815 006e 03F48003 		and	r3, r3, #4194304
 2816              		.loc 1 1350 6
 2817 0072 002B     		cmp	r3, #0
 2818 0074 39D1     		bne	.L179
1351:Drivers/STM32G4xx_HAL_Driver/Src/stm32g4xx_hal_flash_ex.c ****   {
1352:Drivers/STM32G4xx_HAL_Driver/Src/stm32g4xx_hal_flash_ex.c ****     if (((*PCROPConfig) & FLASH_BANK_BOTH) == FLASH_BANK_1)
 2819              		.loc 1 1352 11
 2820 0076 FB68     		ldr	r3, [r7, #12]
 2821 0078 1B68     		ldr	r3, [r3]
 2822              		.loc 1 1352 25
 2823 007a 03F00303 		and	r3, r3, #3
 2824              		.loc 1 1352 8
 2825 007e 012B     		cmp	r3, #1
ARM GAS  /tmp/cc1VkgmM.s 			page 74


 2826 0080 16D1     		bne	.L180
1353:Drivers/STM32G4xx_HAL_Driver/Src/stm32g4xx_hal_flash_ex.c ****     {
1354:Drivers/STM32G4xx_HAL_Driver/Src/stm32g4xx_hal_flash_ex.c ****       reg_value       = (READ_REG(FLASH->PCROP1SR) & FLASH_PCROP1SR_PCROP1_STRT);
 2827              		.loc 1 1354 26
 2828 0082 424B     		ldr	r3, .L183+16
 2829 0084 5B6A     		ldr	r3, [r3, #36]
 2830              		.loc 1 1354 23
 2831 0086 C3F30E03 		ubfx	r3, r3, #0, #15
 2832 008a 7B61     		str	r3, [r7, #20]
1355:Drivers/STM32G4xx_HAL_Driver/Src/stm32g4xx_hal_flash_ex.c ****       *PCROPStartAddr = (reg_value << 4) + FLASH_BASE;
 2833              		.loc 1 1355 36
 2834 008c 7B69     		ldr	r3, [r7, #20]
 2835 008e 1B01     		lsls	r3, r3, #4
 2836              		.loc 1 1355 42
 2837 0090 03F10062 		add	r2, r3, #134217728
 2838              		.loc 1 1355 23
 2839 0094 BB68     		ldr	r3, [r7, #8]
 2840 0096 1A60     		str	r2, [r3]
1356:Drivers/STM32G4xx_HAL_Driver/Src/stm32g4xx_hal_flash_ex.c **** 
1357:Drivers/STM32G4xx_HAL_Driver/Src/stm32g4xx_hal_flash_ex.c ****       reg_value     = (READ_REG(FLASH->PCROP1ER) & FLASH_PCROP1ER_PCROP1_END);
 2841              		.loc 1 1357 24
 2842 0098 3C4B     		ldr	r3, .L183+16
 2843 009a 9B6A     		ldr	r3, [r3, #40]
 2844              		.loc 1 1357 21
 2845 009c C3F30E03 		ubfx	r3, r3, #0, #15
 2846 00a0 7B61     		str	r3, [r7, #20]
1358:Drivers/STM32G4xx_HAL_Driver/Src/stm32g4xx_hal_flash_ex.c ****       *PCROPEndAddr = (reg_value << 4) + FLASH_BASE;
 2847              		.loc 1 1358 34
 2848 00a2 7B69     		ldr	r3, [r7, #20]
 2849 00a4 1B01     		lsls	r3, r3, #4
 2850              		.loc 1 1358 40
 2851 00a6 03F10062 		add	r2, r3, #134217728
 2852              		.loc 1 1358 21
 2853 00aa 7B68     		ldr	r3, [r7, #4]
 2854 00ac 1A60     		str	r2, [r3]
 2855 00ae 55E0     		b	.L181
 2856              	.L180:
1359:Drivers/STM32G4xx_HAL_Driver/Src/stm32g4xx_hal_flash_ex.c ****     }
1360:Drivers/STM32G4xx_HAL_Driver/Src/stm32g4xx_hal_flash_ex.c ****     else if (((*PCROPConfig) & FLASH_BANK_BOTH) == FLASH_BANK_2)
 2857              		.loc 1 1360 16
 2858 00b0 FB68     		ldr	r3, [r7, #12]
 2859 00b2 1B68     		ldr	r3, [r3]
 2860              		.loc 1 1360 30
 2861 00b4 03F00303 		and	r3, r3, #3
 2862              		.loc 1 1360 13
 2863 00b8 022B     		cmp	r3, #2
 2864 00ba 4FD1     		bne	.L181
1361:Drivers/STM32G4xx_HAL_Driver/Src/stm32g4xx_hal_flash_ex.c ****     {
1362:Drivers/STM32G4xx_HAL_Driver/Src/stm32g4xx_hal_flash_ex.c ****       reg_value       = (READ_REG(FLASH->PCROP2SR) & FLASH_PCROP2SR_PCROP2_STRT);
 2865              		.loc 1 1362 26
 2866 00bc 334B     		ldr	r3, .L183+16
 2867 00be 5B6C     		ldr	r3, [r3, #68]
 2868              		.loc 1 1362 23
 2869 00c0 C3F30E03 		ubfx	r3, r3, #0, #15
 2870 00c4 7B61     		str	r3, [r7, #20]
1363:Drivers/STM32G4xx_HAL_Driver/Src/stm32g4xx_hal_flash_ex.c ****       *PCROPStartAddr = (reg_value << 4) + FLASH_BASE;
 2871              		.loc 1 1363 36
ARM GAS  /tmp/cc1VkgmM.s 			page 75


 2872 00c6 7B69     		ldr	r3, [r7, #20]
 2873 00c8 1B01     		lsls	r3, r3, #4
 2874              		.loc 1 1363 42
 2875 00ca 03F10062 		add	r2, r3, #134217728
 2876              		.loc 1 1363 23
 2877 00ce BB68     		ldr	r3, [r7, #8]
 2878 00d0 1A60     		str	r2, [r3]
1364:Drivers/STM32G4xx_HAL_Driver/Src/stm32g4xx_hal_flash_ex.c **** 
1365:Drivers/STM32G4xx_HAL_Driver/Src/stm32g4xx_hal_flash_ex.c ****       reg_value     = (READ_REG(FLASH->PCROP2ER) & FLASH_PCROP2ER_PCROP2_END);
 2879              		.loc 1 1365 24
