ARM GAS  /tmp/cclQbFqw.s 			page 1


   1              		.cpu cortex-m4
   2              		.eabi_attribute 27, 1
   3              		.eabi_attribute 28, 1
   4              		.eabi_attribute 20, 1
   5              		.eabi_attribute 21, 1
   6              		.eabi_attribute 23, 3
   7              		.eabi_attribute 24, 1
   8              		.eabi_attribute 25, 1
   9              		.eabi_attribute 26, 1
  10              		.eabi_attribute 30, 6
  11              		.eabi_attribute 34, 1
  12              		.eabi_attribute 18, 4
  13              		.file	"stm32g4xx_hal_hrtim.c"
  14              		.text
  15              	.Ltext0:
  16              		.cfi_sections	.debug_frame
  17              		.section	.data.TimerIdxToTimerId,"aw"
  18              		.align	2
  21              	TimerIdxToTimerId:
  22 0000 00000200 		.word	131072
  23 0004 00000400 		.word	262144
  24 0008 00000800 		.word	524288
  25 000c 00001000 		.word	1048576
  26 0010 00002000 		.word	2097152
  27 0014 00004000 		.word	4194304
  28 0018 00000100 		.word	65536
  29              		.section	.text.HAL_HRTIM_Init,"ax",%progbits
  30              		.align	1
  31              		.global	HAL_HRTIM_Init
  32              		.arch armv7e-m
  33              		.syntax unified
  34              		.thumb
  35              		.thumb_func
  36              		.fpu fpv4-sp-d16
  38              	HAL_HRTIM_Init:
  39              	.LFB325:
  40              		.file 1 "Drivers/STM32G4xx_HAL_Driver/Src/stm32g4xx_hal_hrtim.c"
   1:Drivers/STM32G4xx_HAL_Driver/Src/stm32g4xx_hal_hrtim.c **** /**
   2:Drivers/STM32G4xx_HAL_Driver/Src/stm32g4xx_hal_hrtim.c ****   ******************************************************************************
   3:Drivers/STM32G4xx_HAL_Driver/Src/stm32g4xx_hal_hrtim.c ****   * @file    stm32g4xx_hal_hrtim.c
   4:Drivers/STM32G4xx_HAL_Driver/Src/stm32g4xx_hal_hrtim.c ****   * @author  MCD Application Team
   5:Drivers/STM32G4xx_HAL_Driver/Src/stm32g4xx_hal_hrtim.c ****   * @brief   TIM HAL module driver.
   6:Drivers/STM32G4xx_HAL_Driver/Src/stm32g4xx_hal_hrtim.c ****   *          This file provides firmware functions to manage the following
   7:Drivers/STM32G4xx_HAL_Driver/Src/stm32g4xx_hal_hrtim.c ****   *          functionalities of the High Resolution Timer (HRTIM) peripheral:
   8:Drivers/STM32G4xx_HAL_Driver/Src/stm32g4xx_hal_hrtim.c ****   *           + HRTIM Initialization
   9:Drivers/STM32G4xx_HAL_Driver/Src/stm32g4xx_hal_hrtim.c ****   *           + DLL Calibration Start
  10:Drivers/STM32G4xx_HAL_Driver/Src/stm32g4xx_hal_hrtim.c ****   *           + Timer Time Base Unit Configuration
  11:Drivers/STM32G4xx_HAL_Driver/Src/stm32g4xx_hal_hrtim.c ****   *           + Simple Time Base Start/Stop
  12:Drivers/STM32G4xx_HAL_Driver/Src/stm32g4xx_hal_hrtim.c ****   *           + Simple Time Base Start/Stop Interrupt
  13:Drivers/STM32G4xx_HAL_Driver/Src/stm32g4xx_hal_hrtim.c ****   *           + Simple Time Base Start/Stop DMA Request
  14:Drivers/STM32G4xx_HAL_Driver/Src/stm32g4xx_hal_hrtim.c ****   *           + Simple Output Compare/PWM Channel Configuration
  15:Drivers/STM32G4xx_HAL_Driver/Src/stm32g4xx_hal_hrtim.c ****   *           + Simple Output Compare/PWM Channel Start/Stop Interrupt
  16:Drivers/STM32G4xx_HAL_Driver/Src/stm32g4xx_hal_hrtim.c ****   *           + Simple Output Compare/PWM Channel Start/Stop DMA Request
  17:Drivers/STM32G4xx_HAL_Driver/Src/stm32g4xx_hal_hrtim.c ****   *           + Simple Input Capture Channel Configuration
  18:Drivers/STM32G4xx_HAL_Driver/Src/stm32g4xx_hal_hrtim.c ****   *           + Simple Input Capture Channel Start/Stop Interrupt
  19:Drivers/STM32G4xx_HAL_Driver/Src/stm32g4xx_hal_hrtim.c ****   *           + Simple Input Capture Channel Start/Stop DMA Request
  20:Drivers/STM32G4xx_HAL_Driver/Src/stm32g4xx_hal_hrtim.c ****   *           + Simple One Pulse Channel Configuration
ARM GAS  /tmp/cclQbFqw.s 			page 2


  21:Drivers/STM32G4xx_HAL_Driver/Src/stm32g4xx_hal_hrtim.c ****   *           + Simple One Pulse Channel Start/Stop Interrupt
  22:Drivers/STM32G4xx_HAL_Driver/Src/stm32g4xx_hal_hrtim.c ****   *           + HRTIM External Synchronization Configuration
  23:Drivers/STM32G4xx_HAL_Driver/Src/stm32g4xx_hal_hrtim.c ****   *           + HRTIM Burst Mode Controller Configuration
  24:Drivers/STM32G4xx_HAL_Driver/Src/stm32g4xx_hal_hrtim.c ****   *           + HRTIM Burst Mode Controller Enabling
  25:Drivers/STM32G4xx_HAL_Driver/Src/stm32g4xx_hal_hrtim.c ****   *           + HRTIM External Events Conditioning Configuration
  26:Drivers/STM32G4xx_HAL_Driver/Src/stm32g4xx_hal_hrtim.c ****   *           + HRTIM Faults Conditioning Configuration
  27:Drivers/STM32G4xx_HAL_Driver/Src/stm32g4xx_hal_hrtim.c ****   *           + HRTIM Faults Enabling
  28:Drivers/STM32G4xx_HAL_Driver/Src/stm32g4xx_hal_hrtim.c ****   *           + HRTIM ADC trigger Configuration
  29:Drivers/STM32G4xx_HAL_Driver/Src/stm32g4xx_hal_hrtim.c ****   *           + Waveform Timer Configuration
  30:Drivers/STM32G4xx_HAL_Driver/Src/stm32g4xx_hal_hrtim.c ****   *           + Waveform Event Filtering Configuration
  31:Drivers/STM32G4xx_HAL_Driver/Src/stm32g4xx_hal_hrtim.c ****   *           + Waveform Dead Time Insertion Configuration
  32:Drivers/STM32G4xx_HAL_Driver/Src/stm32g4xx_hal_hrtim.c ****   *           + Waveform Chopper Mode Configuration
  33:Drivers/STM32G4xx_HAL_Driver/Src/stm32g4xx_hal_hrtim.c ****   *           + Waveform Compare Unit Configuration
  34:Drivers/STM32G4xx_HAL_Driver/Src/stm32g4xx_hal_hrtim.c ****   *           + Waveform Capture Unit Configuration
  35:Drivers/STM32G4xx_HAL_Driver/Src/stm32g4xx_hal_hrtim.c ****   *           + Waveform Output Configuration
  36:Drivers/STM32G4xx_HAL_Driver/Src/stm32g4xx_hal_hrtim.c ****   *           + Waveform Counter Start/Stop
  37:Drivers/STM32G4xx_HAL_Driver/Src/stm32g4xx_hal_hrtim.c ****   *           + Waveform Counter Start/Stop Interrupt
  38:Drivers/STM32G4xx_HAL_Driver/Src/stm32g4xx_hal_hrtim.c ****   *           + Waveform Counter Start/Stop DMA Request
  39:Drivers/STM32G4xx_HAL_Driver/Src/stm32g4xx_hal_hrtim.c ****   *           + Waveform Output Enabling
  40:Drivers/STM32G4xx_HAL_Driver/Src/stm32g4xx_hal_hrtim.c ****   *           + Waveform Output Level Set/Get
  41:Drivers/STM32G4xx_HAL_Driver/Src/stm32g4xx_hal_hrtim.c ****   *           + Waveform Output State Get
  42:Drivers/STM32G4xx_HAL_Driver/Src/stm32g4xx_hal_hrtim.c ****   *           + Waveform Burst DMA Operation Configuration
  43:Drivers/STM32G4xx_HAL_Driver/Src/stm32g4xx_hal_hrtim.c ****   *           + Waveform Burst DMA Operation Start
  44:Drivers/STM32G4xx_HAL_Driver/Src/stm32g4xx_hal_hrtim.c ****   *           + Waveform Timer Counter Software Reset
  45:Drivers/STM32G4xx_HAL_Driver/Src/stm32g4xx_hal_hrtim.c ****   *           + Waveform Capture Software Trigger
  46:Drivers/STM32G4xx_HAL_Driver/Src/stm32g4xx_hal_hrtim.c ****   *           + Waveform Burst Mode Controller Software Trigger
  47:Drivers/STM32G4xx_HAL_Driver/Src/stm32g4xx_hal_hrtim.c ****   *           + Waveform Timer Pre-loadable Registers Update Enabling
  48:Drivers/STM32G4xx_HAL_Driver/Src/stm32g4xx_hal_hrtim.c ****   *           + Waveform Timer Pre-loadable Registers Software Update
  49:Drivers/STM32G4xx_HAL_Driver/Src/stm32g4xx_hal_hrtim.c ****   *           + Waveform Timer Delayed Protection Status Get
  50:Drivers/STM32G4xx_HAL_Driver/Src/stm32g4xx_hal_hrtim.c ****   *           + Waveform Timer Burst Status Get
  51:Drivers/STM32G4xx_HAL_Driver/Src/stm32g4xx_hal_hrtim.c ****   *           + Waveform Timer Push-Pull Status Get
  52:Drivers/STM32G4xx_HAL_Driver/Src/stm32g4xx_hal_hrtim.c ****   *           + Peripheral State Get
  53:Drivers/STM32G4xx_HAL_Driver/Src/stm32g4xx_hal_hrtim.c ****   @verbatim
  54:Drivers/STM32G4xx_HAL_Driver/Src/stm32g4xx_hal_hrtim.c **** ==============================================================================
  55:Drivers/STM32G4xx_HAL_Driver/Src/stm32g4xx_hal_hrtim.c ****                       ##### Simple mode v.s. waveform mode #####
  56:Drivers/STM32G4xx_HAL_Driver/Src/stm32g4xx_hal_hrtim.c **** ==============================================================================
  57:Drivers/STM32G4xx_HAL_Driver/Src/stm32g4xx_hal_hrtim.c ****   [..] The HRTIM HAL API is split into 2 categories:
  58:Drivers/STM32G4xx_HAL_Driver/Src/stm32g4xx_hal_hrtim.c ****     (#)Simple functions: these functions allow for using a HRTIM timer as a
  59:Drivers/STM32G4xx_HAL_Driver/Src/stm32g4xx_hal_hrtim.c ****        general purpose timer with high resolution capabilities.
  60:Drivers/STM32G4xx_HAL_Driver/Src/stm32g4xx_hal_hrtim.c ****        HRTIM simple modes are managed through the set of functions named
  61:Drivers/STM32G4xx_HAL_Driver/Src/stm32g4xx_hal_hrtim.c ****        HAL_HRTIM_Simple<Function>. These functions are similar in name and usage
  62:Drivers/STM32G4xx_HAL_Driver/Src/stm32g4xx_hal_hrtim.c ****        to the one defined for the TIM peripheral. When a HRTIM timer operates in
  63:Drivers/STM32G4xx_HAL_Driver/Src/stm32g4xx_hal_hrtim.c ****        simple mode, only a very limited set of HRTIM features are used.
  64:Drivers/STM32G4xx_HAL_Driver/Src/stm32g4xx_hal_hrtim.c ****        Following simple modes are proposed:
  65:Drivers/STM32G4xx_HAL_Driver/Src/stm32g4xx_hal_hrtim.c ****          (++)Output compare mode,
  66:Drivers/STM32G4xx_HAL_Driver/Src/stm32g4xx_hal_hrtim.c ****          (++)PWM output mode,
  67:Drivers/STM32G4xx_HAL_Driver/Src/stm32g4xx_hal_hrtim.c ****          (++)Input capture mode,
  68:Drivers/STM32G4xx_HAL_Driver/Src/stm32g4xx_hal_hrtim.c ****          (++)One pulse mode.
  69:Drivers/STM32G4xx_HAL_Driver/Src/stm32g4xx_hal_hrtim.c ****     (#)Waveform functions: These functions allow taking advantage of the HRTIM
  70:Drivers/STM32G4xx_HAL_Driver/Src/stm32g4xx_hal_hrtim.c ****        flexibility to produce numerous types of control signal. When a HRTIM timer
  71:Drivers/STM32G4xx_HAL_Driver/Src/stm32g4xx_hal_hrtim.c ****        operates in waveform mode, all the HRTIM features are accessible without
  72:Drivers/STM32G4xx_HAL_Driver/Src/stm32g4xx_hal_hrtim.c ****        any restriction. HRTIM waveform modes are managed through the set of
  73:Drivers/STM32G4xx_HAL_Driver/Src/stm32g4xx_hal_hrtim.c ****        functions named HAL_HRTIM_Waveform<Function>
  74:Drivers/STM32G4xx_HAL_Driver/Src/stm32g4xx_hal_hrtim.c ****                       ##### How to use this driver #####
  75:Drivers/STM32G4xx_HAL_Driver/Src/stm32g4xx_hal_hrtim.c **** ==============================================================================
  76:Drivers/STM32G4xx_HAL_Driver/Src/stm32g4xx_hal_hrtim.c ****     [..]
  77:Drivers/STM32G4xx_HAL_Driver/Src/stm32g4xx_hal_hrtim.c ****      (#)Initialize the HRTIM low level resources by implementing the
ARM GAS  /tmp/cclQbFqw.s 			page 3


  78:Drivers/STM32G4xx_HAL_Driver/Src/stm32g4xx_hal_hrtim.c ****         HAL_HRTIM_MspInit() function:
  79:Drivers/STM32G4xx_HAL_Driver/Src/stm32g4xx_hal_hrtim.c ****         (##)Enable the HRTIM clock source using __HRTIMx_CLK_ENABLE()
  80:Drivers/STM32G4xx_HAL_Driver/Src/stm32g4xx_hal_hrtim.c ****         (##)Connect HRTIM pins to MCU I/Os
  81:Drivers/STM32G4xx_HAL_Driver/Src/stm32g4xx_hal_hrtim.c ****             (+++) Enable the clock for the HRTIM GPIOs using the following
  82:Drivers/STM32G4xx_HAL_Driver/Src/stm32g4xx_hal_hrtim.c ****                   function: __HAL_RCC_GPIOx_CLK_ENABLE()
  83:Drivers/STM32G4xx_HAL_Driver/Src/stm32g4xx_hal_hrtim.c ****             (+++) Configure these GPIO pins in Alternate Function mode using
  84:Drivers/STM32G4xx_HAL_Driver/Src/stm32g4xx_hal_hrtim.c ****                   HAL_GPIO_Init()
  85:Drivers/STM32G4xx_HAL_Driver/Src/stm32g4xx_hal_hrtim.c ****         (##)When using DMA to control data transfer (e.g HAL_HRTIM_SimpleBaseStart_DMA())
  86:Drivers/STM32G4xx_HAL_Driver/Src/stm32g4xx_hal_hrtim.c ****             (+++)Enable the DMAx interface clock using __DMAx_CLK_ENABLE()
  87:Drivers/STM32G4xx_HAL_Driver/Src/stm32g4xx_hal_hrtim.c ****             (+++)Initialize the DMA handle
  88:Drivers/STM32G4xx_HAL_Driver/Src/stm32g4xx_hal_hrtim.c ****             (+++)Associate the initialized DMA handle to the appropriate DMA
  89:Drivers/STM32G4xx_HAL_Driver/Src/stm32g4xx_hal_hrtim.c ****                  handle of the HRTIM handle using __HAL_LINKDMA()
  90:Drivers/STM32G4xx_HAL_Driver/Src/stm32g4xx_hal_hrtim.c ****             (+++)Initialize the DMA channel using HAL_DMA_Init()
  91:Drivers/STM32G4xx_HAL_Driver/Src/stm32g4xx_hal_hrtim.c ****             (+++)Configure the priority and enable the NVIC for the transfer
  92:Drivers/STM32G4xx_HAL_Driver/Src/stm32g4xx_hal_hrtim.c ****                  complete interrupt on the DMA channel using HAL_NVIC_SetPriority()
  93:Drivers/STM32G4xx_HAL_Driver/Src/stm32g4xx_hal_hrtim.c ****                  and HAL_NVIC_EnableIRQ()
  94:Drivers/STM32G4xx_HAL_Driver/Src/stm32g4xx_hal_hrtim.c ****         (##)In case of using interrupt mode (e.g HAL_HRTIM_SimpleBaseStart_IT())
  95:Drivers/STM32G4xx_HAL_Driver/Src/stm32g4xx_hal_hrtim.c ****             (+++)Configure the priority and enable the NVIC for the concerned
  96:Drivers/STM32G4xx_HAL_Driver/Src/stm32g4xx_hal_hrtim.c ****                  HRTIM interrupt using HAL_NVIC_SetPriority() and HAL_NVIC_EnableIRQ()
  97:Drivers/STM32G4xx_HAL_Driver/Src/stm32g4xx_hal_hrtim.c **** 
  98:Drivers/STM32G4xx_HAL_Driver/Src/stm32g4xx_hal_hrtim.c ****     (#)Initialize the HRTIM HAL using HAL_HRTIM_Init(). The HRTIM configuration
  99:Drivers/STM32G4xx_HAL_Driver/Src/stm32g4xx_hal_hrtim.c ****        structure (field of the HRTIM handle) specifies which global interrupt of
 100:Drivers/STM32G4xx_HAL_Driver/Src/stm32g4xx_hal_hrtim.c ****        whole HRTIM must be enabled (Burst mode period, System fault, Faults).
 101:Drivers/STM32G4xx_HAL_Driver/Src/stm32g4xx_hal_hrtim.c ****        It also contains the HRTIM external synchronization configuration. HRTIM
 102:Drivers/STM32G4xx_HAL_Driver/Src/stm32g4xx_hal_hrtim.c ****        can act as a master (generating a synchronization signal) or as a slave
 103:Drivers/STM32G4xx_HAL_Driver/Src/stm32g4xx_hal_hrtim.c ****        (waiting for a trigger to be synchronized).
 104:Drivers/STM32G4xx_HAL_Driver/Src/stm32g4xx_hal_hrtim.c **** 
 105:Drivers/STM32G4xx_HAL_Driver/Src/stm32g4xx_hal_hrtim.c ****     (#)Start the high resolution unit using HAL_HRTIM_DLLCalibrationStart(). DLL
 106:Drivers/STM32G4xx_HAL_Driver/Src/stm32g4xx_hal_hrtim.c ****        calibration is executed periodically and compensate for potential voltage
 107:Drivers/STM32G4xx_HAL_Driver/Src/stm32g4xx_hal_hrtim.c ****        and temperature drifts. DLL calibration period is specified by the
 108:Drivers/STM32G4xx_HAL_Driver/Src/stm32g4xx_hal_hrtim.c ****        CalibrationRate argument.
 109:Drivers/STM32G4xx_HAL_Driver/Src/stm32g4xx_hal_hrtim.c **** 
 110:Drivers/STM32G4xx_HAL_Driver/Src/stm32g4xx_hal_hrtim.c ****     (#)HRTIM timers cannot be used until the high resolution unit is ready. This
 111:Drivers/STM32G4xx_HAL_Driver/Src/stm32g4xx_hal_hrtim.c ****        can be checked using HAL_HRTIM_PollForDLLCalibration(): this function returns
 112:Drivers/STM32G4xx_HAL_Driver/Src/stm32g4xx_hal_hrtim.c ****        HAL_OK if DLL calibration is completed or HAL_TIMEOUT if the DLL calibration
 113:Drivers/STM32G4xx_HAL_Driver/Src/stm32g4xx_hal_hrtim.c ****        is still going on when timeout given as argument expires. DLL calibration
 114:Drivers/STM32G4xx_HAL_Driver/Src/stm32g4xx_hal_hrtim.c ****        can also be started in interrupt mode using HAL_HRTIM_DLLCalibrationStart_IT().
 115:Drivers/STM32G4xx_HAL_Driver/Src/stm32g4xx_hal_hrtim.c ****        In that case an interrupt is generated when the DLL calibration is completed.
 116:Drivers/STM32G4xx_HAL_Driver/Src/stm32g4xx_hal_hrtim.c ****        Note that as DLL calibration is executed on a periodic basis an interrupt
 117:Drivers/STM32G4xx_HAL_Driver/Src/stm32g4xx_hal_hrtim.c ****        will be generated at the end of every DLL calibration operation
 118:Drivers/STM32G4xx_HAL_Driver/Src/stm32g4xx_hal_hrtim.c ****       (worst case: one interrupt every 14 micro seconds !).
 119:Drivers/STM32G4xx_HAL_Driver/Src/stm32g4xx_hal_hrtim.c **** 
 120:Drivers/STM32G4xx_HAL_Driver/Src/stm32g4xx_hal_hrtim.c ****      (#) Configure HRTIM resources shared by all HRTIM timers
 121:Drivers/STM32G4xx_HAL_Driver/Src/stm32g4xx_hal_hrtim.c ****         (##)Burst Mode Controller:
 122:Drivers/STM32G4xx_HAL_Driver/Src/stm32g4xx_hal_hrtim.c ****                 (+++)HAL_HRTIM_BurstModeConfig(): configures the HRTIM burst mode
 123:Drivers/STM32G4xx_HAL_Driver/Src/stm32g4xx_hal_hrtim.c ****                      controller: operating mode (continuous or one-shot mode), clock
 124:Drivers/STM32G4xx_HAL_Driver/Src/stm32g4xx_hal_hrtim.c ****                      (source, prescaler) , trigger(s), period, idle duration.
 125:Drivers/STM32G4xx_HAL_Driver/Src/stm32g4xx_hal_hrtim.c ****         (##)External Events Conditioning:
 126:Drivers/STM32G4xx_HAL_Driver/Src/stm32g4xx_hal_hrtim.c ****                 (+++)HAL_HRTIM_EventConfig(): configures the conditioning of an
 127:Drivers/STM32G4xx_HAL_Driver/Src/stm32g4xx_hal_hrtim.c ****                      external event channel: source, polarity, edge-sensitivity.
 128:Drivers/STM32G4xx_HAL_Driver/Src/stm32g4xx_hal_hrtim.c ****                      External event can be used as triggers (timer reset, input
 129:Drivers/STM32G4xx_HAL_Driver/Src/stm32g4xx_hal_hrtim.c ****                      capture, burst mode, ADC triggers, delayed protection)
 130:Drivers/STM32G4xx_HAL_Driver/Src/stm32g4xx_hal_hrtim.c ****                      They can also be used to set or reset timer outputs. Up to
 131:Drivers/STM32G4xx_HAL_Driver/Src/stm32g4xx_hal_hrtim.c ****                      10 event channels are available.
 132:Drivers/STM32G4xx_HAL_Driver/Src/stm32g4xx_hal_hrtim.c ****                 (+++)HAL_HRTIM_EventPrescalerConfig(): configures the external
 133:Drivers/STM32G4xx_HAL_Driver/Src/stm32g4xx_hal_hrtim.c ****                      event sampling clock (used for digital filtering).
 134:Drivers/STM32G4xx_HAL_Driver/Src/stm32g4xx_hal_hrtim.c ****         (##)Fault Conditioning:
ARM GAS  /tmp/cclQbFqw.s 			page 4


 135:Drivers/STM32G4xx_HAL_Driver/Src/stm32g4xx_hal_hrtim.c ****                 (+++)HAL_HRTIM_FaultConfig(): configures the conditioning of a
 136:Drivers/STM32G4xx_HAL_Driver/Src/stm32g4xx_hal_hrtim.c ****                      fault channel: source, polarity, edge-sensitivity. Fault
 137:Drivers/STM32G4xx_HAL_Driver/Src/stm32g4xx_hal_hrtim.c ****                      channels are used to disable the outputs in case of an
 138:Drivers/STM32G4xx_HAL_Driver/Src/stm32g4xx_hal_hrtim.c ****                      abnormal operation. Up to 6 fault channels are available.
 139:Drivers/STM32G4xx_HAL_Driver/Src/stm32g4xx_hal_hrtim.c ****                 (+++)HAL_HRTIM_FaultPrescalerConfig(): configures the fault
 140:Drivers/STM32G4xx_HAL_Driver/Src/stm32g4xx_hal_hrtim.c ****                      sampling clock (used for digital filtering).
 141:Drivers/STM32G4xx_HAL_Driver/Src/stm32g4xx_hal_hrtim.c ****                 (+++)HAL_HRTIM_FaultModeCtl(): Enables or disables fault input(s)
 142:Drivers/STM32G4xx_HAL_Driver/Src/stm32g4xx_hal_hrtim.c ****                      circuitry. By default all fault inputs are disabled.
 143:Drivers/STM32G4xx_HAL_Driver/Src/stm32g4xx_hal_hrtim.c ****         (##)ADC trigger:
 144:Drivers/STM32G4xx_HAL_Driver/Src/stm32g4xx_hal_hrtim.c ****                 (+++)HAL_HRTIM_ADCTriggerConfig(): configures the source triggering
 145:Drivers/STM32G4xx_HAL_Driver/Src/stm32g4xx_hal_hrtim.c ****                      the update of the ADC trigger register and the ADC trigger.
 146:Drivers/STM32G4xx_HAL_Driver/Src/stm32g4xx_hal_hrtim.c ****                      4 independent triggers are available to start both the regular
 147:Drivers/STM32G4xx_HAL_Driver/Src/stm32g4xx_hal_hrtim.c ****                      and the injected sequencers of the 2 ADCs
 148:Drivers/STM32G4xx_HAL_Driver/Src/stm32g4xx_hal_hrtim.c **** 
 149:Drivers/STM32G4xx_HAL_Driver/Src/stm32g4xx_hal_hrtim.c ****      (#) Configure HRTIM timer time base using HAL_HRTIM_TimeBaseConfig(). This
 150:Drivers/STM32G4xx_HAL_Driver/Src/stm32g4xx_hal_hrtim.c ****          function must be called whatever the HRTIM timer operating mode is
 151:Drivers/STM32G4xx_HAL_Driver/Src/stm32g4xx_hal_hrtim.c ****          (simple v.s. waveform). It configures mainly:
 152:Drivers/STM32G4xx_HAL_Driver/Src/stm32g4xx_hal_hrtim.c ****         (##)The HRTIM  timer counter operating mode (continuous v.s. one shot)
 153:Drivers/STM32G4xx_HAL_Driver/Src/stm32g4xx_hal_hrtim.c ****         (##)The HRTIM  timer clock prescaler
 154:Drivers/STM32G4xx_HAL_Driver/Src/stm32g4xx_hal_hrtim.c ****         (##)The HRTIM  timer period
 155:Drivers/STM32G4xx_HAL_Driver/Src/stm32g4xx_hal_hrtim.c ****         (##)The HRTIM  timer repetition counter
 156:Drivers/STM32G4xx_HAL_Driver/Src/stm32g4xx_hal_hrtim.c **** 
 157:Drivers/STM32G4xx_HAL_Driver/Src/stm32g4xx_hal_hrtim.c ****      *** If the HRTIM timer operates in simple mode ***
 158:Drivers/STM32G4xx_HAL_Driver/Src/stm32g4xx_hal_hrtim.c ****      ===================================================
 159:Drivers/STM32G4xx_HAL_Driver/Src/stm32g4xx_hal_hrtim.c ****      [..]
 160:Drivers/STM32G4xx_HAL_Driver/Src/stm32g4xx_hal_hrtim.c ****      (#) Start or Stop simple timers
 161:Drivers/STM32G4xx_HAL_Driver/Src/stm32g4xx_hal_hrtim.c ****               (++)Simple time base: HAL_HRTIM_SimpleBaseStart(),HAL_HRTIM_SimpleBaseStop(),
 162:Drivers/STM32G4xx_HAL_Driver/Src/stm32g4xx_hal_hrtim.c ****                   HAL_HRTIM_SimpleBaseStart_IT(),HAL_HRTIM_SimpleBaseStop_IT(),
 163:Drivers/STM32G4xx_HAL_Driver/Src/stm32g4xx_hal_hrtim.c ****                   HAL_HRTIM_SimpleBaseStart_DMA(),HAL_HRTIM_SimpleBaseStop_DMA().
 164:Drivers/STM32G4xx_HAL_Driver/Src/stm32g4xx_hal_hrtim.c ****               (++)Simple output compare: HAL_HRTIM_SimpleOCChannelConfig(),
 165:Drivers/STM32G4xx_HAL_Driver/Src/stm32g4xx_hal_hrtim.c ****                   HAL_HRTIM_SimpleOCStart(),HAL_HRTIM_SimpleOCStop(),
 166:Drivers/STM32G4xx_HAL_Driver/Src/stm32g4xx_hal_hrtim.c ****                   HAL_HRTIM_SimpleOCStart_IT(),HAL_HRTIM_SimpleOCStop_IT(),
 167:Drivers/STM32G4xx_HAL_Driver/Src/stm32g4xx_hal_hrtim.c ****                   HAL_HRTIM_SimpleOCStart_DMA(),HAL_HRTIM_SimpleOCStop_DMA(),
 168:Drivers/STM32G4xx_HAL_Driver/Src/stm32g4xx_hal_hrtim.c ****               (++)Simple PWM output: HAL_HRTIM_SimplePWMChannelConfig(),
 169:Drivers/STM32G4xx_HAL_Driver/Src/stm32g4xx_hal_hrtim.c ****                   HAL_HRTIM_SimplePWMStart(),HAL_HRTIM_SimplePWMStop(),
 170:Drivers/STM32G4xx_HAL_Driver/Src/stm32g4xx_hal_hrtim.c ****                   HAL_HRTIM_SimplePWMStart_IT(),HAL_HRTIM_SimplePWMStop_IT(),
 171:Drivers/STM32G4xx_HAL_Driver/Src/stm32g4xx_hal_hrtim.c ****                   HAL_HRTIM_SimplePWMStart_DMA(),HAL_HRTIM_SimplePWMStop_DMA(),
 172:Drivers/STM32G4xx_HAL_Driver/Src/stm32g4xx_hal_hrtim.c ****               (++)Simple input capture: HAL_HRTIM_SimpleCaptureChannelConfig(),
 173:Drivers/STM32G4xx_HAL_Driver/Src/stm32g4xx_hal_hrtim.c ****                   HAL_HRTIM_SimpleCaptureStart(),HAL_HRTIM_SimpleCaptureStop(),
 174:Drivers/STM32G4xx_HAL_Driver/Src/stm32g4xx_hal_hrtim.c ****                   HAL_HRTIM_SimpleCaptureStart_IT(),HAL_HRTIM_SimpleCaptureStop_IT(),
 175:Drivers/STM32G4xx_HAL_Driver/Src/stm32g4xx_hal_hrtim.c ****                   HAL_HRTIM_SimpleCaptureStart_DMA(),HAL_HRTIM_SimpleCaptureStop_DMA().
 176:Drivers/STM32G4xx_HAL_Driver/Src/stm32g4xx_hal_hrtim.c ****               (++)Simple one pulse: HAL_HRTIM_SimpleOnePulseChannelConfig(),
 177:Drivers/STM32G4xx_HAL_Driver/Src/stm32g4xx_hal_hrtim.c ****                   HAL_HRTIM_SimpleOnePulseStart(),HAL_HRTIM_SimpleOnePulseStop(),
 178:Drivers/STM32G4xx_HAL_Driver/Src/stm32g4xx_hal_hrtim.c ****                   HAL_HRTIM_SimpleOnePulseStart_IT(),HAL_HRTIM_SimpleOnePulseStop_It().
 179:Drivers/STM32G4xx_HAL_Driver/Src/stm32g4xx_hal_hrtim.c **** 
 180:Drivers/STM32G4xx_HAL_Driver/Src/stm32g4xx_hal_hrtim.c ****      *** If the HRTIM timer operates in waveform mode ***
 181:Drivers/STM32G4xx_HAL_Driver/Src/stm32g4xx_hal_hrtim.c ****      ====================================================
 182:Drivers/STM32G4xx_HAL_Driver/Src/stm32g4xx_hal_hrtim.c ****      [..]
 183:Drivers/STM32G4xx_HAL_Driver/Src/stm32g4xx_hal_hrtim.c ****      (#) Completes waveform timer configuration
 184:Drivers/STM32G4xx_HAL_Driver/Src/stm32g4xx_hal_hrtim.c ****               (++)HAL_HRTIM_WaveformTimerConfig(): configuration of a HRTIM timer
 185:Drivers/STM32G4xx_HAL_Driver/Src/stm32g4xx_hal_hrtim.c ****                   operating in wave form mode mainly consists in:
 186:Drivers/STM32G4xx_HAL_Driver/Src/stm32g4xx_hal_hrtim.c ****                 (+++)Enabling the HRTIM timer interrupts and DMA requests.
 187:Drivers/STM32G4xx_HAL_Driver/Src/stm32g4xx_hal_hrtim.c ****                 (+++)Enabling the half mode for the HRTIM timer.
 188:Drivers/STM32G4xx_HAL_Driver/Src/stm32g4xx_hal_hrtim.c ****                 (+++)Defining how the HRTIM timer reacts to external synchronization input.
 189:Drivers/STM32G4xx_HAL_Driver/Src/stm32g4xx_hal_hrtim.c ****                 (+++)Enabling the push-pull mode for the HRTIM timer.
 190:Drivers/STM32G4xx_HAL_Driver/Src/stm32g4xx_hal_hrtim.c ****                 (+++)Enabling the fault channels for the HRTIM timer.
 191:Drivers/STM32G4xx_HAL_Driver/Src/stm32g4xx_hal_hrtim.c ****                 (+++)Enabling the dead-time insertion for the HRTIM timer.
ARM GAS  /tmp/cclQbFqw.s 			page 5


 192:Drivers/STM32G4xx_HAL_Driver/Src/stm32g4xx_hal_hrtim.c ****                 (+++)Setting the delayed protection mode for the HRTIM timer (source and outputs
 193:Drivers/STM32G4xx_HAL_Driver/Src/stm32g4xx_hal_hrtim.c ****                      on which the delayed protection are applied).
 194:Drivers/STM32G4xx_HAL_Driver/Src/stm32g4xx_hal_hrtim.c ****                 (+++)Specifying the HRTIM timer update and reset triggers.
 195:Drivers/STM32G4xx_HAL_Driver/Src/stm32g4xx_hal_hrtim.c ****                 (+++)Specifying the HRTIM timer registers update policy (e.g. pre-load enabling).
 196:Drivers/STM32G4xx_HAL_Driver/Src/stm32g4xx_hal_hrtim.c ****               (++)HAL_HRTIM_TimerEventFilteringConfig(): configures external
 197:Drivers/STM32G4xx_HAL_Driver/Src/stm32g4xx_hal_hrtim.c ****                   event blanking and windowing circuitry of a HRTIM timer:
 198:Drivers/STM32G4xx_HAL_Driver/Src/stm32g4xx_hal_hrtim.c ****                 (+++)Blanking:  to mask external events during a defined  time period a defined tim
 199:Drivers/STM32G4xx_HAL_Driver/Src/stm32g4xx_hal_hrtim.c ****                 (+++)Windowing, to enable external events only during a defined time period
 200:Drivers/STM32G4xx_HAL_Driver/Src/stm32g4xx_hal_hrtim.c ****               (++)HAL_HRTIM_DeadTimeConfig(): configures the dead-time insertion
 201:Drivers/STM32G4xx_HAL_Driver/Src/stm32g4xx_hal_hrtim.c ****                   unit for a HRTIM timer. Allows to generate a couple of
 202:Drivers/STM32G4xx_HAL_Driver/Src/stm32g4xx_hal_hrtim.c ****                   complementary signals from a single reference waveform,
 203:Drivers/STM32G4xx_HAL_Driver/Src/stm32g4xx_hal_hrtim.c ****                   with programmable delays between active state.
 204:Drivers/STM32G4xx_HAL_Driver/Src/stm32g4xx_hal_hrtim.c ****               (++)HAL_HRTIM_ChopperModeConfig(): configures the parameters of
 205:Drivers/STM32G4xx_HAL_Driver/Src/stm32g4xx_hal_hrtim.c ****                   the high-frequency carrier signal added on top of the timing
 206:Drivers/STM32G4xx_HAL_Driver/Src/stm32g4xx_hal_hrtim.c ****                   unit output. Chopper mode can be enabled or disabled for each
 207:Drivers/STM32G4xx_HAL_Driver/Src/stm32g4xx_hal_hrtim.c ****                    timer output separately (see  HAL_HRTIM_WaveformOutputConfig()).
 208:Drivers/STM32G4xx_HAL_Driver/Src/stm32g4xx_hal_hrtim.c ****               (++)HAL_HRTIM_BurstDMAConfig(): configures the burst DMA burst
 209:Drivers/STM32G4xx_HAL_Driver/Src/stm32g4xx_hal_hrtim.c ****                   controller. Allows having multiple HRTIM registers updated
 210:Drivers/STM32G4xx_HAL_Driver/Src/stm32g4xx_hal_hrtim.c ****                   with a single DMA request. The burst DMA operation is started
 211:Drivers/STM32G4xx_HAL_Driver/Src/stm32g4xx_hal_hrtim.c ****                   by calling HAL_HRTIM_BurstDMATransfer().
 212:Drivers/STM32G4xx_HAL_Driver/Src/stm32g4xx_hal_hrtim.c ****               (++)HAL_HRTIM_WaveformCompareConfig():configures the compare unit
 213:Drivers/STM32G4xx_HAL_Driver/Src/stm32g4xx_hal_hrtim.c ****                   of a HRTIM timer. This operation consists in setting the
 214:Drivers/STM32G4xx_HAL_Driver/Src/stm32g4xx_hal_hrtim.c ****                   compare value and possibly specifying the auto delayed mode
 215:Drivers/STM32G4xx_HAL_Driver/Src/stm32g4xx_hal_hrtim.c ****                   for compare units 2 and 4 (allows to have compare events
 216:Drivers/STM32G4xx_HAL_Driver/Src/stm32g4xx_hal_hrtim.c ****                   generated relatively to capture events). Note that when auto
 217:Drivers/STM32G4xx_HAL_Driver/Src/stm32g4xx_hal_hrtim.c ****                   delayed mode is needed, the capture unit associated to the
 218:Drivers/STM32G4xx_HAL_Driver/Src/stm32g4xx_hal_hrtim.c ****                   compare unit must be configured separately.
 219:Drivers/STM32G4xx_HAL_Driver/Src/stm32g4xx_hal_hrtim.c ****               (++)HAL_HRTIM_WaveformCaptureConfig(): configures the capture unit
 220:Drivers/STM32G4xx_HAL_Driver/Src/stm32g4xx_hal_hrtim.c ****                   of a HRTIM timer. This operation consists in specifying the
 221:Drivers/STM32G4xx_HAL_Driver/Src/stm32g4xx_hal_hrtim.c ****                   source(s)  triggering the capture (timer register update event,
 222:Drivers/STM32G4xx_HAL_Driver/Src/stm32g4xx_hal_hrtim.c ****                   external event, timer output set/reset event, other HRTIM
 223:Drivers/STM32G4xx_HAL_Driver/Src/stm32g4xx_hal_hrtim.c ****                   timer related events).
 224:Drivers/STM32G4xx_HAL_Driver/Src/stm32g4xx_hal_hrtim.c ****               (++)HAL_HRTIM_WaveformOutputConfig(): configuration of a HRTIM timer
 225:Drivers/STM32G4xx_HAL_Driver/Src/stm32g4xx_hal_hrtim.c ****                   output mainly consists in:
 226:Drivers/STM32G4xx_HAL_Driver/Src/stm32g4xx_hal_hrtim.c ****                 (+++)Setting the output polarity (active high or active low),
 227:Drivers/STM32G4xx_HAL_Driver/Src/stm32g4xx_hal_hrtim.c ****                 (+++)Defining the set/reset crossbar for the output,
 228:Drivers/STM32G4xx_HAL_Driver/Src/stm32g4xx_hal_hrtim.c ****                 (+++)Specifying the fault level (active or inactive) in IDLE and FAULT states.,
 229:Drivers/STM32G4xx_HAL_Driver/Src/stm32g4xx_hal_hrtim.c **** 
 230:Drivers/STM32G4xx_HAL_Driver/Src/stm32g4xx_hal_hrtim.c ****      (#) Set waveform timer output(s) level
 231:Drivers/STM32G4xx_HAL_Driver/Src/stm32g4xx_hal_hrtim.c ****               (++)HAL_HRTIM_WaveformSetOutputLevel(): forces the output to its
 232:Drivers/STM32G4xx_HAL_Driver/Src/stm32g4xx_hal_hrtim.c ****                   active or inactive level. For example, when deadtime insertion
 233:Drivers/STM32G4xx_HAL_Driver/Src/stm32g4xx_hal_hrtim.c ****                   is enabled it is necessary to force the output level by software
 234:Drivers/STM32G4xx_HAL_Driver/Src/stm32g4xx_hal_hrtim.c ****                   to have the outputs in a complementary state as soon as the RUN mode is entered.
 235:Drivers/STM32G4xx_HAL_Driver/Src/stm32g4xx_hal_hrtim.c **** 
 236:Drivers/STM32G4xx_HAL_Driver/Src/stm32g4xx_hal_hrtim.c ****      (#) Enable or Disable waveform timer output(s)
 237:Drivers/STM32G4xx_HAL_Driver/Src/stm32g4xx_hal_hrtim.c ****               (++)HAL_HRTIM_WaveformOutputStart(),HAL_HRTIM_WaveformOutputStop().
 238:Drivers/STM32G4xx_HAL_Driver/Src/stm32g4xx_hal_hrtim.c **** 
 239:Drivers/STM32G4xx_HAL_Driver/Src/stm32g4xx_hal_hrtim.c ****      (#) Start or Stop waveform HRTIM timer(s).
 240:Drivers/STM32G4xx_HAL_Driver/Src/stm32g4xx_hal_hrtim.c ****               (++)HAL_HRTIM_WaveformCountStart(),HAL_HRTIM_WaveformCountStop(),
 241:Drivers/STM32G4xx_HAL_Driver/Src/stm32g4xx_hal_hrtim.c ****               (++)HAL_HRTIM_WaveformCountStart_IT(),HAL_HRTIM_WaveformCountStop_IT(),
 242:Drivers/STM32G4xx_HAL_Driver/Src/stm32g4xx_hal_hrtim.c ****               (++)HAL_HRTIM_WaveformCountStart_DMA(),HAL_HRTIM_WaveformCountStop_DMA(),
 243:Drivers/STM32G4xx_HAL_Driver/Src/stm32g4xx_hal_hrtim.c ****      (#) Burst mode controller enabling:
 244:Drivers/STM32G4xx_HAL_Driver/Src/stm32g4xx_hal_hrtim.c ****               (++)HAL_HRTIM_BurstModeCtl(): activates or de-activates the
 245:Drivers/STM32G4xx_HAL_Driver/Src/stm32g4xx_hal_hrtim.c ****                   burst mode controller.
 246:Drivers/STM32G4xx_HAL_Driver/Src/stm32g4xx_hal_hrtim.c **** 
 247:Drivers/STM32G4xx_HAL_Driver/Src/stm32g4xx_hal_hrtim.c ****      (#) Some HRTIM operations can be triggered by software:
 248:Drivers/STM32G4xx_HAL_Driver/Src/stm32g4xx_hal_hrtim.c ****               (++)HAL_HRTIM_BurstModeSoftwareTrigger(): calling this function
ARM GAS  /tmp/cclQbFqw.s 			page 6


 249:Drivers/STM32G4xx_HAL_Driver/Src/stm32g4xx_hal_hrtim.c ****                   trigs the burst operation.
 250:Drivers/STM32G4xx_HAL_Driver/Src/stm32g4xx_hal_hrtim.c ****               (++)HAL_HRTIM_SoftwareCapture(): calling this function trigs the
 251:Drivers/STM32G4xx_HAL_Driver/Src/stm32g4xx_hal_hrtim.c ****                   capture of the HRTIM timer counter.
 252:Drivers/STM32G4xx_HAL_Driver/Src/stm32g4xx_hal_hrtim.c ****               (++)HAL_HRTIM_SoftwareUpdate(): calling this function trigs the
 253:Drivers/STM32G4xx_HAL_Driver/Src/stm32g4xx_hal_hrtim.c ****                   update of the pre-loadable registers of the HRTIM timer
 254:Drivers/STM32G4xx_HAL_Driver/Src/stm32g4xx_hal_hrtim.c ****               (++)HAL_HRTIM_SoftwareReset():calling this function resets the
 255:Drivers/STM32G4xx_HAL_Driver/Src/stm32g4xx_hal_hrtim.c ****                   HRTIM timer counter.
 256:Drivers/STM32G4xx_HAL_Driver/Src/stm32g4xx_hal_hrtim.c **** 
 257:Drivers/STM32G4xx_HAL_Driver/Src/stm32g4xx_hal_hrtim.c ****      (#) Some functions can be used any time to retrieve HRTIM timer related
 258:Drivers/STM32G4xx_HAL_Driver/Src/stm32g4xx_hal_hrtim.c ****             information
 259:Drivers/STM32G4xx_HAL_Driver/Src/stm32g4xx_hal_hrtim.c ****               (++)HAL_HRTIM_GetCapturedValue(): returns actual value of the
 260:Drivers/STM32G4xx_HAL_Driver/Src/stm32g4xx_hal_hrtim.c ****                   capture register of the designated capture unit.
 261:Drivers/STM32G4xx_HAL_Driver/Src/stm32g4xx_hal_hrtim.c ****               (++)HAL_HRTIM_WaveformGetOutputLevel(): returns actual level
 262:Drivers/STM32G4xx_HAL_Driver/Src/stm32g4xx_hal_hrtim.c ****                  (ACTIVE/INACTIVE) of the designated timer output.
 263:Drivers/STM32G4xx_HAL_Driver/Src/stm32g4xx_hal_hrtim.c ****               (++)HAL_HRTIM_WaveformGetOutputState():returns actual state
 264:Drivers/STM32G4xx_HAL_Driver/Src/stm32g4xx_hal_hrtim.c ****                  (IDLE/RUN/FAULT) of the designated timer output.
 265:Drivers/STM32G4xx_HAL_Driver/Src/stm32g4xx_hal_hrtim.c ****               (++)HAL_HRTIM_GetDelayedProtectionStatus():returns actual level
 266:Drivers/STM32G4xx_HAL_Driver/Src/stm32g4xx_hal_hrtim.c ****                  (ACTIVE/INACTIVE) of the designated output when the delayed
 267:Drivers/STM32G4xx_HAL_Driver/Src/stm32g4xx_hal_hrtim.c ****                   protection was triggered.
 268:Drivers/STM32G4xx_HAL_Driver/Src/stm32g4xx_hal_hrtim.c ****               (++)HAL_HRTIM_GetBurstStatus(): returns the actual status
 269:Drivers/STM32G4xx_HAL_Driver/Src/stm32g4xx_hal_hrtim.c ****                  (ACTIVE/INACTIVE) of the burst mode controller.
 270:Drivers/STM32G4xx_HAL_Driver/Src/stm32g4xx_hal_hrtim.c ****               (++)HAL_HRTIM_GetCurrentPushPullStatus(): when the push-pull mode
 271:Drivers/STM32G4xx_HAL_Driver/Src/stm32g4xx_hal_hrtim.c ****                  is enabled for the HRTIM timer (see HAL_HRTIM_WaveformTimerConfig()),
 272:Drivers/STM32G4xx_HAL_Driver/Src/stm32g4xx_hal_hrtim.c ****                  the push-pull status indicates on which output the signal is currently
 273:Drivers/STM32G4xx_HAL_Driver/Src/stm32g4xx_hal_hrtim.c ****                  active (e.g signal applied on output 1 and output 2 forced
 274:Drivers/STM32G4xx_HAL_Driver/Src/stm32g4xx_hal_hrtim.c ****                  inactive or vice versa).
 275:Drivers/STM32G4xx_HAL_Driver/Src/stm32g4xx_hal_hrtim.c ****              (++)HAL_HRTIM_GetIdlePushPullStatus(): when the push-pull mode
 276:Drivers/STM32G4xx_HAL_Driver/Src/stm32g4xx_hal_hrtim.c ****                  is enabled for the HRTIM timer (see HAL_HRTIM_WaveformTimerConfig()),
 277:Drivers/STM32G4xx_HAL_Driver/Src/stm32g4xx_hal_hrtim.c ****                  the idle push-pull status indicates during which period the
 278:Drivers/STM32G4xx_HAL_Driver/Src/stm32g4xx_hal_hrtim.c ****                  delayed protection request occurred (e.g. protection occurred
 279:Drivers/STM32G4xx_HAL_Driver/Src/stm32g4xx_hal_hrtim.c ****                  when the output 1 was active and output 2 forced inactive or
 280:Drivers/STM32G4xx_HAL_Driver/Src/stm32g4xx_hal_hrtim.c ****                  vice versa).
 281:Drivers/STM32G4xx_HAL_Driver/Src/stm32g4xx_hal_hrtim.c **** 
 282:Drivers/STM32G4xx_HAL_Driver/Src/stm32g4xx_hal_hrtim.c ****      (#) Some functions can be used any time to retrieve actual HRTIM status
 283:Drivers/STM32G4xx_HAL_Driver/Src/stm32g4xx_hal_hrtim.c ****              (++)HAL_HRTIM_GetState(): returns actual HRTIM instance HAL state.
 284:Drivers/STM32G4xx_HAL_Driver/Src/stm32g4xx_hal_hrtim.c **** 
 285:Drivers/STM32G4xx_HAL_Driver/Src/stm32g4xx_hal_hrtim.c ****      *** Callback registration ***
 286:Drivers/STM32G4xx_HAL_Driver/Src/stm32g4xx_hal_hrtim.c ****      =============================
 287:Drivers/STM32G4xx_HAL_Driver/Src/stm32g4xx_hal_hrtim.c ****      [..]
 288:Drivers/STM32G4xx_HAL_Driver/Src/stm32g4xx_hal_hrtim.c ****      The compilation flag USE_HAL_HRTIM_REGISTER_CALLBACKS when set to 1
 289:Drivers/STM32G4xx_HAL_Driver/Src/stm32g4xx_hal_hrtim.c ****      allows the user to configure dynamically the driver callbacks.
 290:Drivers/STM32G4xx_HAL_Driver/Src/stm32g4xx_hal_hrtim.c ****      Use Functions HAL_HRTIM_RegisterCallback() or HAL_HRTIM_TIMxRegisterCallback()
 291:Drivers/STM32G4xx_HAL_Driver/Src/stm32g4xx_hal_hrtim.c ****      to register an interrupt callback.
 292:Drivers/STM32G4xx_HAL_Driver/Src/stm32g4xx_hal_hrtim.c **** 
 293:Drivers/STM32G4xx_HAL_Driver/Src/stm32g4xx_hal_hrtim.c ****      [..]
 294:Drivers/STM32G4xx_HAL_Driver/Src/stm32g4xx_hal_hrtim.c ****      Function HAL_HRTIM_RegisterCallback() allows to register following callbacks:
 295:Drivers/STM32G4xx_HAL_Driver/Src/stm32g4xx_hal_hrtim.c ****        (+) Fault1Callback               : Fault 1 interrupt callback function
 296:Drivers/STM32G4xx_HAL_Driver/Src/stm32g4xx_hal_hrtim.c ****        (+) Fault2Callback               : Fault 2 interrupt callback function
 297:Drivers/STM32G4xx_HAL_Driver/Src/stm32g4xx_hal_hrtim.c ****        (+) Fault3Callback               : Fault 3 interrupt callback function
 298:Drivers/STM32G4xx_HAL_Driver/Src/stm32g4xx_hal_hrtim.c ****        (+) Fault4Callback               : Fault 4 interrupt callback function
 299:Drivers/STM32G4xx_HAL_Driver/Src/stm32g4xx_hal_hrtim.c ****        (+) Fault5Callback               : Fault 5 interrupt callback function
 300:Drivers/STM32G4xx_HAL_Driver/Src/stm32g4xx_hal_hrtim.c ****        (+) Fault6Callback               : Fault 6 interrupt callback function
 301:Drivers/STM32G4xx_HAL_Driver/Src/stm32g4xx_hal_hrtim.c ****        (+) SystemFaultCallback          : System fault interrupt callback function
 302:Drivers/STM32G4xx_HAL_Driver/Src/stm32g4xx_hal_hrtim.c ****        (+) DLLCalibrationReadyCallback  : DLL Ready interrupt callback function
 303:Drivers/STM32G4xx_HAL_Driver/Src/stm32g4xx_hal_hrtim.c ****        (+) BurstModePeriodCallback      : Burst mode period interrupt callback function
 304:Drivers/STM32G4xx_HAL_Driver/Src/stm32g4xx_hal_hrtim.c ****        (+) SynchronizationEventCallback : Sync Input interrupt callback function
 305:Drivers/STM32G4xx_HAL_Driver/Src/stm32g4xx_hal_hrtim.c ****        (+) ErrorCallback                : DMA error callback function
ARM GAS  /tmp/cclQbFqw.s 			page 7


 306:Drivers/STM32G4xx_HAL_Driver/Src/stm32g4xx_hal_hrtim.c ****        (+) MspInitCallback              : HRTIM MspInit callback function
 307:Drivers/STM32G4xx_HAL_Driver/Src/stm32g4xx_hal_hrtim.c ****        (+) MspDeInitCallback            : HRTIM MspInit callback function
 308:Drivers/STM32G4xx_HAL_Driver/Src/stm32g4xx_hal_hrtim.c **** 
 309:Drivers/STM32G4xx_HAL_Driver/Src/stm32g4xx_hal_hrtim.c ****      [..]
 310:Drivers/STM32G4xx_HAL_Driver/Src/stm32g4xx_hal_hrtim.c ****      Function HAL_HRTIM_TIMxRegisterCallback() allows to register following callbacks:
 311:Drivers/STM32G4xx_HAL_Driver/Src/stm32g4xx_hal_hrtim.c ****        (+) RegistersUpdateCallback   : Timer x Update interrupt callback function
 312:Drivers/STM32G4xx_HAL_Driver/Src/stm32g4xx_hal_hrtim.c ****        (+) RepetitionEventCallback   : Timer x Repetition interrupt callback function
 313:Drivers/STM32G4xx_HAL_Driver/Src/stm32g4xx_hal_hrtim.c ****        (+) Compare1EventCallback     : Timer x Compare 1 match interrupt callback function
 314:Drivers/STM32G4xx_HAL_Driver/Src/stm32g4xx_hal_hrtim.c ****        (+) Compare2EventCallback     : Timer x Compare 2 match interrupt callback function
 315:Drivers/STM32G4xx_HAL_Driver/Src/stm32g4xx_hal_hrtim.c ****        (+) Compare3EventCallback     : Timer x Compare 3 match interrupt callback function
 316:Drivers/STM32G4xx_HAL_Driver/Src/stm32g4xx_hal_hrtim.c ****        (+) Compare4EventCallback     : Timer x Compare 4 match interrupt callback function
 317:Drivers/STM32G4xx_HAL_Driver/Src/stm32g4xx_hal_hrtim.c ****        (+) Capture1EventCallback     : Timer x Capture 1 interrupts callback function
 318:Drivers/STM32G4xx_HAL_Driver/Src/stm32g4xx_hal_hrtim.c ****        (+) Capture2EventCallback     : Timer x Capture 2 interrupts callback function
 319:Drivers/STM32G4xx_HAL_Driver/Src/stm32g4xx_hal_hrtim.c ****        (+) DelayedProtectionCallback : Timer x Delayed protection interrupt callback function
 320:Drivers/STM32G4xx_HAL_Driver/Src/stm32g4xx_hal_hrtim.c ****        (+) CounterResetCallback      : Timer x counter reset/roll-over interrupt callback function
 321:Drivers/STM32G4xx_HAL_Driver/Src/stm32g4xx_hal_hrtim.c ****        (+) Output1SetCallback        : Timer x output 1 set interrupt callback function
 322:Drivers/STM32G4xx_HAL_Driver/Src/stm32g4xx_hal_hrtim.c ****        (+) Output1ResetCallback      : Timer x output 1 reset interrupt callback function
 323:Drivers/STM32G4xx_HAL_Driver/Src/stm32g4xx_hal_hrtim.c ****        (+) Output2SetCallback        : Timer x output 2 set interrupt callback function
 324:Drivers/STM32G4xx_HAL_Driver/Src/stm32g4xx_hal_hrtim.c ****        (+) Output2ResetCallback      : Timer x output 2 reset interrupt callback function
 325:Drivers/STM32G4xx_HAL_Driver/Src/stm32g4xx_hal_hrtim.c ****        (+) BurstDMATransferCallback  : Timer x Burst DMA completed interrupt callback function
 326:Drivers/STM32G4xx_HAL_Driver/Src/stm32g4xx_hal_hrtim.c **** 
 327:Drivers/STM32G4xx_HAL_Driver/Src/stm32g4xx_hal_hrtim.c ****      [..]
 328:Drivers/STM32G4xx_HAL_Driver/Src/stm32g4xx_hal_hrtim.c ****      Both functions take as parameters the HAL peripheral handle, the Callback ID
 329:Drivers/STM32G4xx_HAL_Driver/Src/stm32g4xx_hal_hrtim.c ****      and a pointer to the user callback function.
 330:Drivers/STM32G4xx_HAL_Driver/Src/stm32g4xx_hal_hrtim.c **** 
 331:Drivers/STM32G4xx_HAL_Driver/Src/stm32g4xx_hal_hrtim.c ****      [..]
 332:Drivers/STM32G4xx_HAL_Driver/Src/stm32g4xx_hal_hrtim.c ****      Use function HAL_HRTIM_UnRegisterCallback or HAL_HRTIM_TIMxUnRegisterCallback
 333:Drivers/STM32G4xx_HAL_Driver/Src/stm32g4xx_hal_hrtim.c ****      to reset a callback to the default weak function. Both functions take  as parameters
 334:Drivers/STM32G4xx_HAL_Driver/Src/stm32g4xx_hal_hrtim.c ****      the HAL peripheral handle and the Callback ID.
 335:Drivers/STM32G4xx_HAL_Driver/Src/stm32g4xx_hal_hrtim.c **** 
 336:Drivers/STM32G4xx_HAL_Driver/Src/stm32g4xx_hal_hrtim.c ****      [..]
 337:Drivers/STM32G4xx_HAL_Driver/Src/stm32g4xx_hal_hrtim.c ****      By default, after the HAL_HRTIM_Init() and when the state is HAL_HRTIM_STATE_RESET
 338:Drivers/STM32G4xx_HAL_Driver/Src/stm32g4xx_hal_hrtim.c ****      all callbacks are set to the corresponding weak functions (e.g HAL_HRTIM_Fault1Callback)
 339:Drivers/STM32G4xx_HAL_Driver/Src/stm32g4xx_hal_hrtim.c ****      Exception done for MspInit and MspDeInit functions that are reset to the legacy
 340:Drivers/STM32G4xx_HAL_Driver/Src/stm32g4xx_hal_hrtim.c ****      weak functions in the HAL_HRTIM_Init()/ HAL_HRTIM_DeInit() only when these
 341:Drivers/STM32G4xx_HAL_Driver/Src/stm32g4xx_hal_hrtim.c ****      callbacks are null (not registered beforehand). If MspInit or MspDeInit are
 342:Drivers/STM32G4xx_HAL_Driver/Src/stm32g4xx_hal_hrtim.c ****      not null, the HAL_HRTIM_Init()/ HAL_HRTIM_DeInit() keep and use the user
 343:Drivers/STM32G4xx_HAL_Driver/Src/stm32g4xx_hal_hrtim.c ****      MspInit/MspDeInit callbacks (registered beforehand) whatever the state.
 344:Drivers/STM32G4xx_HAL_Driver/Src/stm32g4xx_hal_hrtim.c **** 
 345:Drivers/STM32G4xx_HAL_Driver/Src/stm32g4xx_hal_hrtim.c ****      [..]
 346:Drivers/STM32G4xx_HAL_Driver/Src/stm32g4xx_hal_hrtim.c ****      Callbacks can be registered/unregistered in HAL_HRTIM_STATE_READY state only.
 347:Drivers/STM32G4xx_HAL_Driver/Src/stm32g4xx_hal_hrtim.c ****      Exception done MspInit/MspDeInit functions that can be registered/unregistered
 348:Drivers/STM32G4xx_HAL_Driver/Src/stm32g4xx_hal_hrtim.c ****      in HAL_HRTIM_STATE_READY or HAL_HRTIM_STATE_RESET states, thus registered
 349:Drivers/STM32G4xx_HAL_Driver/Src/stm32g4xx_hal_hrtim.c ****      (user) MspInit/DeInit callbacks can be used during the Init/DeInit.
 350:Drivers/STM32G4xx_HAL_Driver/Src/stm32g4xx_hal_hrtim.c ****      Then, the user first registers the MspInit/MspDeInit user callbacks
 351:Drivers/STM32G4xx_HAL_Driver/Src/stm32g4xx_hal_hrtim.c ****      using HAL_HRTIM_RegisterCallback() before calling HAL_HRTIM_DeInit()
 352:Drivers/STM32G4xx_HAL_Driver/Src/stm32g4xx_hal_hrtim.c ****      or HAL_HRTIM_Init() function.
 353:Drivers/STM32G4xx_HAL_Driver/Src/stm32g4xx_hal_hrtim.c **** 
 354:Drivers/STM32G4xx_HAL_Driver/Src/stm32g4xx_hal_hrtim.c ****      [..]
 355:Drivers/STM32G4xx_HAL_Driver/Src/stm32g4xx_hal_hrtim.c ****      When the compilation flag USE_HAL_HRTIM_REGISTER_CALLBACKS is set to 0 or
 356:Drivers/STM32G4xx_HAL_Driver/Src/stm32g4xx_hal_hrtim.c ****      not defined, the callback registration feature is not available and all
 357:Drivers/STM32G4xx_HAL_Driver/Src/stm32g4xx_hal_hrtim.c ****      callbacks are set to the corresponding weak functions.
 358:Drivers/STM32G4xx_HAL_Driver/Src/stm32g4xx_hal_hrtim.c **** 
 359:Drivers/STM32G4xx_HAL_Driver/Src/stm32g4xx_hal_hrtim.c ****   @endverbatim
 360:Drivers/STM32G4xx_HAL_Driver/Src/stm32g4xx_hal_hrtim.c **** 
 361:Drivers/STM32G4xx_HAL_Driver/Src/stm32g4xx_hal_hrtim.c ****   ******************************************************************************
 362:Drivers/STM32G4xx_HAL_Driver/Src/stm32g4xx_hal_hrtim.c ****   * @attention
ARM GAS  /tmp/cclQbFqw.s 			page 8


 363:Drivers/STM32G4xx_HAL_Driver/Src/stm32g4xx_hal_hrtim.c ****   *
 364:Drivers/STM32G4xx_HAL_Driver/Src/stm32g4xx_hal_hrtim.c ****   * <h2><center>&copy; Copyright (c) 2019 STMicroelectronics.
 365:Drivers/STM32G4xx_HAL_Driver/Src/stm32g4xx_hal_hrtim.c ****   * All rights reserved.</center></h2>
 366:Drivers/STM32G4xx_HAL_Driver/Src/stm32g4xx_hal_hrtim.c ****   *
 367:Drivers/STM32G4xx_HAL_Driver/Src/stm32g4xx_hal_hrtim.c ****   * This software component is licensed by ST under BSD 3-Clause license,
 368:Drivers/STM32G4xx_HAL_Driver/Src/stm32g4xx_hal_hrtim.c ****   * the "License"; You may not use this file except in compliance with the
 369:Drivers/STM32G4xx_HAL_Driver/Src/stm32g4xx_hal_hrtim.c ****   * License. You may obtain a copy of the License at:
 370:Drivers/STM32G4xx_HAL_Driver/Src/stm32g4xx_hal_hrtim.c ****   *                        opensource.org/licenses/BSD-3-Clause
 371:Drivers/STM32G4xx_HAL_Driver/Src/stm32g4xx_hal_hrtim.c ****   *
 372:Drivers/STM32G4xx_HAL_Driver/Src/stm32g4xx_hal_hrtim.c ****   ******************************************************************************
 373:Drivers/STM32G4xx_HAL_Driver/Src/stm32g4xx_hal_hrtim.c ****   */
 374:Drivers/STM32G4xx_HAL_Driver/Src/stm32g4xx_hal_hrtim.c **** 
 375:Drivers/STM32G4xx_HAL_Driver/Src/stm32g4xx_hal_hrtim.c **** /* Includes ------------------------------------------------------------------*/
 376:Drivers/STM32G4xx_HAL_Driver/Src/stm32g4xx_hal_hrtim.c **** #include "stm32g4xx_hal.h"
 377:Drivers/STM32G4xx_HAL_Driver/Src/stm32g4xx_hal_hrtim.c **** 
 378:Drivers/STM32G4xx_HAL_Driver/Src/stm32g4xx_hal_hrtim.c **** /** @addtogroup STM32G4xx_HAL_Driver
 379:Drivers/STM32G4xx_HAL_Driver/Src/stm32g4xx_hal_hrtim.c ****   * @{
 380:Drivers/STM32G4xx_HAL_Driver/Src/stm32g4xx_hal_hrtim.c ****   */
 381:Drivers/STM32G4xx_HAL_Driver/Src/stm32g4xx_hal_hrtim.c **** 
 382:Drivers/STM32G4xx_HAL_Driver/Src/stm32g4xx_hal_hrtim.c **** #ifdef HAL_HRTIM_MODULE_ENABLED
 383:Drivers/STM32G4xx_HAL_Driver/Src/stm32g4xx_hal_hrtim.c **** 
 384:Drivers/STM32G4xx_HAL_Driver/Src/stm32g4xx_hal_hrtim.c **** #if defined(HRTIM1)
 385:Drivers/STM32G4xx_HAL_Driver/Src/stm32g4xx_hal_hrtim.c **** 
 386:Drivers/STM32G4xx_HAL_Driver/Src/stm32g4xx_hal_hrtim.c **** /** @defgroup HRTIM HRTIM
 387:Drivers/STM32G4xx_HAL_Driver/Src/stm32g4xx_hal_hrtim.c ****   * @brief HRTIM HAL module driver
 388:Drivers/STM32G4xx_HAL_Driver/Src/stm32g4xx_hal_hrtim.c ****   * @{
 389:Drivers/STM32G4xx_HAL_Driver/Src/stm32g4xx_hal_hrtim.c ****   */
 390:Drivers/STM32G4xx_HAL_Driver/Src/stm32g4xx_hal_hrtim.c **** 
 391:Drivers/STM32G4xx_HAL_Driver/Src/stm32g4xx_hal_hrtim.c **** /* Private typedef -----------------------------------------------------------*/
 392:Drivers/STM32G4xx_HAL_Driver/Src/stm32g4xx_hal_hrtim.c **** /* Private define ------------------------------------------------------------*/
 393:Drivers/STM32G4xx_HAL_Driver/Src/stm32g4xx_hal_hrtim.c **** /** @defgroup HRTIM_Private_Defines HRTIM Private Define
 394:Drivers/STM32G4xx_HAL_Driver/Src/stm32g4xx_hal_hrtim.c ****   * @{
 395:Drivers/STM32G4xx_HAL_Driver/Src/stm32g4xx_hal_hrtim.c ****   */
 396:Drivers/STM32G4xx_HAL_Driver/Src/stm32g4xx_hal_hrtim.c **** #define HRTIM_FLTR_FLTxEN (HRTIM_FLTR_FLT1EN |\
 397:Drivers/STM32G4xx_HAL_Driver/Src/stm32g4xx_hal_hrtim.c ****                            HRTIM_FLTR_FLT2EN |\
 398:Drivers/STM32G4xx_HAL_Driver/Src/stm32g4xx_hal_hrtim.c ****                            HRTIM_FLTR_FLT3EN |\
 399:Drivers/STM32G4xx_HAL_Driver/Src/stm32g4xx_hal_hrtim.c ****                            HRTIM_FLTR_FLT4EN | \
 400:Drivers/STM32G4xx_HAL_Driver/Src/stm32g4xx_hal_hrtim.c ****                            HRTIM_FLTR_FLT5EN | \
 401:Drivers/STM32G4xx_HAL_Driver/Src/stm32g4xx_hal_hrtim.c ****                            HRTIM_FLTR_FLT6EN)
 402:Drivers/STM32G4xx_HAL_Driver/Src/stm32g4xx_hal_hrtim.c **** 
 403:Drivers/STM32G4xx_HAL_Driver/Src/stm32g4xx_hal_hrtim.c **** #define HRTIM_TIMCR_TIMUPDATETRIGGER (HRTIM_TIMUPDATETRIGGER_MASTER  |\
 404:Drivers/STM32G4xx_HAL_Driver/Src/stm32g4xx_hal_hrtim.c ****                                       HRTIM_TIMUPDATETRIGGER_TIMER_A |\
 405:Drivers/STM32G4xx_HAL_Driver/Src/stm32g4xx_hal_hrtim.c ****                                       HRTIM_TIMUPDATETRIGGER_TIMER_B |\
 406:Drivers/STM32G4xx_HAL_Driver/Src/stm32g4xx_hal_hrtim.c ****                                       HRTIM_TIMUPDATETRIGGER_TIMER_C |\
 407:Drivers/STM32G4xx_HAL_Driver/Src/stm32g4xx_hal_hrtim.c ****                                       HRTIM_TIMUPDATETRIGGER_TIMER_D |\
 408:Drivers/STM32G4xx_HAL_Driver/Src/stm32g4xx_hal_hrtim.c ****                                       HRTIM_TIMUPDATETRIGGER_TIMER_E |\
 409:Drivers/STM32G4xx_HAL_Driver/Src/stm32g4xx_hal_hrtim.c ****                                       HRTIM_TIMUPDATETRIGGER_TIMER_F)
 410:Drivers/STM32G4xx_HAL_Driver/Src/stm32g4xx_hal_hrtim.c **** 
 411:Drivers/STM32G4xx_HAL_Driver/Src/stm32g4xx_hal_hrtim.c **** #define HRTIM_FLTINR1_FLTxLCK ((HRTIM_FAULTLOCK_READONLY)        | \
 412:Drivers/STM32G4xx_HAL_Driver/Src/stm32g4xx_hal_hrtim.c ****                                (HRTIM_FAULTLOCK_READONLY << 8U)  | \
 413:Drivers/STM32G4xx_HAL_Driver/Src/stm32g4xx_hal_hrtim.c ****                                (HRTIM_FAULTLOCK_READONLY << 16U) | \
 414:Drivers/STM32G4xx_HAL_Driver/Src/stm32g4xx_hal_hrtim.c ****                                (HRTIM_FAULTLOCK_READONLY << 24U))
 415:Drivers/STM32G4xx_HAL_Driver/Src/stm32g4xx_hal_hrtim.c **** 
 416:Drivers/STM32G4xx_HAL_Driver/Src/stm32g4xx_hal_hrtim.c **** #define HRTIM_FLTINR2_FLTxLCK ((HRTIM_FAULTLOCK_READONLY)        | \
 417:Drivers/STM32G4xx_HAL_Driver/Src/stm32g4xx_hal_hrtim.c ****                                (HRTIM_FAULTLOCK_READONLY << 8U))
 418:Drivers/STM32G4xx_HAL_Driver/Src/stm32g4xx_hal_hrtim.c **** /**
 419:Drivers/STM32G4xx_HAL_Driver/Src/stm32g4xx_hal_hrtim.c ****   * @}
ARM GAS  /tmp/cclQbFqw.s 			page 9


 420:Drivers/STM32G4xx_HAL_Driver/Src/stm32g4xx_hal_hrtim.c ****   */
 421:Drivers/STM32G4xx_HAL_Driver/Src/stm32g4xx_hal_hrtim.c **** 
 422:Drivers/STM32G4xx_HAL_Driver/Src/stm32g4xx_hal_hrtim.c **** /* Private macro -------------------------------------------------------------*/
 423:Drivers/STM32G4xx_HAL_Driver/Src/stm32g4xx_hal_hrtim.c **** /* Private variables ---------------------------------------------------------*/
 424:Drivers/STM32G4xx_HAL_Driver/Src/stm32g4xx_hal_hrtim.c **** /** @defgroup HRTIM_Private_Variables HRTIM Private Variables
 425:Drivers/STM32G4xx_HAL_Driver/Src/stm32g4xx_hal_hrtim.c ****   * @{
 426:Drivers/STM32G4xx_HAL_Driver/Src/stm32g4xx_hal_hrtim.c ****   */
 427:Drivers/STM32G4xx_HAL_Driver/Src/stm32g4xx_hal_hrtim.c **** static uint32_t TimerIdxToTimerId[] =
 428:Drivers/STM32G4xx_HAL_Driver/Src/stm32g4xx_hal_hrtim.c **** {
 429:Drivers/STM32G4xx_HAL_Driver/Src/stm32g4xx_hal_hrtim.c ****   HRTIM_TIMERID_TIMER_A,
 430:Drivers/STM32G4xx_HAL_Driver/Src/stm32g4xx_hal_hrtim.c ****   HRTIM_TIMERID_TIMER_B,
 431:Drivers/STM32G4xx_HAL_Driver/Src/stm32g4xx_hal_hrtim.c ****   HRTIM_TIMERID_TIMER_C,
 432:Drivers/STM32G4xx_HAL_Driver/Src/stm32g4xx_hal_hrtim.c ****   HRTIM_TIMERID_TIMER_D,
 433:Drivers/STM32G4xx_HAL_Driver/Src/stm32g4xx_hal_hrtim.c ****   HRTIM_TIMERID_TIMER_E,
 434:Drivers/STM32G4xx_HAL_Driver/Src/stm32g4xx_hal_hrtim.c ****   HRTIM_TIMERID_TIMER_F,
 435:Drivers/STM32G4xx_HAL_Driver/Src/stm32g4xx_hal_hrtim.c ****   HRTIM_TIMERID_MASTER,
 436:Drivers/STM32G4xx_HAL_Driver/Src/stm32g4xx_hal_hrtim.c **** };
 437:Drivers/STM32G4xx_HAL_Driver/Src/stm32g4xx_hal_hrtim.c **** /**
 438:Drivers/STM32G4xx_HAL_Driver/Src/stm32g4xx_hal_hrtim.c ****   * @}
 439:Drivers/STM32G4xx_HAL_Driver/Src/stm32g4xx_hal_hrtim.c ****   */
 440:Drivers/STM32G4xx_HAL_Driver/Src/stm32g4xx_hal_hrtim.c **** 
 441:Drivers/STM32G4xx_HAL_Driver/Src/stm32g4xx_hal_hrtim.c **** /* Private function prototypes -----------------------------------------------*/
 442:Drivers/STM32G4xx_HAL_Driver/Src/stm32g4xx_hal_hrtim.c **** /** @defgroup HRTIM_Private_Functions HRTIM Private Functions
 443:Drivers/STM32G4xx_HAL_Driver/Src/stm32g4xx_hal_hrtim.c ****   * @{
 444:Drivers/STM32G4xx_HAL_Driver/Src/stm32g4xx_hal_hrtim.c ****   */
 445:Drivers/STM32G4xx_HAL_Driver/Src/stm32g4xx_hal_hrtim.c **** static void HRTIM_MasterBase_Config(HRTIM_HandleTypeDef * hhrtim,
 446:Drivers/STM32G4xx_HAL_Driver/Src/stm32g4xx_hal_hrtim.c ****                                     HRTIM_TimeBaseCfgTypeDef * pTimeBaseCfg);
 447:Drivers/STM32G4xx_HAL_Driver/Src/stm32g4xx_hal_hrtim.c **** 
 448:Drivers/STM32G4xx_HAL_Driver/Src/stm32g4xx_hal_hrtim.c **** static void HRTIM_TimingUnitBase_Config(HRTIM_HandleTypeDef * hhrtim,
 449:Drivers/STM32G4xx_HAL_Driver/Src/stm32g4xx_hal_hrtim.c ****                                         uint32_t TimerIdx,
 450:Drivers/STM32G4xx_HAL_Driver/Src/stm32g4xx_hal_hrtim.c ****                                         HRTIM_TimeBaseCfgTypeDef * pTimeBaseCfg);
 451:Drivers/STM32G4xx_HAL_Driver/Src/stm32g4xx_hal_hrtim.c **** 
 452:Drivers/STM32G4xx_HAL_Driver/Src/stm32g4xx_hal_hrtim.c **** static void HRTIM_MasterWaveform_Config(HRTIM_HandleTypeDef * hhrtim,
 453:Drivers/STM32G4xx_HAL_Driver/Src/stm32g4xx_hal_hrtim.c ****                                         HRTIM_TimerCfgTypeDef * pTimerCfg);
 454:Drivers/STM32G4xx_HAL_Driver/Src/stm32g4xx_hal_hrtim.c **** 
 455:Drivers/STM32G4xx_HAL_Driver/Src/stm32g4xx_hal_hrtim.c **** static void HRTIM_TimingUnitWaveform_Config(HRTIM_HandleTypeDef * hhrtim,
 456:Drivers/STM32G4xx_HAL_Driver/Src/stm32g4xx_hal_hrtim.c ****                                             uint32_t TimerIdx,
 457:Drivers/STM32G4xx_HAL_Driver/Src/stm32g4xx_hal_hrtim.c ****                                             HRTIM_TimerCfgTypeDef * pTimerCfg);
 458:Drivers/STM32G4xx_HAL_Driver/Src/stm32g4xx_hal_hrtim.c **** 
 459:Drivers/STM32G4xx_HAL_Driver/Src/stm32g4xx_hal_hrtim.c **** static void HRTIM_TimingUnitWaveform_Control(HRTIM_HandleTypeDef * hhrtim,
 460:Drivers/STM32G4xx_HAL_Driver/Src/stm32g4xx_hal_hrtim.c ****                                              uint32_t TimerIdx,
 461:Drivers/STM32G4xx_HAL_Driver/Src/stm32g4xx_hal_hrtim.c ****                                              HRTIM_TimerCtlTypeDef * pTimerCtl);
 462:Drivers/STM32G4xx_HAL_Driver/Src/stm32g4xx_hal_hrtim.c **** 
 463:Drivers/STM32G4xx_HAL_Driver/Src/stm32g4xx_hal_hrtim.c **** static void  HRTIM_TimingUnitRollOver_Config(HRTIM_HandleTypeDef * hhrtim,
 464:Drivers/STM32G4xx_HAL_Driver/Src/stm32g4xx_hal_hrtim.c ****                                              uint32_t TimerIdx,
 465:Drivers/STM32G4xx_HAL_Driver/Src/stm32g4xx_hal_hrtim.c ****                                              uint32_t pRollOverMode);
 466:Drivers/STM32G4xx_HAL_Driver/Src/stm32g4xx_hal_hrtim.c **** 
 467:Drivers/STM32G4xx_HAL_Driver/Src/stm32g4xx_hal_hrtim.c **** 
 468:Drivers/STM32G4xx_HAL_Driver/Src/stm32g4xx_hal_hrtim.c **** static void HRTIM_CaptureUnitConfig(HRTIM_HandleTypeDef * hhrtim,
 469:Drivers/STM32G4xx_HAL_Driver/Src/stm32g4xx_hal_hrtim.c ****                                     uint32_t TimerIdx,
 470:Drivers/STM32G4xx_HAL_Driver/Src/stm32g4xx_hal_hrtim.c ****                                     uint32_t CaptureUnit,
 471:Drivers/STM32G4xx_HAL_Driver/Src/stm32g4xx_hal_hrtim.c ****                                     uint32_t Event);
 472:Drivers/STM32G4xx_HAL_Driver/Src/stm32g4xx_hal_hrtim.c **** 
 473:Drivers/STM32G4xx_HAL_Driver/Src/stm32g4xx_hal_hrtim.c **** static void HRTIM_OutputConfig(HRTIM_HandleTypeDef * hhrtim,
 474:Drivers/STM32G4xx_HAL_Driver/Src/stm32g4xx_hal_hrtim.c ****                                 uint32_t TimerIdx,
 475:Drivers/STM32G4xx_HAL_Driver/Src/stm32g4xx_hal_hrtim.c ****                                 uint32_t Output,
 476:Drivers/STM32G4xx_HAL_Driver/Src/stm32g4xx_hal_hrtim.c ****                                 HRTIM_OutputCfgTypeDef * pOutputCfg);
ARM GAS  /tmp/cclQbFqw.s 			page 10


 477:Drivers/STM32G4xx_HAL_Driver/Src/stm32g4xx_hal_hrtim.c **** 
 478:Drivers/STM32G4xx_HAL_Driver/Src/stm32g4xx_hal_hrtim.c **** static void HRTIM_EventConfig(HRTIM_HandleTypeDef * hhrtim,
 479:Drivers/STM32G4xx_HAL_Driver/Src/stm32g4xx_hal_hrtim.c ****                               uint32_t Event,
 480:Drivers/STM32G4xx_HAL_Driver/Src/stm32g4xx_hal_hrtim.c ****                               HRTIM_EventCfgTypeDef * pEventCfg);
 481:Drivers/STM32G4xx_HAL_Driver/Src/stm32g4xx_hal_hrtim.c **** 
 482:Drivers/STM32G4xx_HAL_Driver/Src/stm32g4xx_hal_hrtim.c **** static void HRTIM_TIM_ResetConfig(HRTIM_HandleTypeDef * hhrtim,
 483:Drivers/STM32G4xx_HAL_Driver/Src/stm32g4xx_hal_hrtim.c ****                                   uint32_t TimerIdx,
 484:Drivers/STM32G4xx_HAL_Driver/Src/stm32g4xx_hal_hrtim.c ****                                   uint32_t Event);
 485:Drivers/STM32G4xx_HAL_Driver/Src/stm32g4xx_hal_hrtim.c **** 
 486:Drivers/STM32G4xx_HAL_Driver/Src/stm32g4xx_hal_hrtim.c **** static uint32_t HRTIM_GetITFromOCMode(HRTIM_HandleTypeDef * hhrtim,
 487:Drivers/STM32G4xx_HAL_Driver/Src/stm32g4xx_hal_hrtim.c ****                                       uint32_t TimerIdx,
 488:Drivers/STM32G4xx_HAL_Driver/Src/stm32g4xx_hal_hrtim.c ****                                       uint32_t OCChannel);
 489:Drivers/STM32G4xx_HAL_Driver/Src/stm32g4xx_hal_hrtim.c **** 
 490:Drivers/STM32G4xx_HAL_Driver/Src/stm32g4xx_hal_hrtim.c **** static uint32_t HRTIM_GetDMAFromOCMode(HRTIM_HandleTypeDef * hhrtim,
 491:Drivers/STM32G4xx_HAL_Driver/Src/stm32g4xx_hal_hrtim.c ****                                        uint32_t TimerIdx,
 492:Drivers/STM32G4xx_HAL_Driver/Src/stm32g4xx_hal_hrtim.c ****                                        uint32_t OCChannel);
 493:Drivers/STM32G4xx_HAL_Driver/Src/stm32g4xx_hal_hrtim.c **** 
 494:Drivers/STM32G4xx_HAL_Driver/Src/stm32g4xx_hal_hrtim.c **** static DMA_HandleTypeDef * HRTIM_GetDMAHandleFromTimerIdx(HRTIM_HandleTypeDef * hhrtim,
 495:Drivers/STM32G4xx_HAL_Driver/Src/stm32g4xx_hal_hrtim.c ****                                                           uint32_t TimerIdx);
 496:Drivers/STM32G4xx_HAL_Driver/Src/stm32g4xx_hal_hrtim.c **** 
 497:Drivers/STM32G4xx_HAL_Driver/Src/stm32g4xx_hal_hrtim.c **** static uint32_t GetTimerIdxFromDMAHandle(HRTIM_HandleTypeDef * hhrtim,
 498:Drivers/STM32G4xx_HAL_Driver/Src/stm32g4xx_hal_hrtim.c ****                                          DMA_HandleTypeDef * hdma);
 499:Drivers/STM32G4xx_HAL_Driver/Src/stm32g4xx_hal_hrtim.c **** 
 500:Drivers/STM32G4xx_HAL_Driver/Src/stm32g4xx_hal_hrtim.c **** static void HRTIM_ForceRegistersUpdate(HRTIM_HandleTypeDef * hhrtim,
 501:Drivers/STM32G4xx_HAL_Driver/Src/stm32g4xx_hal_hrtim.c ****                                       uint32_t TimerIdx);
 502:Drivers/STM32G4xx_HAL_Driver/Src/stm32g4xx_hal_hrtim.c **** 
 503:Drivers/STM32G4xx_HAL_Driver/Src/stm32g4xx_hal_hrtim.c **** static void HRTIM_HRTIM_ISR(HRTIM_HandleTypeDef * hhrtim);
 504:Drivers/STM32G4xx_HAL_Driver/Src/stm32g4xx_hal_hrtim.c **** 
 505:Drivers/STM32G4xx_HAL_Driver/Src/stm32g4xx_hal_hrtim.c **** static void HRTIM_Master_ISR(HRTIM_HandleTypeDef * hhrtim);
 506:Drivers/STM32G4xx_HAL_Driver/Src/stm32g4xx_hal_hrtim.c **** 
 507:Drivers/STM32G4xx_HAL_Driver/Src/stm32g4xx_hal_hrtim.c **** static void HRTIM_Timer_ISR(HRTIM_HandleTypeDef * hhrtim,
 508:Drivers/STM32G4xx_HAL_Driver/Src/stm32g4xx_hal_hrtim.c ****                                        uint32_t TimerIdx);
 509:Drivers/STM32G4xx_HAL_Driver/Src/stm32g4xx_hal_hrtim.c **** 
 510:Drivers/STM32G4xx_HAL_Driver/Src/stm32g4xx_hal_hrtim.c **** static void HRTIM_DMAMasterCplt(DMA_HandleTypeDef *hdma);
 511:Drivers/STM32G4xx_HAL_Driver/Src/stm32g4xx_hal_hrtim.c **** 
 512:Drivers/STM32G4xx_HAL_Driver/Src/stm32g4xx_hal_hrtim.c **** static void HRTIM_DMATimerxCplt(DMA_HandleTypeDef *hdma);
 513:Drivers/STM32G4xx_HAL_Driver/Src/stm32g4xx_hal_hrtim.c **** 
 514:Drivers/STM32G4xx_HAL_Driver/Src/stm32g4xx_hal_hrtim.c **** static void HRTIM_DMAError(DMA_HandleTypeDef *hdma);
 515:Drivers/STM32G4xx_HAL_Driver/Src/stm32g4xx_hal_hrtim.c **** 
 516:Drivers/STM32G4xx_HAL_Driver/Src/stm32g4xx_hal_hrtim.c **** static void HRTIM_BurstDMACplt(DMA_HandleTypeDef *hdma);
 517:Drivers/STM32G4xx_HAL_Driver/Src/stm32g4xx_hal_hrtim.c **** /**
 518:Drivers/STM32G4xx_HAL_Driver/Src/stm32g4xx_hal_hrtim.c ****   * @}
 519:Drivers/STM32G4xx_HAL_Driver/Src/stm32g4xx_hal_hrtim.c ****   */
 520:Drivers/STM32G4xx_HAL_Driver/Src/stm32g4xx_hal_hrtim.c **** 
 521:Drivers/STM32G4xx_HAL_Driver/Src/stm32g4xx_hal_hrtim.c **** /* Exported functions ---------------------------------------------------------*/
 522:Drivers/STM32G4xx_HAL_Driver/Src/stm32g4xx_hal_hrtim.c **** /** @defgroup HRTIM_Exported_Functions HRTIM Exported Functions
 523:Drivers/STM32G4xx_HAL_Driver/Src/stm32g4xx_hal_hrtim.c ****   * @{
 524:Drivers/STM32G4xx_HAL_Driver/Src/stm32g4xx_hal_hrtim.c ****   */
 525:Drivers/STM32G4xx_HAL_Driver/Src/stm32g4xx_hal_hrtim.c **** 
 526:Drivers/STM32G4xx_HAL_Driver/Src/stm32g4xx_hal_hrtim.c **** /** @defgroup HRTIM_Exported_Functions_Group1 Initialization and de-initialization functions
 527:Drivers/STM32G4xx_HAL_Driver/Src/stm32g4xx_hal_hrtim.c ****  *  @brief    Initialization and Configuration functions
 528:Drivers/STM32G4xx_HAL_Driver/Src/stm32g4xx_hal_hrtim.c **** @verbatim
 529:Drivers/STM32G4xx_HAL_Driver/Src/stm32g4xx_hal_hrtim.c ****  ===============================================================================
 530:Drivers/STM32G4xx_HAL_Driver/Src/stm32g4xx_hal_hrtim.c ****               ##### Initialization and Time Base Configuration functions #####
 531:Drivers/STM32G4xx_HAL_Driver/Src/stm32g4xx_hal_hrtim.c ****  ===============================================================================
 532:Drivers/STM32G4xx_HAL_Driver/Src/stm32g4xx_hal_hrtim.c ****     [..]  This section provides functions allowing to:
 533:Drivers/STM32G4xx_HAL_Driver/Src/stm32g4xx_hal_hrtim.c ****       (+) Initialize a HRTIM instance
ARM GAS  /tmp/cclQbFqw.s 			page 11


 534:Drivers/STM32G4xx_HAL_Driver/Src/stm32g4xx_hal_hrtim.c ****       (+) De-initialize a HRTIM instance
 535:Drivers/STM32G4xx_HAL_Driver/Src/stm32g4xx_hal_hrtim.c ****       (+) Initialize the HRTIM MSP
 536:Drivers/STM32G4xx_HAL_Driver/Src/stm32g4xx_hal_hrtim.c ****       (+) De-initialize the HRTIM MSP
 537:Drivers/STM32G4xx_HAL_Driver/Src/stm32g4xx_hal_hrtim.c ****       (+) Start the high-resolution unit (start DLL calibration)
 538:Drivers/STM32G4xx_HAL_Driver/Src/stm32g4xx_hal_hrtim.c ****       (+) Check that the high resolution unit is ready (DLL calibration done)
 539:Drivers/STM32G4xx_HAL_Driver/Src/stm32g4xx_hal_hrtim.c ****       (+) Configure the time base unit of a HRTIM timer
 540:Drivers/STM32G4xx_HAL_Driver/Src/stm32g4xx_hal_hrtim.c **** 
 541:Drivers/STM32G4xx_HAL_Driver/Src/stm32g4xx_hal_hrtim.c **** @endverbatim
 542:Drivers/STM32G4xx_HAL_Driver/Src/stm32g4xx_hal_hrtim.c ****   * @{
 543:Drivers/STM32G4xx_HAL_Driver/Src/stm32g4xx_hal_hrtim.c ****   */
 544:Drivers/STM32G4xx_HAL_Driver/Src/stm32g4xx_hal_hrtim.c **** 
 545:Drivers/STM32G4xx_HAL_Driver/Src/stm32g4xx_hal_hrtim.c **** /**
 546:Drivers/STM32G4xx_HAL_Driver/Src/stm32g4xx_hal_hrtim.c ****   * @brief  Initialize a HRTIM instance
 547:Drivers/STM32G4xx_HAL_Driver/Src/stm32g4xx_hal_hrtim.c ****   * @param  hhrtim pointer to HAL HRTIM handle
 548:Drivers/STM32G4xx_HAL_Driver/Src/stm32g4xx_hal_hrtim.c ****   * @retval HAL status
 549:Drivers/STM32G4xx_HAL_Driver/Src/stm32g4xx_hal_hrtim.c ****   */
 550:Drivers/STM32G4xx_HAL_Driver/Src/stm32g4xx_hal_hrtim.c **** HAL_StatusTypeDef HAL_HRTIM_Init(HRTIM_HandleTypeDef * hhrtim)
 551:Drivers/STM32G4xx_HAL_Driver/Src/stm32g4xx_hal_hrtim.c **** {
  41              		.loc 1 551 1
  42              		.cfi_startproc
  43              		@ args = 0, pretend = 0, frame = 24
  44              		@ frame_needed = 1, uses_anonymous_args = 0
  45 0000 80B5     		push	{r7, lr}
  46              	.LCFI0:
  47              		.cfi_def_cfa_offset 8
  48              		.cfi_offset 7, -8
  49              		.cfi_offset 14, -4
  50 0002 86B0     		sub	sp, sp, #24
  51              	.LCFI1:
  52              		.cfi_def_cfa_offset 32
  53 0004 00AF     		add	r7, sp, #0
  54              	.LCFI2:
  55              		.cfi_def_cfa_register 7
  56 0006 7860     		str	r0, [r7, #4]
 552:Drivers/STM32G4xx_HAL_Driver/Src/stm32g4xx_hal_hrtim.c ****   uint8_t timer_idx;
 553:Drivers/STM32G4xx_HAL_Driver/Src/stm32g4xx_hal_hrtim.c ****   uint32_t hrtim_mcr;
 554:Drivers/STM32G4xx_HAL_Driver/Src/stm32g4xx_hal_hrtim.c **** 
 555:Drivers/STM32G4xx_HAL_Driver/Src/stm32g4xx_hal_hrtim.c ****   /* Check the HRTIM handle allocation */
 556:Drivers/STM32G4xx_HAL_Driver/Src/stm32g4xx_hal_hrtim.c ****   if(hhrtim == NULL)
  57              		.loc 1 556 5
  58 0008 7B68     		ldr	r3, [r7, #4]
  59 000a 002B     		cmp	r3, #0
  60 000c 01D1     		bne	.L2
 557:Drivers/STM32G4xx_HAL_Driver/Src/stm32g4xx_hal_hrtim.c ****   {
 558:Drivers/STM32G4xx_HAL_Driver/Src/stm32g4xx_hal_hrtim.c ****     return HAL_ERROR;
  61              		.loc 1 558 12
  62 000e 0123     		movs	r3, #1
  63 0010 BEE0     		b	.L3
  64              	.L2:
 559:Drivers/STM32G4xx_HAL_Driver/Src/stm32g4xx_hal_hrtim.c ****   }
 560:Drivers/STM32G4xx_HAL_Driver/Src/stm32g4xx_hal_hrtim.c **** 
 561:Drivers/STM32G4xx_HAL_Driver/Src/stm32g4xx_hal_hrtim.c ****   /* Check the parameters */
 562:Drivers/STM32G4xx_HAL_Driver/Src/stm32g4xx_hal_hrtim.c ****   assert_param(IS_HRTIM_ALL_INSTANCE(hhrtim->Instance));
 563:Drivers/STM32G4xx_HAL_Driver/Src/stm32g4xx_hal_hrtim.c ****   assert_param(IS_HRTIM_IT(hhrtim->Init.HRTIMInterruptResquests));
 564:Drivers/STM32G4xx_HAL_Driver/Src/stm32g4xx_hal_hrtim.c **** 
 565:Drivers/STM32G4xx_HAL_Driver/Src/stm32g4xx_hal_hrtim.c **** #if (USE_HAL_HRTIM_REGISTER_CALLBACKS == 1)
 566:Drivers/STM32G4xx_HAL_Driver/Src/stm32g4xx_hal_hrtim.c ****   if (hhrtim->State == HAL_HRTIM_STATE_RESET)
ARM GAS  /tmp/cclQbFqw.s 			page 12


 567:Drivers/STM32G4xx_HAL_Driver/Src/stm32g4xx_hal_hrtim.c ****   {
 568:Drivers/STM32G4xx_HAL_Driver/Src/stm32g4xx_hal_hrtim.c ****     /* Initialize callback function pointers to their default values */
 569:Drivers/STM32G4xx_HAL_Driver/Src/stm32g4xx_hal_hrtim.c ****     hhrtim->Fault1Callback               = HAL_HRTIM_Fault1Callback;
 570:Drivers/STM32G4xx_HAL_Driver/Src/stm32g4xx_hal_hrtim.c ****     hhrtim->Fault2Callback               = HAL_HRTIM_Fault2Callback;
 571:Drivers/STM32G4xx_HAL_Driver/Src/stm32g4xx_hal_hrtim.c ****     hhrtim->Fault3Callback               = HAL_HRTIM_Fault3Callback;
 572:Drivers/STM32G4xx_HAL_Driver/Src/stm32g4xx_hal_hrtim.c ****     hhrtim->Fault4Callback               = HAL_HRTIM_Fault4Callback;
 573:Drivers/STM32G4xx_HAL_Driver/Src/stm32g4xx_hal_hrtim.c ****     hhrtim->Fault5Callback               = HAL_HRTIM_Fault5Callback;
 574:Drivers/STM32G4xx_HAL_Driver/Src/stm32g4xx_hal_hrtim.c ****     hhrtim->Fault6Callback               = HAL_HRTIM_Fault6Callback;
 575:Drivers/STM32G4xx_HAL_Driver/Src/stm32g4xx_hal_hrtim.c ****     hhrtim->SystemFaultCallback          = HAL_HRTIM_SystemFaultCallback;
 576:Drivers/STM32G4xx_HAL_Driver/Src/stm32g4xx_hal_hrtim.c ****     hhrtim->DLLCalibrationReadyCallback  = HAL_HRTIM_DLLCalibrationReadyCallback;
 577:Drivers/STM32G4xx_HAL_Driver/Src/stm32g4xx_hal_hrtim.c ****     hhrtim->BurstModePeriodCallback      = HAL_HRTIM_BurstModePeriodCallback;
 578:Drivers/STM32G4xx_HAL_Driver/Src/stm32g4xx_hal_hrtim.c ****     hhrtim->SynchronizationEventCallback = HAL_HRTIM_SynchronizationEventCallback;
 579:Drivers/STM32G4xx_HAL_Driver/Src/stm32g4xx_hal_hrtim.c ****     hhrtim->ErrorCallback                = HAL_HRTIM_ErrorCallback;
 580:Drivers/STM32G4xx_HAL_Driver/Src/stm32g4xx_hal_hrtim.c ****     hhrtim->RegistersUpdateCallback      = HAL_HRTIM_RegistersUpdateCallback;
 581:Drivers/STM32G4xx_HAL_Driver/Src/stm32g4xx_hal_hrtim.c ****     hhrtim->RepetitionEventCallback      = HAL_HRTIM_RepetitionEventCallback;
 582:Drivers/STM32G4xx_HAL_Driver/Src/stm32g4xx_hal_hrtim.c ****     hhrtim->Compare1EventCallback        = HAL_HRTIM_Compare1EventCallback;
 583:Drivers/STM32G4xx_HAL_Driver/Src/stm32g4xx_hal_hrtim.c ****     hhrtim->Compare2EventCallback        = HAL_HRTIM_Compare2EventCallback;
 584:Drivers/STM32G4xx_HAL_Driver/Src/stm32g4xx_hal_hrtim.c ****     hhrtim->Compare3EventCallback        = HAL_HRTIM_Compare3EventCallback;
 585:Drivers/STM32G4xx_HAL_Driver/Src/stm32g4xx_hal_hrtim.c ****     hhrtim->Compare4EventCallback        = HAL_HRTIM_Compare4EventCallback;
 586:Drivers/STM32G4xx_HAL_Driver/Src/stm32g4xx_hal_hrtim.c ****     hhrtim->Capture1EventCallback        = HAL_HRTIM_Capture1EventCallback;
 587:Drivers/STM32G4xx_HAL_Driver/Src/stm32g4xx_hal_hrtim.c ****     hhrtim->Capture2EventCallback        = HAL_HRTIM_Capture2EventCallback;
 588:Drivers/STM32G4xx_HAL_Driver/Src/stm32g4xx_hal_hrtim.c ****     hhrtim->DelayedProtectionCallback    = HAL_HRTIM_DelayedProtectionCallback;
 589:Drivers/STM32G4xx_HAL_Driver/Src/stm32g4xx_hal_hrtim.c ****     hhrtim->CounterResetCallback         = HAL_HRTIM_CounterResetCallback;
 590:Drivers/STM32G4xx_HAL_Driver/Src/stm32g4xx_hal_hrtim.c ****     hhrtim->Output1SetCallback           = HAL_HRTIM_Output1SetCallback;
 591:Drivers/STM32G4xx_HAL_Driver/Src/stm32g4xx_hal_hrtim.c ****     hhrtim->Output1ResetCallback         = HAL_HRTIM_Output1ResetCallback;
 592:Drivers/STM32G4xx_HAL_Driver/Src/stm32g4xx_hal_hrtim.c ****     hhrtim->Output2SetCallback           = HAL_HRTIM_Output2SetCallback;
 593:Drivers/STM32G4xx_HAL_Driver/Src/stm32g4xx_hal_hrtim.c ****     hhrtim->Output2ResetCallback         = HAL_HRTIM_Output2ResetCallback;
 594:Drivers/STM32G4xx_HAL_Driver/Src/stm32g4xx_hal_hrtim.c ****     hhrtim->BurstDMATransferCallback     = HAL_HRTIM_BurstDMATransferCallback;
 595:Drivers/STM32G4xx_HAL_Driver/Src/stm32g4xx_hal_hrtim.c **** 
 596:Drivers/STM32G4xx_HAL_Driver/Src/stm32g4xx_hal_hrtim.c ****     if (hhrtim->MspInitCallback == NULL)
 597:Drivers/STM32G4xx_HAL_Driver/Src/stm32g4xx_hal_hrtim.c ****     {
 598:Drivers/STM32G4xx_HAL_Driver/Src/stm32g4xx_hal_hrtim.c ****       hhrtim->MspInitCallback = HAL_HRTIM_MspInit;
 599:Drivers/STM32G4xx_HAL_Driver/Src/stm32g4xx_hal_hrtim.c ****     }
 600:Drivers/STM32G4xx_HAL_Driver/Src/stm32g4xx_hal_hrtim.c ****   }
 601:Drivers/STM32G4xx_HAL_Driver/Src/stm32g4xx_hal_hrtim.c **** #endif /* USE_HAL_HRTIM_REGISTER_CALLBACKS */
 602:Drivers/STM32G4xx_HAL_Driver/Src/stm32g4xx_hal_hrtim.c **** 
 603:Drivers/STM32G4xx_HAL_Driver/Src/stm32g4xx_hal_hrtim.c ****   /* Set the HRTIM state */
 604:Drivers/STM32G4xx_HAL_Driver/Src/stm32g4xx_hal_hrtim.c ****   hhrtim->State = HAL_HRTIM_STATE_BUSY;
  65              		.loc 1 604 17
  66 0012 7B68     		ldr	r3, [r7, #4]
  67 0014 0222     		movs	r2, #2
  68 0016 83F8DD20 		strb	r2, [r3, #221]
 605:Drivers/STM32G4xx_HAL_Driver/Src/stm32g4xx_hal_hrtim.c **** 
 606:Drivers/STM32G4xx_HAL_Driver/Src/stm32g4xx_hal_hrtim.c ****   /* Initialize the DMA handles */
 607:Drivers/STM32G4xx_HAL_Driver/Src/stm32g4xx_hal_hrtim.c ****   hhrtim->hdmaMaster = (DMA_HandleTypeDef *)NULL;
  69              		.loc 1 607 22
  70 001a 7B68     		ldr	r3, [r7, #4]
  71 001c 0022     		movs	r2, #0
  72 001e C3F8E020 		str	r2, [r3, #224]
 608:Drivers/STM32G4xx_HAL_Driver/Src/stm32g4xx_hal_hrtim.c ****   hhrtim->hdmaTimerA = (DMA_HandleTypeDef *)NULL;
  73              		.loc 1 608 22
  74 0022 7B68     		ldr	r3, [r7, #4]
  75 0024 0022     		movs	r2, #0
  76 0026 C3F8E420 		str	r2, [r3, #228]
 609:Drivers/STM32G4xx_HAL_Driver/Src/stm32g4xx_hal_hrtim.c ****   hhrtim->hdmaTimerB = (DMA_HandleTypeDef *)NULL;
  77              		.loc 1 609 22
  78 002a 7B68     		ldr	r3, [r7, #4]
ARM GAS  /tmp/cclQbFqw.s 			page 13


  79 002c 0022     		movs	r2, #0
  80 002e C3F8E820 		str	r2, [r3, #232]
 610:Drivers/STM32G4xx_HAL_Driver/Src/stm32g4xx_hal_hrtim.c ****   hhrtim->hdmaTimerC = (DMA_HandleTypeDef *)NULL;
  81              		.loc 1 610 22
  82 0032 7B68     		ldr	r3, [r7, #4]
  83 0034 0022     		movs	r2, #0
  84 0036 C3F8EC20 		str	r2, [r3, #236]
 611:Drivers/STM32G4xx_HAL_Driver/Src/stm32g4xx_hal_hrtim.c ****   hhrtim->hdmaTimerD = (DMA_HandleTypeDef *)NULL;
  85              		.loc 1 611 22
  86 003a 7B68     		ldr	r3, [r7, #4]
  87 003c 0022     		movs	r2, #0
  88 003e C3F8F020 		str	r2, [r3, #240]
 612:Drivers/STM32G4xx_HAL_Driver/Src/stm32g4xx_hal_hrtim.c ****   hhrtim->hdmaTimerE = (DMA_HandleTypeDef *)NULL;
  89              		.loc 1 612 22
  90 0042 7B68     		ldr	r3, [r7, #4]
  91 0044 0022     		movs	r2, #0
  92 0046 C3F8F420 		str	r2, [r3, #244]
 613:Drivers/STM32G4xx_HAL_Driver/Src/stm32g4xx_hal_hrtim.c ****   hhrtim->hdmaTimerF = (DMA_HandleTypeDef *)NULL;
  93              		.loc 1 613 22
  94 004a 7B68     		ldr	r3, [r7, #4]
  95 004c 0022     		movs	r2, #0
  96 004e C3F8F820 		str	r2, [r3, #248]
 614:Drivers/STM32G4xx_HAL_Driver/Src/stm32g4xx_hal_hrtim.c **** 
 615:Drivers/STM32G4xx_HAL_Driver/Src/stm32g4xx_hal_hrtim.c ****   /* HRTIM output synchronization configuration (if required) */
 616:Drivers/STM32G4xx_HAL_Driver/Src/stm32g4xx_hal_hrtim.c ****   if ((hhrtim->Init.SyncOptions & HRTIM_SYNCOPTION_MASTER) != (uint32_t)RESET)
  97              		.loc 1 616 20
  98 0052 7B68     		ldr	r3, [r7, #4]
  99 0054 9B68     		ldr	r3, [r3, #8]
 100              		.loc 1 616 33
 101 0056 03F00103 		and	r3, r3, #1
 102              		.loc 1 616 6
 103 005a 002B     		cmp	r3, #0
 104 005c 2ED0     		beq	.L4
 617:Drivers/STM32G4xx_HAL_Driver/Src/stm32g4xx_hal_hrtim.c ****   {
 618:Drivers/STM32G4xx_HAL_Driver/Src/stm32g4xx_hal_hrtim.c ****     /* Check parameters */
 619:Drivers/STM32G4xx_HAL_Driver/Src/stm32g4xx_hal_hrtim.c ****     assert_param(IS_HRTIM_SYNCOUTPUTSOURCE(hhrtim->Init.SyncOutputSource));
 620:Drivers/STM32G4xx_HAL_Driver/Src/stm32g4xx_hal_hrtim.c ****     assert_param(IS_HRTIM_SYNCOUTPUTPOLARITY(hhrtim->Init.SyncOutputPolarity));
 621:Drivers/STM32G4xx_HAL_Driver/Src/stm32g4xx_hal_hrtim.c **** 
 622:Drivers/STM32G4xx_HAL_Driver/Src/stm32g4xx_hal_hrtim.c ****     /* The synchronization output initialization procedure must be done prior
 623:Drivers/STM32G4xx_HAL_Driver/Src/stm32g4xx_hal_hrtim.c ****        to the configuration of the MCU outputs (done within HAL_HRTIM_MspInit)
 624:Drivers/STM32G4xx_HAL_Driver/Src/stm32g4xx_hal_hrtim.c ****     */
 625:Drivers/STM32G4xx_HAL_Driver/Src/stm32g4xx_hal_hrtim.c ****     if (hhrtim->Instance == HRTIM1)
 105              		.loc 1 625 15
 106 005e 7B68     		ldr	r3, [r7, #4]
 107 0060 1B68     		ldr	r3, [r3]
 108              		.loc 1 625 8
 109 0062 4D4A     		ldr	r2, .L9
 110 0064 9342     		cmp	r3, r2
 111 0066 0BD1     		bne	.L5
 112              	.LBB2:
 626:Drivers/STM32G4xx_HAL_Driver/Src/stm32g4xx_hal_hrtim.c ****     {
 627:Drivers/STM32G4xx_HAL_Driver/Src/stm32g4xx_hal_hrtim.c ****       /* Enable the HRTIM peripheral clock */
 628:Drivers/STM32G4xx_HAL_Driver/Src/stm32g4xx_hal_hrtim.c ****       __HAL_RCC_HRTIM1_CLK_ENABLE();
 113              		.loc 1 628 7
 114 0068 4C4B     		ldr	r3, .L9+4
 115 006a 1B6E     		ldr	r3, [r3, #96]
 116 006c 4B4A     		ldr	r2, .L9+4
ARM GAS  /tmp/cclQbFqw.s 			page 14


 117 006e 43F08063 		orr	r3, r3, #67108864
 118 0072 1366     		str	r3, [r2, #96]
 119 0074 494B     		ldr	r3, .L9+4
 120 0076 1B6E     		ldr	r3, [r3, #96]
 121 0078 03F08063 		and	r3, r3, #67108864
 122 007c FB60     		str	r3, [r7, #12]
 123 007e FB68     		ldr	r3, [r7, #12]
 124              	.L5:
 125              	.LBE2:
 629:Drivers/STM32G4xx_HAL_Driver/Src/stm32g4xx_hal_hrtim.c ****     }
 630:Drivers/STM32G4xx_HAL_Driver/Src/stm32g4xx_hal_hrtim.c **** 
 631:Drivers/STM32G4xx_HAL_Driver/Src/stm32g4xx_hal_hrtim.c ****     hrtim_mcr = hhrtim->Instance->sMasterRegs.MCR;
 126              		.loc 1 631 23
 127 0080 7B68     		ldr	r3, [r7, #4]
 128 0082 1B68     		ldr	r3, [r3]
 129              		.loc 1 631 15
 130 0084 1B68     		ldr	r3, [r3]
 131 0086 3B61     		str	r3, [r7, #16]
 632:Drivers/STM32G4xx_HAL_Driver/Src/stm32g4xx_hal_hrtim.c **** 
 633:Drivers/STM32G4xx_HAL_Driver/Src/stm32g4xx_hal_hrtim.c ****     /* Set the event to be sent on the synchronization output */
 634:Drivers/STM32G4xx_HAL_Driver/Src/stm32g4xx_hal_hrtim.c ****     hrtim_mcr &= ~(HRTIM_MCR_SYNC_SRC);
 132              		.loc 1 634 15
 133 0088 3B69     		ldr	r3, [r7, #16]
 134 008a 23F44043 		bic	r3, r3, #49152
 135 008e 3B61     		str	r3, [r7, #16]
 635:Drivers/STM32G4xx_HAL_Driver/Src/stm32g4xx_hal_hrtim.c ****     hrtim_mcr |= (hhrtim->Init.SyncOutputSource & HRTIM_MCR_SYNC_SRC);
 136              		.loc 1 635 31
 137 0090 7B68     		ldr	r3, [r7, #4]
 138 0092 1B69     		ldr	r3, [r3, #16]
 139              		.loc 1 635 49
 140 0094 03F44043 		and	r3, r3, #49152
 141              		.loc 1 635 15
 142 0098 3A69     		ldr	r2, [r7, #16]
 143 009a 1343     		orrs	r3, r3, r2
 144 009c 3B61     		str	r3, [r7, #16]
 636:Drivers/STM32G4xx_HAL_Driver/Src/stm32g4xx_hal_hrtim.c **** 
 637:Drivers/STM32G4xx_HAL_Driver/Src/stm32g4xx_hal_hrtim.c ****     /* Set the polarity of the synchronization output */
 638:Drivers/STM32G4xx_HAL_Driver/Src/stm32g4xx_hal_hrtim.c ****     hrtim_mcr &= ~(HRTIM_MCR_SYNC_OUT);
 145              		.loc 1 638 15
 146 009e 3B69     		ldr	r3, [r7, #16]
 147 00a0 23F44053 		bic	r3, r3, #12288
 148 00a4 3B61     		str	r3, [r7, #16]
 639:Drivers/STM32G4xx_HAL_Driver/Src/stm32g4xx_hal_hrtim.c ****     hrtim_mcr |= (hhrtim->Init.SyncOutputPolarity & HRTIM_MCR_SYNC_OUT);
 149              		.loc 1 639 31
 150 00a6 7B68     		ldr	r3, [r7, #4]
 151 00a8 5B69     		ldr	r3, [r3, #20]
 152              		.loc 1 639 51
 153 00aa 03F44053 		and	r3, r3, #12288
 154              		.loc 1 639 15
 155 00ae 3A69     		ldr	r2, [r7, #16]
 156 00b0 1343     		orrs	r3, r3, r2
 157 00b2 3B61     		str	r3, [r7, #16]
 640:Drivers/STM32G4xx_HAL_Driver/Src/stm32g4xx_hal_hrtim.c **** 
 641:Drivers/STM32G4xx_HAL_Driver/Src/stm32g4xx_hal_hrtim.c ****     /* Update the HRTIM registers */
 642:Drivers/STM32G4xx_HAL_Driver/Src/stm32g4xx_hal_hrtim.c ****     hhrtim->Instance->sMasterRegs.MCR = hrtim_mcr;
 158              		.loc 1 642 11
 159 00b4 7B68     		ldr	r3, [r7, #4]
ARM GAS  /tmp/cclQbFqw.s 			page 15


 160 00b6 1B68     		ldr	r3, [r3]
 161              		.loc 1 642 39
 162 00b8 3A69     		ldr	r2, [r7, #16]
 163 00ba 1A60     		str	r2, [r3]
 164              	.L4:
 643:Drivers/STM32G4xx_HAL_Driver/Src/stm32g4xx_hal_hrtim.c ****   }
 644:Drivers/STM32G4xx_HAL_Driver/Src/stm32g4xx_hal_hrtim.c **** 
 645:Drivers/STM32G4xx_HAL_Driver/Src/stm32g4xx_hal_hrtim.c ****   /* Init the low level hardware : GPIO, CLOCK, NVIC and DMA */
 646:Drivers/STM32G4xx_HAL_Driver/Src/stm32g4xx_hal_hrtim.c **** #if (USE_HAL_HRTIM_REGISTER_CALLBACKS == 1)
 647:Drivers/STM32G4xx_HAL_Driver/Src/stm32g4xx_hal_hrtim.c ****   hhrtim->MspInitCallback(hhrtim);
 648:Drivers/STM32G4xx_HAL_Driver/Src/stm32g4xx_hal_hrtim.c **** #else
 649:Drivers/STM32G4xx_HAL_Driver/Src/stm32g4xx_hal_hrtim.c ****   HAL_HRTIM_MspInit(hhrtim);
 165              		.loc 1 649 3
 166 00bc 7868     		ldr	r0, [r7, #4]
 167 00be FFF7FEFF 		bl	HAL_HRTIM_MspInit
 650:Drivers/STM32G4xx_HAL_Driver/Src/stm32g4xx_hal_hrtim.c **** #endif /* USE_HAL_HRTIM_REGISTER_CALLBACKS */
 651:Drivers/STM32G4xx_HAL_Driver/Src/stm32g4xx_hal_hrtim.c **** 
 652:Drivers/STM32G4xx_HAL_Driver/Src/stm32g4xx_hal_hrtim.c ****   /* HRTIM input synchronization configuration (if required) */
 653:Drivers/STM32G4xx_HAL_Driver/Src/stm32g4xx_hal_hrtim.c ****   if ((hhrtim->Init.SyncOptions & HRTIM_SYNCOPTION_SLAVE) != (uint32_t)RESET)
 168              		.loc 1 653 20
 169 00c2 7B68     		ldr	r3, [r7, #4]
 170 00c4 9B68     		ldr	r3, [r3, #8]
 171              		.loc 1 653 33
 172 00c6 03F00203 		and	r3, r3, #2
 173              		.loc 1 653 6
 174 00ca 002B     		cmp	r3, #0
 175 00cc 12D0     		beq	.L6
 654:Drivers/STM32G4xx_HAL_Driver/Src/stm32g4xx_hal_hrtim.c ****   {
 655:Drivers/STM32G4xx_HAL_Driver/Src/stm32g4xx_hal_hrtim.c ****     /* Check parameters */
 656:Drivers/STM32G4xx_HAL_Driver/Src/stm32g4xx_hal_hrtim.c ****     assert_param(IS_HRTIM_SYNCINPUTSOURCE(hhrtim->Init.SyncInputSource));
 657:Drivers/STM32G4xx_HAL_Driver/Src/stm32g4xx_hal_hrtim.c **** 
 658:Drivers/STM32G4xx_HAL_Driver/Src/stm32g4xx_hal_hrtim.c ****     hrtim_mcr = hhrtim->Instance->sMasterRegs.MCR;
 176              		.loc 1 658 23
 177 00ce 7B68     		ldr	r3, [r7, #4]
 178 00d0 1B68     		ldr	r3, [r3]
 179              		.loc 1 658 15
 180 00d2 1B68     		ldr	r3, [r3]
 181 00d4 3B61     		str	r3, [r7, #16]
 659:Drivers/STM32G4xx_HAL_Driver/Src/stm32g4xx_hal_hrtim.c **** 
 660:Drivers/STM32G4xx_HAL_Driver/Src/stm32g4xx_hal_hrtim.c ****     /* Set the synchronization input source */
 661:Drivers/STM32G4xx_HAL_Driver/Src/stm32g4xx_hal_hrtim.c ****     hrtim_mcr &= ~(HRTIM_MCR_SYNC_IN);
 182              		.loc 1 661 15
 183 00d6 3B69     		ldr	r3, [r7, #16]
 184 00d8 23F44073 		bic	r3, r3, #768
 185 00dc 3B61     		str	r3, [r7, #16]
 662:Drivers/STM32G4xx_HAL_Driver/Src/stm32g4xx_hal_hrtim.c ****     hrtim_mcr |= (hhrtim->Init.SyncInputSource & HRTIM_MCR_SYNC_IN);
 186              		.loc 1 662 31
 187 00de 7B68     		ldr	r3, [r7, #4]
 188 00e0 DB68     		ldr	r3, [r3, #12]
 189              		.loc 1 662 48
 190 00e2 03F44073 		and	r3, r3, #768
 191              		.loc 1 662 15
 192 00e6 3A69     		ldr	r2, [r7, #16]
 193 00e8 1343     		orrs	r3, r3, r2
 194 00ea 3B61     		str	r3, [r7, #16]
 663:Drivers/STM32G4xx_HAL_Driver/Src/stm32g4xx_hal_hrtim.c **** 
 664:Drivers/STM32G4xx_HAL_Driver/Src/stm32g4xx_hal_hrtim.c ****     /* Update the HRTIM registers */
ARM GAS  /tmp/cclQbFqw.s 			page 16


 665:Drivers/STM32G4xx_HAL_Driver/Src/stm32g4xx_hal_hrtim.c ****     hhrtim->Instance->sMasterRegs.MCR = hrtim_mcr;
 195              		.loc 1 665 11
 196 00ec 7B68     		ldr	r3, [r7, #4]
 197 00ee 1B68     		ldr	r3, [r3]
 198              		.loc 1 665 39
 199 00f0 3A69     		ldr	r2, [r7, #16]
 200 00f2 1A60     		str	r2, [r3]
 201              	.L6:
 666:Drivers/STM32G4xx_HAL_Driver/Src/stm32g4xx_hal_hrtim.c ****   }
 667:Drivers/STM32G4xx_HAL_Driver/Src/stm32g4xx_hal_hrtim.c **** 
 668:Drivers/STM32G4xx_HAL_Driver/Src/stm32g4xx_hal_hrtim.c ****   /* Initialize the HRTIM state*/
 669:Drivers/STM32G4xx_HAL_Driver/Src/stm32g4xx_hal_hrtim.c ****   hhrtim->State = HAL_HRTIM_STATE_READY;
 202              		.loc 1 669 17
 203 00f4 7B68     		ldr	r3, [r7, #4]
 204 00f6 0122     		movs	r2, #1
 205 00f8 83F8DD20 		strb	r2, [r3, #221]
 670:Drivers/STM32G4xx_HAL_Driver/Src/stm32g4xx_hal_hrtim.c **** 
 671:Drivers/STM32G4xx_HAL_Driver/Src/stm32g4xx_hal_hrtim.c ****   /* Initialize the lock status of the HRTIM HAL API */
 672:Drivers/STM32G4xx_HAL_Driver/Src/stm32g4xx_hal_hrtim.c ****   __HAL_UNLOCK(hhrtim);
 206              		.loc 1 672 3
 207 00fc 7B68     		ldr	r3, [r7, #4]
 208 00fe 0022     		movs	r2, #0
 209 0100 83F8DC20 		strb	r2, [r3, #220]
 673:Drivers/STM32G4xx_HAL_Driver/Src/stm32g4xx_hal_hrtim.c **** 
 674:Drivers/STM32G4xx_HAL_Driver/Src/stm32g4xx_hal_hrtim.c ****   /* Initialize timer related parameters */
 675:Drivers/STM32G4xx_HAL_Driver/Src/stm32g4xx_hal_hrtim.c ****   for (timer_idx = HRTIM_TIMERINDEX_TIMER_A ;
 210              		.loc 1 675 18
 211 0104 0023     		movs	r3, #0
 212 0106 FB75     		strb	r3, [r7, #23]
 213              		.loc 1 675 3
 214 0108 3EE0     		b	.L7
 215              	.L8:
 676:Drivers/STM32G4xx_HAL_Driver/Src/stm32g4xx_hal_hrtim.c ****        timer_idx <= HRTIM_TIMERINDEX_MASTER ;
 677:Drivers/STM32G4xx_HAL_Driver/Src/stm32g4xx_hal_hrtim.c ****        timer_idx++)
 678:Drivers/STM32G4xx_HAL_Driver/Src/stm32g4xx_hal_hrtim.c ****   {
 679:Drivers/STM32G4xx_HAL_Driver/Src/stm32g4xx_hal_hrtim.c ****     hhrtim->TimerParam[timer_idx].CaptureTrigger1 = HRTIM_CAPTURETRIGGER_NONE;
 216              		.loc 1 679 34
 217 010a FA7D     		ldrb	r2, [r7, #23]	@ zero_extendqisi2
 218              		.loc 1 679 51
 219 010c 7968     		ldr	r1, [r7, #4]
 220 010e 1346     		mov	r3, r2
 221 0110 DB00     		lsls	r3, r3, #3
 222 0112 9B1A     		subs	r3, r3, r2
 223 0114 9B00     		lsls	r3, r3, #2
 224 0116 0B44     		add	r3, r3, r1
 225 0118 1833     		adds	r3, r3, #24
 226 011a 0022     		movs	r2, #0
 227 011c 1A60     		str	r2, [r3]
 680:Drivers/STM32G4xx_HAL_Driver/Src/stm32g4xx_hal_hrtim.c ****     hhrtim->TimerParam[timer_idx].CaptureTrigger2 = HRTIM_CAPTURETRIGGER_NONE;
 228              		.loc 1 680 34
 229 011e FA7D     		ldrb	r2, [r7, #23]	@ zero_extendqisi2
 230              		.loc 1 680 51
 231 0120 7968     		ldr	r1, [r7, #4]
 232 0122 1346     		mov	r3, r2
 233 0124 DB00     		lsls	r3, r3, #3
 234 0126 9B1A     		subs	r3, r3, r2
 235 0128 9B00     		lsls	r3, r3, #2
ARM GAS  /tmp/cclQbFqw.s 			page 17


 236 012a 0B44     		add	r3, r3, r1
 237 012c 1C33     		adds	r3, r3, #28
 238 012e 0022     		movs	r2, #0
 239 0130 1A60     		str	r2, [r3]
 681:Drivers/STM32G4xx_HAL_Driver/Src/stm32g4xx_hal_hrtim.c ****     hhrtim->TimerParam[timer_idx].InterruptRequests = HRTIM_IT_NONE;
 240              		.loc 1 681 34
 241 0132 FA7D     		ldrb	r2, [r7, #23]	@ zero_extendqisi2
 242              		.loc 1 681 53
 243 0134 7968     		ldr	r1, [r7, #4]
 244 0136 1346     		mov	r3, r2
 245 0138 DB00     		lsls	r3, r3, #3
 246 013a 9B1A     		subs	r3, r3, r2
 247 013c 9B00     		lsls	r3, r3, #2
 248 013e 0B44     		add	r3, r3, r1
 249 0140 2033     		adds	r3, r3, #32
 250 0142 0022     		movs	r2, #0
 251 0144 1A60     		str	r2, [r3]
 682:Drivers/STM32G4xx_HAL_Driver/Src/stm32g4xx_hal_hrtim.c ****     hhrtim->TimerParam[timer_idx].DMARequests = HRTIM_IT_NONE;
 252              		.loc 1 682 34
 253 0146 FA7D     		ldrb	r2, [r7, #23]	@ zero_extendqisi2
 254              		.loc 1 682 47
 255 0148 7968     		ldr	r1, [r7, #4]
 256 014a 1346     		mov	r3, r2
 257 014c DB00     		lsls	r3, r3, #3
 258 014e 9B1A     		subs	r3, r3, r2
 259 0150 9B00     		lsls	r3, r3, #2
 260 0152 0B44     		add	r3, r3, r1
 261 0154 2433     		adds	r3, r3, #36
 262 0156 0022     		movs	r2, #0
 263 0158 1A60     		str	r2, [r3]
 683:Drivers/STM32G4xx_HAL_Driver/Src/stm32g4xx_hal_hrtim.c ****     hhrtim->TimerParam[timer_idx].DMASrcAddress = 0U;
 264              		.loc 1 683 34
 265 015a FA7D     		ldrb	r2, [r7, #23]	@ zero_extendqisi2
 266              		.loc 1 683 49
 267 015c 7968     		ldr	r1, [r7, #4]
 268 015e 1346     		mov	r3, r2
 269 0160 DB00     		lsls	r3, r3, #3
 270 0162 9B1A     		subs	r3, r3, r2
 271 0164 9B00     		lsls	r3, r3, #2
 272 0166 0B44     		add	r3, r3, r1
 273 0168 2833     		adds	r3, r3, #40
 274 016a 0022     		movs	r2, #0
 275 016c 1A60     		str	r2, [r3]
 684:Drivers/STM32G4xx_HAL_Driver/Src/stm32g4xx_hal_hrtim.c ****     hhrtim->TimerParam[timer_idx].DMASize = 0U;
 276              		.loc 1 684 34
 277 016e FA7D     		ldrb	r2, [r7, #23]	@ zero_extendqisi2
 278              		.loc 1 684 43
 279 0170 7968     		ldr	r1, [r7, #4]
 280 0172 1346     		mov	r3, r2
 281 0174 DB00     		lsls	r3, r3, #3
 282 0176 9B1A     		subs	r3, r3, r2
 283 0178 9B00     		lsls	r3, r3, #2
 284 017a 0B44     		add	r3, r3, r1
 285 017c 3033     		adds	r3, r3, #48
 286 017e 0022     		movs	r2, #0
 287 0180 1A60     		str	r2, [r3]
 677:Drivers/STM32G4xx_HAL_Driver/Src/stm32g4xx_hal_hrtim.c ****   {
ARM GAS  /tmp/cclQbFqw.s 			page 18


 288              		.loc 1 677 17
 289 0182 FB7D     		ldrb	r3, [r7, #23]	@ zero_extendqisi2
 290 0184 0133     		adds	r3, r3, #1
 291 0186 FB75     		strb	r3, [r7, #23]
 292              	.L7:
 675:Drivers/STM32G4xx_HAL_Driver/Src/stm32g4xx_hal_hrtim.c ****        timer_idx <= HRTIM_TIMERINDEX_MASTER ;
 293              		.loc 1 675 3 discriminator 1
 294 0188 FB7D     		ldrb	r3, [r7, #23]	@ zero_extendqisi2
 295 018a 062B     		cmp	r3, #6
 296 018c BDD9     		bls	.L8
 685:Drivers/STM32G4xx_HAL_Driver/Src/stm32g4xx_hal_hrtim.c ****   }
 686:Drivers/STM32G4xx_HAL_Driver/Src/stm32g4xx_hal_hrtim.c **** 
 687:Drivers/STM32G4xx_HAL_Driver/Src/stm32g4xx_hal_hrtim.c ****   return HAL_OK;
 297              		.loc 1 687 10
 298 018e 0023     		movs	r3, #0
 299              	.L3:
 688:Drivers/STM32G4xx_HAL_Driver/Src/stm32g4xx_hal_hrtim.c **** }
 300              		.loc 1 688 1
 301 0190 1846     		mov	r0, r3
 302 0192 1837     		adds	r7, r7, #24
 303              	.LCFI3:
 304              		.cfi_def_cfa_offset 8
 305 0194 BD46     		mov	sp, r7
 306              	.LCFI4:
 307              		.cfi_def_cfa_register 13
 308              		@ sp needed
 309 0196 80BD     		pop	{r7, pc}
 310              	.L10:
 311              		.align	2
 312              	.L9:
 313 0198 00680140 		.word	1073833984
 314 019c 00100240 		.word	1073876992
 315              		.cfi_endproc
 316              	.LFE325:
 318              		.section	.text.HAL_HRTIM_DeInit,"ax",%progbits
 319              		.align	1
 320              		.global	HAL_HRTIM_DeInit
 321              		.syntax unified
 322              		.thumb
 323              		.thumb_func
 324              		.fpu fpv4-sp-d16
 326              	HAL_HRTIM_DeInit:
 327              	.LFB326:
 689:Drivers/STM32G4xx_HAL_Driver/Src/stm32g4xx_hal_hrtim.c **** 
 690:Drivers/STM32G4xx_HAL_Driver/Src/stm32g4xx_hal_hrtim.c **** /**
 691:Drivers/STM32G4xx_HAL_Driver/Src/stm32g4xx_hal_hrtim.c ****   * @brief  De-initialize a HRTIM instance
 692:Drivers/STM32G4xx_HAL_Driver/Src/stm32g4xx_hal_hrtim.c ****   * @param  hhrtim pointer to HAL HRTIM handle
 693:Drivers/STM32G4xx_HAL_Driver/Src/stm32g4xx_hal_hrtim.c ****   * @retval HAL status
 694:Drivers/STM32G4xx_HAL_Driver/Src/stm32g4xx_hal_hrtim.c ****   */
 695:Drivers/STM32G4xx_HAL_Driver/Src/stm32g4xx_hal_hrtim.c **** HAL_StatusTypeDef HAL_HRTIM_DeInit (HRTIM_HandleTypeDef * hhrtim)
 696:Drivers/STM32G4xx_HAL_Driver/Src/stm32g4xx_hal_hrtim.c **** {
 328              		.loc 1 696 1
 329              		.cfi_startproc
 330              		@ args = 0, pretend = 0, frame = 8
 331              		@ frame_needed = 1, uses_anonymous_args = 0
 332 0000 80B5     		push	{r7, lr}
 333              	.LCFI5:
ARM GAS  /tmp/cclQbFqw.s 			page 19


 334              		.cfi_def_cfa_offset 8
 335              		.cfi_offset 7, -8
 336              		.cfi_offset 14, -4
 337 0002 82B0     		sub	sp, sp, #8
 338              	.LCFI6:
 339              		.cfi_def_cfa_offset 16
 340 0004 00AF     		add	r7, sp, #0
 341              	.LCFI7:
 342              		.cfi_def_cfa_register 7
 343 0006 7860     		str	r0, [r7, #4]
 697:Drivers/STM32G4xx_HAL_Driver/Src/stm32g4xx_hal_hrtim.c ****   /* Check the HRTIM handle allocation */
 698:Drivers/STM32G4xx_HAL_Driver/Src/stm32g4xx_hal_hrtim.c ****   if(hhrtim == NULL)
 344              		.loc 1 698 5
 345 0008 7B68     		ldr	r3, [r7, #4]
 346 000a 002B     		cmp	r3, #0
 347 000c 01D1     		bne	.L12
 699:Drivers/STM32G4xx_HAL_Driver/Src/stm32g4xx_hal_hrtim.c ****   {
 700:Drivers/STM32G4xx_HAL_Driver/Src/stm32g4xx_hal_hrtim.c ****     return HAL_ERROR;
 348              		.loc 1 700 12
 349 000e 0123     		movs	r3, #1
 350 0010 0BE0     		b	.L13
 351              	.L12:
 701:Drivers/STM32G4xx_HAL_Driver/Src/stm32g4xx_hal_hrtim.c ****   }
 702:Drivers/STM32G4xx_HAL_Driver/Src/stm32g4xx_hal_hrtim.c **** 
 703:Drivers/STM32G4xx_HAL_Driver/Src/stm32g4xx_hal_hrtim.c ****   /* Check the parameters */
 704:Drivers/STM32G4xx_HAL_Driver/Src/stm32g4xx_hal_hrtim.c ****   assert_param(IS_HRTIM_ALL_INSTANCE(hhrtim->Instance));
 705:Drivers/STM32G4xx_HAL_Driver/Src/stm32g4xx_hal_hrtim.c **** 
 706:Drivers/STM32G4xx_HAL_Driver/Src/stm32g4xx_hal_hrtim.c ****   /* Set the HRTIM state */
 707:Drivers/STM32G4xx_HAL_Driver/Src/stm32g4xx_hal_hrtim.c ****   hhrtim->State = HAL_HRTIM_STATE_BUSY;
 352              		.loc 1 707 17
 353 0012 7B68     		ldr	r3, [r7, #4]
 354 0014 0222     		movs	r2, #2
 355 0016 83F8DD20 		strb	r2, [r3, #221]
 708:Drivers/STM32G4xx_HAL_Driver/Src/stm32g4xx_hal_hrtim.c **** 
 709:Drivers/STM32G4xx_HAL_Driver/Src/stm32g4xx_hal_hrtim.c ****   /* DeInit the low level hardware */
 710:Drivers/STM32G4xx_HAL_Driver/Src/stm32g4xx_hal_hrtim.c **** #if (USE_HAL_HRTIM_REGISTER_CALLBACKS == 1)
 711:Drivers/STM32G4xx_HAL_Driver/Src/stm32g4xx_hal_hrtim.c ****   if (hhrtim->MspDeInitCallback == NULL)
 712:Drivers/STM32G4xx_HAL_Driver/Src/stm32g4xx_hal_hrtim.c ****   {
 713:Drivers/STM32G4xx_HAL_Driver/Src/stm32g4xx_hal_hrtim.c ****     hhrtim->MspDeInitCallback = HAL_HRTIM_MspDeInit;
 714:Drivers/STM32G4xx_HAL_Driver/Src/stm32g4xx_hal_hrtim.c ****   }
 715:Drivers/STM32G4xx_HAL_Driver/Src/stm32g4xx_hal_hrtim.c **** 
 716:Drivers/STM32G4xx_HAL_Driver/Src/stm32g4xx_hal_hrtim.c ****   hhrtim->MspDeInitCallback(hhrtim);
 717:Drivers/STM32G4xx_HAL_Driver/Src/stm32g4xx_hal_hrtim.c **** #else
 718:Drivers/STM32G4xx_HAL_Driver/Src/stm32g4xx_hal_hrtim.c ****   HAL_HRTIM_MspDeInit(hhrtim);
 356              		.loc 1 718 3
 357 001a 7868     		ldr	r0, [r7, #4]
 358 001c FFF7FEFF 		bl	HAL_HRTIM_MspDeInit
 719:Drivers/STM32G4xx_HAL_Driver/Src/stm32g4xx_hal_hrtim.c **** #endif /* USE_HAL_HRTIM_REGISTER_CALLBACKS */
 720:Drivers/STM32G4xx_HAL_Driver/Src/stm32g4xx_hal_hrtim.c **** 
 721:Drivers/STM32G4xx_HAL_Driver/Src/stm32g4xx_hal_hrtim.c ****   hhrtim->State = HAL_HRTIM_STATE_READY;
 359              		.loc 1 721 17
 360 0020 7B68     		ldr	r3, [r7, #4]
 361 0022 0122     		movs	r2, #1
 362 0024 83F8DD20 		strb	r2, [r3, #221]
 722:Drivers/STM32G4xx_HAL_Driver/Src/stm32g4xx_hal_hrtim.c **** 
 723:Drivers/STM32G4xx_HAL_Driver/Src/stm32g4xx_hal_hrtim.c ****   return HAL_OK;
 363              		.loc 1 723 10
ARM GAS  /tmp/cclQbFqw.s 			page 20


 364 0028 0023     		movs	r3, #0
 365              	.L13:
 724:Drivers/STM32G4xx_HAL_Driver/Src/stm32g4xx_hal_hrtim.c **** }
 366              		.loc 1 724 1
 367 002a 1846     		mov	r0, r3
 368 002c 0837     		adds	r7, r7, #8
 369              	.LCFI8:
 370              		.cfi_def_cfa_offset 8
 371 002e BD46     		mov	sp, r7
 372              	.LCFI9:
 373              		.cfi_def_cfa_register 13
 374              		@ sp needed
 375 0030 80BD     		pop	{r7, pc}
 376              		.cfi_endproc
 377              	.LFE326:
 379              		.section	.text.HAL_HRTIM_MspInit,"ax",%progbits
 380              		.align	1
 381              		.weak	HAL_HRTIM_MspInit
 382              		.syntax unified
 383              		.thumb
 384              		.thumb_func
 385              		.fpu fpv4-sp-d16
 387              	HAL_HRTIM_MspInit:
 388              	.LFB327:
 725:Drivers/STM32G4xx_HAL_Driver/Src/stm32g4xx_hal_hrtim.c **** 
 726:Drivers/STM32G4xx_HAL_Driver/Src/stm32g4xx_hal_hrtim.c **** /**
 727:Drivers/STM32G4xx_HAL_Driver/Src/stm32g4xx_hal_hrtim.c ****   * @brief  MSP initialization for a HRTIM instance
 728:Drivers/STM32G4xx_HAL_Driver/Src/stm32g4xx_hal_hrtim.c ****   * @param  hhrtim pointer to HAL HRTIM handle
 729:Drivers/STM32G4xx_HAL_Driver/Src/stm32g4xx_hal_hrtim.c ****   * @retval None
 730:Drivers/STM32G4xx_HAL_Driver/Src/stm32g4xx_hal_hrtim.c ****   */
 731:Drivers/STM32G4xx_HAL_Driver/Src/stm32g4xx_hal_hrtim.c **** __weak void HAL_HRTIM_MspInit(HRTIM_HandleTypeDef * hhrtim)
 732:Drivers/STM32G4xx_HAL_Driver/Src/stm32g4xx_hal_hrtim.c **** {
 389              		.loc 1 732 1
 390              		.cfi_startproc
 391              		@ args = 0, pretend = 0, frame = 8
 392              		@ frame_needed = 1, uses_anonymous_args = 0
 393              		@ link register save eliminated.
 394 0000 80B4     		push	{r7}
 395              	.LCFI10:
 396              		.cfi_def_cfa_offset 4
 397              		.cfi_offset 7, -4
 398 0002 83B0     		sub	sp, sp, #12
 399              	.LCFI11:
 400              		.cfi_def_cfa_offset 16
 401 0004 00AF     		add	r7, sp, #0
 402              	.LCFI12:
 403              		.cfi_def_cfa_register 7
 404 0006 7860     		str	r0, [r7, #4]
 733:Drivers/STM32G4xx_HAL_Driver/Src/stm32g4xx_hal_hrtim.c ****   /* Prevent unused argument(s) compilation warning */
 734:Drivers/STM32G4xx_HAL_Driver/Src/stm32g4xx_hal_hrtim.c ****   UNUSED(hhrtim);
 735:Drivers/STM32G4xx_HAL_Driver/Src/stm32g4xx_hal_hrtim.c **** 
 736:Drivers/STM32G4xx_HAL_Driver/Src/stm32g4xx_hal_hrtim.c ****   /* NOTE: This function should not be modified, when the callback is needed,
 737:Drivers/STM32G4xx_HAL_Driver/Src/stm32g4xx_hal_hrtim.c ****            the HAL_HRTIM_MspInit could be implemented in the user file
 738:Drivers/STM32G4xx_HAL_Driver/Src/stm32g4xx_hal_hrtim.c ****    */
 739:Drivers/STM32G4xx_HAL_Driver/Src/stm32g4xx_hal_hrtim.c **** }
 405              		.loc 1 739 1
 406 0008 00BF     		nop
ARM GAS  /tmp/cclQbFqw.s 			page 21


 407 000a 0C37     		adds	r7, r7, #12
 408              	.LCFI13:
 409              		.cfi_def_cfa_offset 4
 410 000c BD46     		mov	sp, r7
 411              	.LCFI14:
 412              		.cfi_def_cfa_register 13
 413              		@ sp needed
 414 000e 5DF8047B 		ldr	r7, [sp], #4
 415              	.LCFI15:
 416              		.cfi_restore 7
 417              		.cfi_def_cfa_offset 0
 418 0012 7047     		bx	lr
 419              		.cfi_endproc
 420              	.LFE327:
 422              		.section	.text.HAL_HRTIM_MspDeInit,"ax",%progbits
 423              		.align	1
 424              		.weak	HAL_HRTIM_MspDeInit
 425              		.syntax unified
 426              		.thumb
 427              		.thumb_func
 428              		.fpu fpv4-sp-d16
 430              	HAL_HRTIM_MspDeInit:
 431              	.LFB328:
 740:Drivers/STM32G4xx_HAL_Driver/Src/stm32g4xx_hal_hrtim.c **** 
 741:Drivers/STM32G4xx_HAL_Driver/Src/stm32g4xx_hal_hrtim.c **** /**
 742:Drivers/STM32G4xx_HAL_Driver/Src/stm32g4xx_hal_hrtim.c ****   * @brief  MSP de-initialization of a HRTIM instance
 743:Drivers/STM32G4xx_HAL_Driver/Src/stm32g4xx_hal_hrtim.c ****   * @param  hhrtim pointer to HAL HRTIM handle
 744:Drivers/STM32G4xx_HAL_Driver/Src/stm32g4xx_hal_hrtim.c ****   * @retval None
 745:Drivers/STM32G4xx_HAL_Driver/Src/stm32g4xx_hal_hrtim.c ****   */
 746:Drivers/STM32G4xx_HAL_Driver/Src/stm32g4xx_hal_hrtim.c **** __weak void HAL_HRTIM_MspDeInit(HRTIM_HandleTypeDef * hhrtim)
 747:Drivers/STM32G4xx_HAL_Driver/Src/stm32g4xx_hal_hrtim.c **** {
 432              		.loc 1 747 1
 433              		.cfi_startproc
 434              		@ args = 0, pretend = 0, frame = 8
 435              		@ frame_needed = 1, uses_anonymous_args = 0
 436              		@ link register save eliminated.
 437 0000 80B4     		push	{r7}
 438              	.LCFI16:
 439              		.cfi_def_cfa_offset 4
 440              		.cfi_offset 7, -4
 441 0002 83B0     		sub	sp, sp, #12
 442              	.LCFI17:
 443              		.cfi_def_cfa_offset 16
 444 0004 00AF     		add	r7, sp, #0
 445              	.LCFI18:
 446              		.cfi_def_cfa_register 7
 447 0006 7860     		str	r0, [r7, #4]
 748:Drivers/STM32G4xx_HAL_Driver/Src/stm32g4xx_hal_hrtim.c ****   /* Prevent unused argument(s) compilation warning */
 749:Drivers/STM32G4xx_HAL_Driver/Src/stm32g4xx_hal_hrtim.c ****   UNUSED(hhrtim);
 750:Drivers/STM32G4xx_HAL_Driver/Src/stm32g4xx_hal_hrtim.c **** 
 751:Drivers/STM32G4xx_HAL_Driver/Src/stm32g4xx_hal_hrtim.c ****   /* NOTE: This function should not be modified, when the callback is needed,
 752:Drivers/STM32G4xx_HAL_Driver/Src/stm32g4xx_hal_hrtim.c ****            the HAL_HRTIM_MspDeInit could be implemented in the user file
 753:Drivers/STM32G4xx_HAL_Driver/Src/stm32g4xx_hal_hrtim.c ****    */
 754:Drivers/STM32G4xx_HAL_Driver/Src/stm32g4xx_hal_hrtim.c **** }
 448              		.loc 1 754 1
 449 0008 00BF     		nop
 450 000a 0C37     		adds	r7, r7, #12
ARM GAS  /tmp/cclQbFqw.s 			page 22


 451              	.LCFI19:
 452              		.cfi_def_cfa_offset 4
 453 000c BD46     		mov	sp, r7
 454              	.LCFI20:
 455              		.cfi_def_cfa_register 13
 456              		@ sp needed
 457 000e 5DF8047B 		ldr	r7, [sp], #4
 458              	.LCFI21:
 459              		.cfi_restore 7
 460              		.cfi_def_cfa_offset 0
 461 0012 7047     		bx	lr
 462              		.cfi_endproc
 463              	.LFE328:
 465              		.section	.text.HAL_HRTIM_DLLCalibrationStart,"ax",%progbits
 466              		.align	1
 467              		.global	HAL_HRTIM_DLLCalibrationStart
 468              		.syntax unified
 469              		.thumb
 470              		.thumb_func
 471              		.fpu fpv4-sp-d16
 473              	HAL_HRTIM_DLLCalibrationStart:
 474              	.LFB329:
 755:Drivers/STM32G4xx_HAL_Driver/Src/stm32g4xx_hal_hrtim.c **** 
 756:Drivers/STM32G4xx_HAL_Driver/Src/stm32g4xx_hal_hrtim.c **** /**
 757:Drivers/STM32G4xx_HAL_Driver/Src/stm32g4xx_hal_hrtim.c ****   * @brief  Start the DLL calibration
 758:Drivers/STM32G4xx_HAL_Driver/Src/stm32g4xx_hal_hrtim.c ****   * @param  hhrtim pointer to HAL HRTIM handle
 759:Drivers/STM32G4xx_HAL_Driver/Src/stm32g4xx_hal_hrtim.c ****   * @param  CalibrationRate DLL calibration period
 760:Drivers/STM32G4xx_HAL_Driver/Src/stm32g4xx_hal_hrtim.c ****   *                    This parameter can be one of the following values:
 761:Drivers/STM32G4xx_HAL_Driver/Src/stm32g4xx_hal_hrtim.c ****   *                    @arg HRTIM_SINGLE_CALIBRATION: One shot DLL calibration
 762:Drivers/STM32G4xx_HAL_Driver/Src/stm32g4xx_hal_hrtim.c ****   *                    @arg HRTIM_CALIBRATIONRATE_0: Periodic DLL calibration. T=6.168 ms
 763:Drivers/STM32G4xx_HAL_Driver/Src/stm32g4xx_hal_hrtim.c ****   *                    @arg HRTIM_CALIBRATIONRATE_1: Periodic DLL calibration. T=0.771 ms
 764:Drivers/STM32G4xx_HAL_Driver/Src/stm32g4xx_hal_hrtim.c ****   *                    @arg HRTIM_CALIBRATIONRATE_2: Periodic DLL calibration. T=0.096 ms
 765:Drivers/STM32G4xx_HAL_Driver/Src/stm32g4xx_hal_hrtim.c ****   *                    @arg HRTIM_CALIBRATIONRATE_3: Periodic DLL calibration. T=0.012 ms
 766:Drivers/STM32G4xx_HAL_Driver/Src/stm32g4xx_hal_hrtim.c ****   * @retval HAL status
 767:Drivers/STM32G4xx_HAL_Driver/Src/stm32g4xx_hal_hrtim.c ****   * @note This function locks the HRTIM instance. HRTIM instance is unlocked
 768:Drivers/STM32G4xx_HAL_Driver/Src/stm32g4xx_hal_hrtim.c ****   *       within the HAL_HRTIM_PollForDLLCalibration function, just before
 769:Drivers/STM32G4xx_HAL_Driver/Src/stm32g4xx_hal_hrtim.c ****   *       exiting the function.
 770:Drivers/STM32G4xx_HAL_Driver/Src/stm32g4xx_hal_hrtim.c ****   */
 771:Drivers/STM32G4xx_HAL_Driver/Src/stm32g4xx_hal_hrtim.c **** HAL_StatusTypeDef HAL_HRTIM_DLLCalibrationStart(HRTIM_HandleTypeDef * hhrtim,
 772:Drivers/STM32G4xx_HAL_Driver/Src/stm32g4xx_hal_hrtim.c ****                                                 uint32_t CalibrationRate)
 773:Drivers/STM32G4xx_HAL_Driver/Src/stm32g4xx_hal_hrtim.c **** {
 475              		.loc 1 773 1
 476              		.cfi_startproc
 477              		@ args = 0, pretend = 0, frame = 8
 478              		@ frame_needed = 1, uses_anonymous_args = 0
 479              		@ link register save eliminated.
 480 0000 80B4     		push	{r7}
 481              	.LCFI22:
 482              		.cfi_def_cfa_offset 4
 483              		.cfi_offset 7, -4
 484 0002 83B0     		sub	sp, sp, #12
 485              	.LCFI23:
 486              		.cfi_def_cfa_offset 16
 487 0004 00AF     		add	r7, sp, #0
 488              	.LCFI24:
 489              		.cfi_def_cfa_register 7
 490 0006 7860     		str	r0, [r7, #4]
ARM GAS  /tmp/cclQbFqw.s 			page 23


 491 0008 3960     		str	r1, [r7]
 774:Drivers/STM32G4xx_HAL_Driver/Src/stm32g4xx_hal_hrtim.c ****   /* Check the parameters */
 775:Drivers/STM32G4xx_HAL_Driver/Src/stm32g4xx_hal_hrtim.c ****   assert_param(IS_HRTIM_CALIBRATIONRATE(CalibrationRate));
 776:Drivers/STM32G4xx_HAL_Driver/Src/stm32g4xx_hal_hrtim.c **** 
 777:Drivers/STM32G4xx_HAL_Driver/Src/stm32g4xx_hal_hrtim.c ****   /* Process Locked */
 778:Drivers/STM32G4xx_HAL_Driver/Src/stm32g4xx_hal_hrtim.c ****   __HAL_LOCK(hhrtim);
 492              		.loc 1 778 3
 493 000a 7B68     		ldr	r3, [r7, #4]
 494 000c 93F8DC30 		ldrb	r3, [r3, #220]	@ zero_extendqisi2
 495 0010 012B     		cmp	r3, #1
 496 0012 01D1     		bne	.L17
 497              		.loc 1 778 3 is_stmt 0 discriminator 1
 498 0014 0223     		movs	r3, #2
 499 0016 41E0     		b	.L18
 500              	.L17:
 501              		.loc 1 778 3 discriminator 2
 502 0018 7B68     		ldr	r3, [r7, #4]
 503 001a 0122     		movs	r2, #1
 504 001c 83F8DC20 		strb	r2, [r3, #220]
 779:Drivers/STM32G4xx_HAL_Driver/Src/stm32g4xx_hal_hrtim.c **** 
 780:Drivers/STM32G4xx_HAL_Driver/Src/stm32g4xx_hal_hrtim.c ****   hhrtim->State = HAL_HRTIM_STATE_BUSY;
 505              		.loc 1 780 17 is_stmt 1 discriminator 2
 506 0020 7B68     		ldr	r3, [r7, #4]
 507 0022 0222     		movs	r2, #2
 508 0024 83F8DD20 		strb	r2, [r3, #221]
 781:Drivers/STM32G4xx_HAL_Driver/Src/stm32g4xx_hal_hrtim.c **** 
 782:Drivers/STM32G4xx_HAL_Driver/Src/stm32g4xx_hal_hrtim.c ****   if (CalibrationRate == HRTIM_SINGLE_CALIBRATION)
 509              		.loc 1 782 6 discriminator 2
 510 0028 3B68     		ldr	r3, [r7]
 511 002a B3F1FF3F 		cmp	r3, #-1
 512 002e 14D1     		bne	.L19
 783:Drivers/STM32G4xx_HAL_Driver/Src/stm32g4xx_hal_hrtim.c ****   {
 784:Drivers/STM32G4xx_HAL_Driver/Src/stm32g4xx_hal_hrtim.c ****     /* One shot DLL calibration */
 785:Drivers/STM32G4xx_HAL_Driver/Src/stm32g4xx_hal_hrtim.c ****     CLEAR_BIT(hhrtim->Instance->sCommonRegs.DLLCR, HRTIM_DLLCR_CALEN);
 513              		.loc 1 785 5
 514 0030 7B68     		ldr	r3, [r7, #4]
 515 0032 1B68     		ldr	r3, [r3]
 516 0034 D3F8CC23 		ldr	r2, [r3, #972]
 517 0038 7B68     		ldr	r3, [r7, #4]
 518 003a 1B68     		ldr	r3, [r3]
 519 003c 22F00202 		bic	r2, r2, #2
 520 0040 C3F8CC23 		str	r2, [r3, #972]
 786:Drivers/STM32G4xx_HAL_Driver/Src/stm32g4xx_hal_hrtim.c ****     SET_BIT(hhrtim->Instance->sCommonRegs.DLLCR, HRTIM_DLLCR_CAL);
 521              		.loc 1 786 5
 522 0044 7B68     		ldr	r3, [r7, #4]
 523 0046 1B68     		ldr	r3, [r3]
 524 0048 D3F8CC23 		ldr	r2, [r3, #972]
 525 004c 7B68     		ldr	r3, [r7, #4]
 526 004e 1B68     		ldr	r3, [r3]
 527 0050 42F00102 		orr	r2, r2, #1
 528 0054 C3F8CC23 		str	r2, [r3, #972]
 529 0058 1FE0     		b	.L20
 530              	.L19:
 787:Drivers/STM32G4xx_HAL_Driver/Src/stm32g4xx_hal_hrtim.c ****   }
 788:Drivers/STM32G4xx_HAL_Driver/Src/stm32g4xx_hal_hrtim.c ****   else
 789:Drivers/STM32G4xx_HAL_Driver/Src/stm32g4xx_hal_hrtim.c ****   {
 790:Drivers/STM32G4xx_HAL_Driver/Src/stm32g4xx_hal_hrtim.c ****     /* Periodic DLL calibration */
ARM GAS  /tmp/cclQbFqw.s 			page 24


 791:Drivers/STM32G4xx_HAL_Driver/Src/stm32g4xx_hal_hrtim.c ****     SET_BIT(hhrtim->Instance->sCommonRegs.DLLCR, HRTIM_DLLCR_CALEN);
 531              		.loc 1 791 5
 532 005a 7B68     		ldr	r3, [r7, #4]
 533 005c 1B68     		ldr	r3, [r3]
 534 005e D3F8CC23 		ldr	r2, [r3, #972]
 535 0062 7B68     		ldr	r3, [r7, #4]
 536 0064 1B68     		ldr	r3, [r3]
 537 0066 42F00202 		orr	r2, r2, #2
 538 006a C3F8CC23 		str	r2, [r3, #972]
 792:Drivers/STM32G4xx_HAL_Driver/Src/stm32g4xx_hal_hrtim.c ****     MODIFY_REG(hhrtim->Instance->sCommonRegs.DLLCR, HRTIM_DLLCR_CALRTE, CalibrationRate);
 539              		.loc 1 792 5
 540 006e 7B68     		ldr	r3, [r7, #4]
 541 0070 1B68     		ldr	r3, [r3]
 542 0072 D3F8CC33 		ldr	r3, [r3, #972]
 543 0076 23F00C01 		bic	r1, r3, #12
 544 007a 7B68     		ldr	r3, [r7, #4]
 545 007c 1B68     		ldr	r3, [r3]
 546 007e 3A68     		ldr	r2, [r7]
 547 0080 0A43     		orrs	r2, r2, r1
 548 0082 C3F8CC23 		str	r2, [r3, #972]
 793:Drivers/STM32G4xx_HAL_Driver/Src/stm32g4xx_hal_hrtim.c ****     SET_BIT(hhrtim->Instance->sCommonRegs.DLLCR, HRTIM_DLLCR_CAL);
 549              		.loc 1 793 5
 550 0086 7B68     		ldr	r3, [r7, #4]
 551 0088 1B68     		ldr	r3, [r3]
 552 008a D3F8CC23 		ldr	r2, [r3, #972]
 553 008e 7B68     		ldr	r3, [r7, #4]
 554 0090 1B68     		ldr	r3, [r3]
 555 0092 42F00102 		orr	r2, r2, #1
 556 0096 C3F8CC23 		str	r2, [r3, #972]
 557              	.L20:
 794:Drivers/STM32G4xx_HAL_Driver/Src/stm32g4xx_hal_hrtim.c ****   }
 795:Drivers/STM32G4xx_HAL_Driver/Src/stm32g4xx_hal_hrtim.c **** 
 796:Drivers/STM32G4xx_HAL_Driver/Src/stm32g4xx_hal_hrtim.c ****   return HAL_OK;
 558              		.loc 1 796 10
 559 009a 0023     		movs	r3, #0
 560              	.L18:
 797:Drivers/STM32G4xx_HAL_Driver/Src/stm32g4xx_hal_hrtim.c **** }
 561              		.loc 1 797 1
 562 009c 1846     		mov	r0, r3
 563 009e 0C37     		adds	r7, r7, #12
 564              	.LCFI25:
 565              		.cfi_def_cfa_offset 4
 566 00a0 BD46     		mov	sp, r7
 567              	.LCFI26:
 568              		.cfi_def_cfa_register 13
 569              		@ sp needed
 570 00a2 5DF8047B 		ldr	r7, [sp], #4
 571              	.LCFI27:
 572              		.cfi_restore 7
 573              		.cfi_def_cfa_offset 0
 574 00a6 7047     		bx	lr
 575              		.cfi_endproc
 576              	.LFE329:
 578              		.section	.text.HAL_HRTIM_DLLCalibrationStart_IT,"ax",%progbits
 579              		.align	1
 580              		.global	HAL_HRTIM_DLLCalibrationStart_IT
 581              		.syntax unified
ARM GAS  /tmp/cclQbFqw.s 			page 25


 582              		.thumb
 583              		.thumb_func
 584              		.fpu fpv4-sp-d16
 586              	HAL_HRTIM_DLLCalibrationStart_IT:
 587              	.LFB330:
 798:Drivers/STM32G4xx_HAL_Driver/Src/stm32g4xx_hal_hrtim.c **** 
 799:Drivers/STM32G4xx_HAL_Driver/Src/stm32g4xx_hal_hrtim.c **** /**
 800:Drivers/STM32G4xx_HAL_Driver/Src/stm32g4xx_hal_hrtim.c ****   * @brief  Start the DLL calibration.
 801:Drivers/STM32G4xx_HAL_Driver/Src/stm32g4xx_hal_hrtim.c ****   *         DLL ready interrupt is enabled
 802:Drivers/STM32G4xx_HAL_Driver/Src/stm32g4xx_hal_hrtim.c ****   * @param  hhrtim pointer to HAL HRTIM handle
 803:Drivers/STM32G4xx_HAL_Driver/Src/stm32g4xx_hal_hrtim.c ****   * @param  CalibrationRate DLL calibration period
 804:Drivers/STM32G4xx_HAL_Driver/Src/stm32g4xx_hal_hrtim.c ****   *                    This parameter can be one of the following values:
 805:Drivers/STM32G4xx_HAL_Driver/Src/stm32g4xx_hal_hrtim.c ****   *                    @arg HRTIM_SINGLE_CALIBRATION: One shot DLL calibration
 806:Drivers/STM32G4xx_HAL_Driver/Src/stm32g4xx_hal_hrtim.c ****   *                    @arg HRTIM_CALIBRATIONRATE_0: Periodic DLL calibration. T=6.168 ms
 807:Drivers/STM32G4xx_HAL_Driver/Src/stm32g4xx_hal_hrtim.c ****   *                    @arg HRTIM_CALIBRATIONRATE_1: Periodic DLL calibration. T=0.771 ms
 808:Drivers/STM32G4xx_HAL_Driver/Src/stm32g4xx_hal_hrtim.c ****   *                    @arg HRTIM_CALIBRATIONRATE_2: Periodic DLL calibration. T=0.096 ms
 809:Drivers/STM32G4xx_HAL_Driver/Src/stm32g4xx_hal_hrtim.c ****   *                    @arg HRTIM_CALIBRATIONRATE_3: Periodic DLL calibration. T=0.012 ms
 810:Drivers/STM32G4xx_HAL_Driver/Src/stm32g4xx_hal_hrtim.c ****   * @retval HAL status
 811:Drivers/STM32G4xx_HAL_Driver/Src/stm32g4xx_hal_hrtim.c ****   * @note This function locks the HRTIM instance. HRTIM instance is unlocked
 812:Drivers/STM32G4xx_HAL_Driver/Src/stm32g4xx_hal_hrtim.c ****   *       within the IRQ processing function when processing the DLL ready
 813:Drivers/STM32G4xx_HAL_Driver/Src/stm32g4xx_hal_hrtim.c ****   *       interrupt.
 814:Drivers/STM32G4xx_HAL_Driver/Src/stm32g4xx_hal_hrtim.c ****   * @note If this function is called for periodic calibration, the DLLRDY
 815:Drivers/STM32G4xx_HAL_Driver/Src/stm32g4xx_hal_hrtim.c ****   *       interrupt is generated every time the calibration completes which
 816:Drivers/STM32G4xx_HAL_Driver/Src/stm32g4xx_hal_hrtim.c ****   *       will significantly increases the overall interrupt rate.
 817:Drivers/STM32G4xx_HAL_Driver/Src/stm32g4xx_hal_hrtim.c ****   */
 818:Drivers/STM32G4xx_HAL_Driver/Src/stm32g4xx_hal_hrtim.c **** HAL_StatusTypeDef HAL_HRTIM_DLLCalibrationStart_IT(HRTIM_HandleTypeDef * hhrtim,
 819:Drivers/STM32G4xx_HAL_Driver/Src/stm32g4xx_hal_hrtim.c ****                                                    uint32_t CalibrationRate)
 820:Drivers/STM32G4xx_HAL_Driver/Src/stm32g4xx_hal_hrtim.c **** {
 588              		.loc 1 820 1
 589              		.cfi_startproc
 590              		@ args = 0, pretend = 0, frame = 8
 591              		@ frame_needed = 1, uses_anonymous_args = 0
 592              		@ link register save eliminated.
 593 0000 80B4     		push	{r7}
 594              	.LCFI28:
 595              		.cfi_def_cfa_offset 4
 596              		.cfi_offset 7, -4
 597 0002 83B0     		sub	sp, sp, #12
 598              	.LCFI29:
 599              		.cfi_def_cfa_offset 16
 600 0004 00AF     		add	r7, sp, #0
 601              	.LCFI30:
 602              		.cfi_def_cfa_register 7
 603 0006 7860     		str	r0, [r7, #4]
 604 0008 3960     		str	r1, [r7]
 821:Drivers/STM32G4xx_HAL_Driver/Src/stm32g4xx_hal_hrtim.c ****   /* Check the parameters */
 822:Drivers/STM32G4xx_HAL_Driver/Src/stm32g4xx_hal_hrtim.c ****   assert_param(IS_HRTIM_CALIBRATIONRATE(CalibrationRate));
 823:Drivers/STM32G4xx_HAL_Driver/Src/stm32g4xx_hal_hrtim.c **** 
 824:Drivers/STM32G4xx_HAL_Driver/Src/stm32g4xx_hal_hrtim.c ****   /* Process Locked */
 825:Drivers/STM32G4xx_HAL_Driver/Src/stm32g4xx_hal_hrtim.c ****   __HAL_LOCK(hhrtim);
 605              		.loc 1 825 3
 606 000a 7B68     		ldr	r3, [r7, #4]
 607 000c 93F8DC30 		ldrb	r3, [r3, #220]	@ zero_extendqisi2
 608 0010 012B     		cmp	r3, #1
 609 0012 01D1     		bne	.L22
 610              		.loc 1 825 3 is_stmt 0 discriminator 1
 611 0014 0223     		movs	r3, #2
ARM GAS  /tmp/cclQbFqw.s 			page 26


 612 0016 4BE0     		b	.L23
 613              	.L22:
 614              		.loc 1 825 3 discriminator 2
 615 0018 7B68     		ldr	r3, [r7, #4]
 616 001a 0122     		movs	r2, #1
 617 001c 83F8DC20 		strb	r2, [r3, #220]
 826:Drivers/STM32G4xx_HAL_Driver/Src/stm32g4xx_hal_hrtim.c **** 
 827:Drivers/STM32G4xx_HAL_Driver/Src/stm32g4xx_hal_hrtim.c ****   hhrtim->State = HAL_HRTIM_STATE_BUSY;
 618              		.loc 1 827 17 is_stmt 1 discriminator 2
 619 0020 7B68     		ldr	r3, [r7, #4]
 620 0022 0222     		movs	r2, #2
 621 0024 83F8DD20 		strb	r2, [r3, #221]
 828:Drivers/STM32G4xx_HAL_Driver/Src/stm32g4xx_hal_hrtim.c **** 
 829:Drivers/STM32G4xx_HAL_Driver/Src/stm32g4xx_hal_hrtim.c ****   /* Enable DLL Ready interrupt flag */
 830:Drivers/STM32G4xx_HAL_Driver/Src/stm32g4xx_hal_hrtim.c ****   __HAL_HRTIM_ENABLE_IT(hhrtim, HRTIM_IT_DLLRDY);
 622              		.loc 1 830 3 discriminator 2
 623 0028 7B68     		ldr	r3, [r7, #4]
 624 002a 1B68     		ldr	r3, [r3]
 625 002c D3F89023 		ldr	r2, [r3, #912]
 626 0030 7B68     		ldr	r3, [r7, #4]
 627 0032 1B68     		ldr	r3, [r3]
 628 0034 42F48032 		orr	r2, r2, #65536
 629 0038 C3F89023 		str	r2, [r3, #912]
 831:Drivers/STM32G4xx_HAL_Driver/Src/stm32g4xx_hal_hrtim.c **** 
 832:Drivers/STM32G4xx_HAL_Driver/Src/stm32g4xx_hal_hrtim.c ****   if (CalibrationRate == HRTIM_SINGLE_CALIBRATION)
 630              		.loc 1 832 6 discriminator 2
 631 003c 3B68     		ldr	r3, [r7]
 632 003e B3F1FF3F 		cmp	r3, #-1
 633 0042 14D1     		bne	.L24
 833:Drivers/STM32G4xx_HAL_Driver/Src/stm32g4xx_hal_hrtim.c ****   {
 834:Drivers/STM32G4xx_HAL_Driver/Src/stm32g4xx_hal_hrtim.c ****     /* One shot DLL calibration */
 835:Drivers/STM32G4xx_HAL_Driver/Src/stm32g4xx_hal_hrtim.c ****     CLEAR_BIT(hhrtim->Instance->sCommonRegs.DLLCR, HRTIM_DLLCR_CALEN);
 634              		.loc 1 835 5
 635 0044 7B68     		ldr	r3, [r7, #4]
 636 0046 1B68     		ldr	r3, [r3]
 637 0048 D3F8CC23 		ldr	r2, [r3, #972]
 638 004c 7B68     		ldr	r3, [r7, #4]
 639 004e 1B68     		ldr	r3, [r3]
 640 0050 22F00202 		bic	r2, r2, #2
 641 0054 C3F8CC23 		str	r2, [r3, #972]
 836:Drivers/STM32G4xx_HAL_Driver/Src/stm32g4xx_hal_hrtim.c ****     SET_BIT(hhrtim->Instance->sCommonRegs.DLLCR, HRTIM_DLLCR_CAL);
 642              		.loc 1 836 5
 643 0058 7B68     		ldr	r3, [r7, #4]
 644 005a 1B68     		ldr	r3, [r3]
 645 005c D3F8CC23 		ldr	r2, [r3, #972]
 646 0060 7B68     		ldr	r3, [r7, #4]
 647 0062 1B68     		ldr	r3, [r3]
 648 0064 42F00102 		orr	r2, r2, #1
 649 0068 C3F8CC23 		str	r2, [r3, #972]
 650 006c 1FE0     		b	.L25
 651              	.L24:
 837:Drivers/STM32G4xx_HAL_Driver/Src/stm32g4xx_hal_hrtim.c ****   }
 838:Drivers/STM32G4xx_HAL_Driver/Src/stm32g4xx_hal_hrtim.c ****   else
 839:Drivers/STM32G4xx_HAL_Driver/Src/stm32g4xx_hal_hrtim.c ****   {
 840:Drivers/STM32G4xx_HAL_Driver/Src/stm32g4xx_hal_hrtim.c ****     /* Periodic DLL calibration */
 841:Drivers/STM32G4xx_HAL_Driver/Src/stm32g4xx_hal_hrtim.c ****     SET_BIT(hhrtim->Instance->sCommonRegs.DLLCR, HRTIM_DLLCR_CALEN);
 652              		.loc 1 841 5
ARM GAS  /tmp/cclQbFqw.s 			page 27


 653 006e 7B68     		ldr	r3, [r7, #4]
 654 0070 1B68     		ldr	r3, [r3]
 655 0072 D3F8CC23 		ldr	r2, [r3, #972]
 656 0076 7B68     		ldr	r3, [r7, #4]
 657 0078 1B68     		ldr	r3, [r3]
 658 007a 42F00202 		orr	r2, r2, #2
 659 007e C3F8CC23 		str	r2, [r3, #972]
 842:Drivers/STM32G4xx_HAL_Driver/Src/stm32g4xx_hal_hrtim.c ****     MODIFY_REG(hhrtim->Instance->sCommonRegs.DLLCR, HRTIM_DLLCR_CALRTE, CalibrationRate);
 660              		.loc 1 842 5
 661 0082 7B68     		ldr	r3, [r7, #4]
 662 0084 1B68     		ldr	r3, [r3]
 663 0086 D3F8CC33 		ldr	r3, [r3, #972]
 664 008a 23F00C01 		bic	r1, r3, #12
 665 008e 7B68     		ldr	r3, [r7, #4]
 666 0090 1B68     		ldr	r3, [r3]
 667 0092 3A68     		ldr	r2, [r7]
 668 0094 0A43     		orrs	r2, r2, r1
 669 0096 C3F8CC23 		str	r2, [r3, #972]
 843:Drivers/STM32G4xx_HAL_Driver/Src/stm32g4xx_hal_hrtim.c ****     SET_BIT(hhrtim->Instance->sCommonRegs.DLLCR, HRTIM_DLLCR_CAL);
 670              		.loc 1 843 5
 671 009a 7B68     		ldr	r3, [r7, #4]
 672 009c 1B68     		ldr	r3, [r3]
 673 009e D3F8CC23 		ldr	r2, [r3, #972]
 674 00a2 7B68     		ldr	r3, [r7, #4]
 675 00a4 1B68     		ldr	r3, [r3]
 676 00a6 42F00102 		orr	r2, r2, #1
 677 00aa C3F8CC23 		str	r2, [r3, #972]
 678              	.L25:
 844:Drivers/STM32G4xx_HAL_Driver/Src/stm32g4xx_hal_hrtim.c ****   }
 845:Drivers/STM32G4xx_HAL_Driver/Src/stm32g4xx_hal_hrtim.c **** 
 846:Drivers/STM32G4xx_HAL_Driver/Src/stm32g4xx_hal_hrtim.c ****   return HAL_OK;
 679              		.loc 1 846 10
 680 00ae 0023     		movs	r3, #0
 681              	.L23:
 847:Drivers/STM32G4xx_HAL_Driver/Src/stm32g4xx_hal_hrtim.c **** }
 682              		.loc 1 847 1
 683 00b0 1846     		mov	r0, r3
 684 00b2 0C37     		adds	r7, r7, #12
 685              	.LCFI31:
 686              		.cfi_def_cfa_offset 4
 687 00b4 BD46     		mov	sp, r7
 688              	.LCFI32:
 689              		.cfi_def_cfa_register 13
 690              		@ sp needed
 691 00b6 5DF8047B 		ldr	r7, [sp], #4
 692              	.LCFI33:
 693              		.cfi_restore 7
 694              		.cfi_def_cfa_offset 0
 695 00ba 7047     		bx	lr
 696              		.cfi_endproc
 697              	.LFE330:
 699              		.section	.text.HAL_HRTIM_PollForDLLCalibration,"ax",%progbits
 700              		.align	1
 701              		.global	HAL_HRTIM_PollForDLLCalibration
 702              		.syntax unified
 703              		.thumb
 704              		.thumb_func
ARM GAS  /tmp/cclQbFqw.s 			page 28


 705              		.fpu fpv4-sp-d16
 707              	HAL_HRTIM_PollForDLLCalibration:
 708              	.LFB331:
 848:Drivers/STM32G4xx_HAL_Driver/Src/stm32g4xx_hal_hrtim.c **** 
 849:Drivers/STM32G4xx_HAL_Driver/Src/stm32g4xx_hal_hrtim.c **** /**
 850:Drivers/STM32G4xx_HAL_Driver/Src/stm32g4xx_hal_hrtim.c ****   * @brief  Poll the DLL calibration ready flag and returns when the flag is
 851:Drivers/STM32G4xx_HAL_Driver/Src/stm32g4xx_hal_hrtim.c ****   *         set (DLL calibration completed) or upon timeout expiration.
 852:Drivers/STM32G4xx_HAL_Driver/Src/stm32g4xx_hal_hrtim.c ****   * @param  hhrtim pointer to HAL HRTIM handle
 853:Drivers/STM32G4xx_HAL_Driver/Src/stm32g4xx_hal_hrtim.c ****   * @param  Timeout Timeout duration in millisecond
 854:Drivers/STM32G4xx_HAL_Driver/Src/stm32g4xx_hal_hrtim.c ****   * @retval HAL status
 855:Drivers/STM32G4xx_HAL_Driver/Src/stm32g4xx_hal_hrtim.c ****   */
 856:Drivers/STM32G4xx_HAL_Driver/Src/stm32g4xx_hal_hrtim.c **** HAL_StatusTypeDef HAL_HRTIM_PollForDLLCalibration(HRTIM_HandleTypeDef * hhrtim,
 857:Drivers/STM32G4xx_HAL_Driver/Src/stm32g4xx_hal_hrtim.c ****                                                   uint32_t Timeout)
 858:Drivers/STM32G4xx_HAL_Driver/Src/stm32g4xx_hal_hrtim.c **** {
 709              		.loc 1 858 1
 710              		.cfi_startproc
 711              		@ args = 0, pretend = 0, frame = 16
 712              		@ frame_needed = 1, uses_anonymous_args = 0
 713 0000 80B5     		push	{r7, lr}
 714              	.LCFI34:
 715              		.cfi_def_cfa_offset 8
 716              		.cfi_offset 7, -8
 717              		.cfi_offset 14, -4
 718 0002 84B0     		sub	sp, sp, #16
 719              	.LCFI35:
 720              		.cfi_def_cfa_offset 24
 721 0004 00AF     		add	r7, sp, #0
 722              	.LCFI36:
 723              		.cfi_def_cfa_register 7
 724 0006 7860     		str	r0, [r7, #4]
 725 0008 3960     		str	r1, [r7]
 859:Drivers/STM32G4xx_HAL_Driver/Src/stm32g4xx_hal_hrtim.c ****   uint32_t tickstart;
 860:Drivers/STM32G4xx_HAL_Driver/Src/stm32g4xx_hal_hrtim.c **** 
 861:Drivers/STM32G4xx_HAL_Driver/Src/stm32g4xx_hal_hrtim.c ****   tickstart = HAL_GetTick();
 726              		.loc 1 861 15
 727 000a FFF7FEFF 		bl	HAL_GetTick
 728 000e F860     		str	r0, [r7, #12]
 862:Drivers/STM32G4xx_HAL_Driver/Src/stm32g4xx_hal_hrtim.c **** 
 863:Drivers/STM32G4xx_HAL_Driver/Src/stm32g4xx_hal_hrtim.c ****   /* Check End of conversion flag */
 864:Drivers/STM32G4xx_HAL_Driver/Src/stm32g4xx_hal_hrtim.c ****   while(__HAL_HRTIM_GET_FLAG(hhrtim, HRTIM_IT_DLLRDY) == (uint32_t)RESET)
 729              		.loc 1 864 8
 730 0010 14E0     		b	.L27
 731              	.L30:
 865:Drivers/STM32G4xx_HAL_Driver/Src/stm32g4xx_hal_hrtim.c ****   {
 866:Drivers/STM32G4xx_HAL_Driver/Src/stm32g4xx_hal_hrtim.c ****     if (Timeout != HAL_MAX_DELAY)
 732              		.loc 1 866 8
 733 0012 3B68     		ldr	r3, [r7]
 734 0014 B3F1FF3F 		cmp	r3, #-1
 735 0018 10D0     		beq	.L27
 867:Drivers/STM32G4xx_HAL_Driver/Src/stm32g4xx_hal_hrtim.c ****     {
 868:Drivers/STM32G4xx_HAL_Driver/Src/stm32g4xx_hal_hrtim.c ****       if(((HAL_GetTick()-tickstart) > Timeout) || (Timeout == 0U))
 736              		.loc 1 868 12
 737 001a FFF7FEFF 		bl	HAL_GetTick
 738 001e 0246     		mov	r2, r0
 739              		.loc 1 868 25
 740 0020 FB68     		ldr	r3, [r7, #12]
 741 0022 D31A     		subs	r3, r2, r3
ARM GAS  /tmp/cclQbFqw.s 			page 29


 742              		.loc 1 868 9
 743 0024 3A68     		ldr	r2, [r7]
 744 0026 9A42     		cmp	r2, r3
 745 0028 02D3     		bcc	.L28
 746              		.loc 1 868 48 discriminator 1
 747 002a 3B68     		ldr	r3, [r7]
 748 002c 002B     		cmp	r3, #0
 749 002e 05D1     		bne	.L27
 750              	.L28:
 869:Drivers/STM32G4xx_HAL_Driver/Src/stm32g4xx_hal_hrtim.c ****       {
 870:Drivers/STM32G4xx_HAL_Driver/Src/stm32g4xx_hal_hrtim.c ****         hhrtim->State = HAL_HRTIM_STATE_ERROR;
 751              		.loc 1 870 23
 752 0030 7B68     		ldr	r3, [r7, #4]
 753 0032 0722     		movs	r2, #7
 754 0034 83F8DD20 		strb	r2, [r3, #221]
 871:Drivers/STM32G4xx_HAL_Driver/Src/stm32g4xx_hal_hrtim.c ****         return HAL_TIMEOUT;
 755              		.loc 1 871 16
 756 0038 0323     		movs	r3, #3
 757 003a 11E0     		b	.L29
 758              	.L27:
 864:Drivers/STM32G4xx_HAL_Driver/Src/stm32g4xx_hal_hrtim.c ****   {
 759              		.loc 1 864 9
 760 003c 7B68     		ldr	r3, [r7, #4]
 761 003e 1B68     		ldr	r3, [r3]
 762 0040 D3F88833 		ldr	r3, [r3, #904]
 763 0044 03F48033 		and	r3, r3, #65536
 864:Drivers/STM32G4xx_HAL_Driver/Src/stm32g4xx_hal_hrtim.c ****   {
 764              		.loc 1 864 8
 765 0048 B3F5803F 		cmp	r3, #65536
 766 004c E1D1     		bne	.L30
 872:Drivers/STM32G4xx_HAL_Driver/Src/stm32g4xx_hal_hrtim.c ****       }
 873:Drivers/STM32G4xx_HAL_Driver/Src/stm32g4xx_hal_hrtim.c ****     }
 874:Drivers/STM32G4xx_HAL_Driver/Src/stm32g4xx_hal_hrtim.c ****   }
 875:Drivers/STM32G4xx_HAL_Driver/Src/stm32g4xx_hal_hrtim.c **** 
 876:Drivers/STM32G4xx_HAL_Driver/Src/stm32g4xx_hal_hrtim.c ****   /* Set HRTIM State */
 877:Drivers/STM32G4xx_HAL_Driver/Src/stm32g4xx_hal_hrtim.c ****   hhrtim->State = HAL_HRTIM_STATE_READY;
 767              		.loc 1 877 17
 768 004e 7B68     		ldr	r3, [r7, #4]
 769 0050 0122     		movs	r2, #1
 770 0052 83F8DD20 		strb	r2, [r3, #221]
 878:Drivers/STM32G4xx_HAL_Driver/Src/stm32g4xx_hal_hrtim.c **** 
 879:Drivers/STM32G4xx_HAL_Driver/Src/stm32g4xx_hal_hrtim.c ****   /* Process unlocked */
 880:Drivers/STM32G4xx_HAL_Driver/Src/stm32g4xx_hal_hrtim.c ****   __HAL_UNLOCK(hhrtim);
 771              		.loc 1 880 3
 772 0056 7B68     		ldr	r3, [r7, #4]
 773 0058 0022     		movs	r2, #0
 774 005a 83F8DC20 		strb	r2, [r3, #220]
 881:Drivers/STM32G4xx_HAL_Driver/Src/stm32g4xx_hal_hrtim.c **** 
 882:Drivers/STM32G4xx_HAL_Driver/Src/stm32g4xx_hal_hrtim.c ****   return HAL_OK;
 775              		.loc 1 882 10
 776 005e 0023     		movs	r3, #0
 777              	.L29:
 883:Drivers/STM32G4xx_HAL_Driver/Src/stm32g4xx_hal_hrtim.c **** }
 778              		.loc 1 883 1
 779 0060 1846     		mov	r0, r3
 780 0062 1037     		adds	r7, r7, #16
 781              	.LCFI37:
ARM GAS  /tmp/cclQbFqw.s 			page 30


 782              		.cfi_def_cfa_offset 8
 783 0064 BD46     		mov	sp, r7
 784              	.LCFI38:
 785              		.cfi_def_cfa_register 13
 786              		@ sp needed
 787 0066 80BD     		pop	{r7, pc}
 788              		.cfi_endproc
 789              	.LFE331:
 791              		.section	.text.HAL_HRTIM_TimeBaseConfig,"ax",%progbits
 792              		.align	1
 793              		.global	HAL_HRTIM_TimeBaseConfig
 794              		.syntax unified
 795              		.thumb
 796              		.thumb_func
 797              		.fpu fpv4-sp-d16
 799              	HAL_HRTIM_TimeBaseConfig:
 800              	.LFB332:
 884:Drivers/STM32G4xx_HAL_Driver/Src/stm32g4xx_hal_hrtim.c **** 
 885:Drivers/STM32G4xx_HAL_Driver/Src/stm32g4xx_hal_hrtim.c **** /**
 886:Drivers/STM32G4xx_HAL_Driver/Src/stm32g4xx_hal_hrtim.c ****   * @brief  Configure the time base unit of a timer
 887:Drivers/STM32G4xx_HAL_Driver/Src/stm32g4xx_hal_hrtim.c ****   * @param  hhrtim pointer to HAL HRTIM handle
 888:Drivers/STM32G4xx_HAL_Driver/Src/stm32g4xx_hal_hrtim.c ****   * @param  TimerIdx Timer index
 889:Drivers/STM32G4xx_HAL_Driver/Src/stm32g4xx_hal_hrtim.c ****   *                   This parameter can be one of the following values:
 890:Drivers/STM32G4xx_HAL_Driver/Src/stm32g4xx_hal_hrtim.c ****   *                   @arg HRTIM_TIMERINDEX_MASTER for master timer
 891:Drivers/STM32G4xx_HAL_Driver/Src/stm32g4xx_hal_hrtim.c ****   *                   @arg HRTIM_TIMERINDEX_TIMER_A for timer A
 892:Drivers/STM32G4xx_HAL_Driver/Src/stm32g4xx_hal_hrtim.c ****   *                   @arg HRTIM_TIMERINDEX_TIMER_B for timer B
 893:Drivers/STM32G4xx_HAL_Driver/Src/stm32g4xx_hal_hrtim.c ****   *                   @arg HRTIM_TIMERINDEX_TIMER_C for timer C
 894:Drivers/STM32G4xx_HAL_Driver/Src/stm32g4xx_hal_hrtim.c ****   *                   @arg HRTIM_TIMERINDEX_TIMER_D for timer D
 895:Drivers/STM32G4xx_HAL_Driver/Src/stm32g4xx_hal_hrtim.c ****   *                   @arg HRTIM_TIMERINDEX_TIMER_E for timer E
 896:Drivers/STM32G4xx_HAL_Driver/Src/stm32g4xx_hal_hrtim.c ****   *                   @arg HRTIM_TIMERINDEX_TIMER_F for timer F
 897:Drivers/STM32G4xx_HAL_Driver/Src/stm32g4xx_hal_hrtim.c ****   * @param  pTimeBaseCfg pointer to the time base configuration structure
 898:Drivers/STM32G4xx_HAL_Driver/Src/stm32g4xx_hal_hrtim.c ****   * @note This function must be called prior starting the timer
 899:Drivers/STM32G4xx_HAL_Driver/Src/stm32g4xx_hal_hrtim.c ****   * @note   The time-base unit initialization parameters specify:
 900:Drivers/STM32G4xx_HAL_Driver/Src/stm32g4xx_hal_hrtim.c ****   *           The timer counter operating mode (continuous, one shot),
 901:Drivers/STM32G4xx_HAL_Driver/Src/stm32g4xx_hal_hrtim.c ****   *           The timer clock prescaler,
 902:Drivers/STM32G4xx_HAL_Driver/Src/stm32g4xx_hal_hrtim.c ****   *           The timer period,
 903:Drivers/STM32G4xx_HAL_Driver/Src/stm32g4xx_hal_hrtim.c ****   *           The timer repetition counter.
 904:Drivers/STM32G4xx_HAL_Driver/Src/stm32g4xx_hal_hrtim.c ****   * @retval HAL status
 905:Drivers/STM32G4xx_HAL_Driver/Src/stm32g4xx_hal_hrtim.c ****   */
 906:Drivers/STM32G4xx_HAL_Driver/Src/stm32g4xx_hal_hrtim.c **** HAL_StatusTypeDef HAL_HRTIM_TimeBaseConfig(HRTIM_HandleTypeDef *hhrtim,
 907:Drivers/STM32G4xx_HAL_Driver/Src/stm32g4xx_hal_hrtim.c ****                                            uint32_t TimerIdx,
 908:Drivers/STM32G4xx_HAL_Driver/Src/stm32g4xx_hal_hrtim.c ****                                            HRTIM_TimeBaseCfgTypeDef * pTimeBaseCfg)
 909:Drivers/STM32G4xx_HAL_Driver/Src/stm32g4xx_hal_hrtim.c **** {
 801              		.loc 1 909 1
 802              		.cfi_startproc
 803              		@ args = 0, pretend = 0, frame = 16
 804              		@ frame_needed = 1, uses_anonymous_args = 0
 805 0000 80B5     		push	{r7, lr}
 806              	.LCFI39:
 807              		.cfi_def_cfa_offset 8
 808              		.cfi_offset 7, -8
 809              		.cfi_offset 14, -4
 810 0002 84B0     		sub	sp, sp, #16
 811              	.LCFI40:
 812              		.cfi_def_cfa_offset 24
 813 0004 00AF     		add	r7, sp, #0
 814              	.LCFI41:
ARM GAS  /tmp/cclQbFqw.s 			page 31


 815              		.cfi_def_cfa_register 7
 816 0006 F860     		str	r0, [r7, #12]
 817 0008 B960     		str	r1, [r7, #8]
 818 000a 7A60     		str	r2, [r7, #4]
 910:Drivers/STM32G4xx_HAL_Driver/Src/stm32g4xx_hal_hrtim.c ****   /* Check the parameters */
 911:Drivers/STM32G4xx_HAL_Driver/Src/stm32g4xx_hal_hrtim.c ****   assert_param(IS_HRTIM_TIMERINDEX(TimerIdx));
 912:Drivers/STM32G4xx_HAL_Driver/Src/stm32g4xx_hal_hrtim.c ****   assert_param(IS_HRTIM_PRESCALERRATIO(pTimeBaseCfg->PrescalerRatio));
 913:Drivers/STM32G4xx_HAL_Driver/Src/stm32g4xx_hal_hrtim.c ****   assert_param(IS_HRTIM_MODE(pTimeBaseCfg->Mode));
 914:Drivers/STM32G4xx_HAL_Driver/Src/stm32g4xx_hal_hrtim.c **** 
 915:Drivers/STM32G4xx_HAL_Driver/Src/stm32g4xx_hal_hrtim.c ****   if(hhrtim->State == HAL_HRTIM_STATE_BUSY)
 819              		.loc 1 915 12
 820 000c FB68     		ldr	r3, [r7, #12]
 821 000e 93F8DD30 		ldrb	r3, [r3, #221]
 822 0012 DBB2     		uxtb	r3, r3
 823              		.loc 1 915 5
 824 0014 022B     		cmp	r3, #2
 825 0016 01D1     		bne	.L32
 916:Drivers/STM32G4xx_HAL_Driver/Src/stm32g4xx_hal_hrtim.c ****   {
 917:Drivers/STM32G4xx_HAL_Driver/Src/stm32g4xx_hal_hrtim.c ****      return HAL_BUSY;
 826              		.loc 1 917 13
 827 0018 0223     		movs	r3, #2
 828 001a 15E0     		b	.L33
 829              	.L32:
 918:Drivers/STM32G4xx_HAL_Driver/Src/stm32g4xx_hal_hrtim.c ****   }
 919:Drivers/STM32G4xx_HAL_Driver/Src/stm32g4xx_hal_hrtim.c **** 
 920:Drivers/STM32G4xx_HAL_Driver/Src/stm32g4xx_hal_hrtim.c ****   /* Set the HRTIM state */
 921:Drivers/STM32G4xx_HAL_Driver/Src/stm32g4xx_hal_hrtim.c ****   hhrtim->State = HAL_HRTIM_STATE_BUSY;
 830              		.loc 1 921 17
 831 001c FB68     		ldr	r3, [r7, #12]
 832 001e 0222     		movs	r2, #2
 833 0020 83F8DD20 		strb	r2, [r3, #221]
 922:Drivers/STM32G4xx_HAL_Driver/Src/stm32g4xx_hal_hrtim.c **** 
 923:Drivers/STM32G4xx_HAL_Driver/Src/stm32g4xx_hal_hrtim.c ****   if (TimerIdx == HRTIM_TIMERINDEX_MASTER)
 834              		.loc 1 923 6
 835 0024 BB68     		ldr	r3, [r7, #8]
 836 0026 062B     		cmp	r3, #6
 837 0028 04D1     		bne	.L34
 924:Drivers/STM32G4xx_HAL_Driver/Src/stm32g4xx_hal_hrtim.c ****   {
 925:Drivers/STM32G4xx_HAL_Driver/Src/stm32g4xx_hal_hrtim.c ****     /* Configure master timer time base unit */
 926:Drivers/STM32G4xx_HAL_Driver/Src/stm32g4xx_hal_hrtim.c ****     HRTIM_MasterBase_Config(hhrtim, pTimeBaseCfg);
 838              		.loc 1 926 5
 839 002a 7968     		ldr	r1, [r7, #4]
 840 002c F868     		ldr	r0, [r7, #12]
 841 002e FFF7FEFF 		bl	HRTIM_MasterBase_Config
 842 0032 04E0     		b	.L35
 843              	.L34:
 927:Drivers/STM32G4xx_HAL_Driver/Src/stm32g4xx_hal_hrtim.c ****   }
 928:Drivers/STM32G4xx_HAL_Driver/Src/stm32g4xx_hal_hrtim.c ****   else
 929:Drivers/STM32G4xx_HAL_Driver/Src/stm32g4xx_hal_hrtim.c ****   {
 930:Drivers/STM32G4xx_HAL_Driver/Src/stm32g4xx_hal_hrtim.c ****     /* Configure timing unit time base unit */
 931:Drivers/STM32G4xx_HAL_Driver/Src/stm32g4xx_hal_hrtim.c ****     HRTIM_TimingUnitBase_Config(hhrtim, TimerIdx, pTimeBaseCfg);
 844              		.loc 1 931 5
 845 0034 7A68     		ldr	r2, [r7, #4]
 846 0036 B968     		ldr	r1, [r7, #8]
 847 0038 F868     		ldr	r0, [r7, #12]
 848 003a FFF7FEFF 		bl	HRTIM_TimingUnitBase_Config
 849              	.L35:
ARM GAS  /tmp/cclQbFqw.s 			page 32


 932:Drivers/STM32G4xx_HAL_Driver/Src/stm32g4xx_hal_hrtim.c ****   }
 933:Drivers/STM32G4xx_HAL_Driver/Src/stm32g4xx_hal_hrtim.c **** 
 934:Drivers/STM32G4xx_HAL_Driver/Src/stm32g4xx_hal_hrtim.c ****   /* Set HRTIM state */
 935:Drivers/STM32G4xx_HAL_Driver/Src/stm32g4xx_hal_hrtim.c ****   hhrtim->State = HAL_HRTIM_STATE_READY;
 850              		.loc 1 935 17
 851 003e FB68     		ldr	r3, [r7, #12]
 852 0040 0122     		movs	r2, #1
 853 0042 83F8DD20 		strb	r2, [r3, #221]
 936:Drivers/STM32G4xx_HAL_Driver/Src/stm32g4xx_hal_hrtim.c **** 
 937:Drivers/STM32G4xx_HAL_Driver/Src/stm32g4xx_hal_hrtim.c ****   return HAL_OK;
 854              		.loc 1 937 10
 855 0046 0023     		movs	r3, #0
 856              	.L33:
 938:Drivers/STM32G4xx_HAL_Driver/Src/stm32g4xx_hal_hrtim.c **** }
 857              		.loc 1 938 1
 858 0048 1846     		mov	r0, r3
 859 004a 1037     		adds	r7, r7, #16
 860              	.LCFI42:
 861              		.cfi_def_cfa_offset 8
 862 004c BD46     		mov	sp, r7
 863              	.LCFI43:
 864              		.cfi_def_cfa_register 13
 865              		@ sp needed
 866 004e 80BD     		pop	{r7, pc}
 867              		.cfi_endproc
 868              	.LFE332:
 870              		.section	.text.HAL_HRTIM_SimpleBaseStart,"ax",%progbits
 871              		.align	1
 872              		.global	HAL_HRTIM_SimpleBaseStart
 873              		.syntax unified
 874              		.thumb
 875              		.thumb_func
 876              		.fpu fpv4-sp-d16
 878              	HAL_HRTIM_SimpleBaseStart:
 879              	.LFB333:
 939:Drivers/STM32G4xx_HAL_Driver/Src/stm32g4xx_hal_hrtim.c **** 
 940:Drivers/STM32G4xx_HAL_Driver/Src/stm32g4xx_hal_hrtim.c **** /**
 941:Drivers/STM32G4xx_HAL_Driver/Src/stm32g4xx_hal_hrtim.c ****   * @}
 942:Drivers/STM32G4xx_HAL_Driver/Src/stm32g4xx_hal_hrtim.c ****   */
 943:Drivers/STM32G4xx_HAL_Driver/Src/stm32g4xx_hal_hrtim.c **** 
 944:Drivers/STM32G4xx_HAL_Driver/Src/stm32g4xx_hal_hrtim.c **** /** @defgroup HRTIM_Exported_Functions_Group2 Simple time base mode functions
 945:Drivers/STM32G4xx_HAL_Driver/Src/stm32g4xx_hal_hrtim.c ****  *  @brief    Simple time base mode functions.
 946:Drivers/STM32G4xx_HAL_Driver/Src/stm32g4xx_hal_hrtim.c **** @verbatim
 947:Drivers/STM32G4xx_HAL_Driver/Src/stm32g4xx_hal_hrtim.c ****  ===============================================================================
 948:Drivers/STM32G4xx_HAL_Driver/Src/stm32g4xx_hal_hrtim.c ****               ##### Simple time base mode functions #####
 949:Drivers/STM32G4xx_HAL_Driver/Src/stm32g4xx_hal_hrtim.c ****  ===============================================================================
 950:Drivers/STM32G4xx_HAL_Driver/Src/stm32g4xx_hal_hrtim.c ****     [..]  This section provides functions allowing to:
 951:Drivers/STM32G4xx_HAL_Driver/Src/stm32g4xx_hal_hrtim.c ****       (+) Start simple time base
 952:Drivers/STM32G4xx_HAL_Driver/Src/stm32g4xx_hal_hrtim.c ****       (+) Stop simple time base
 953:Drivers/STM32G4xx_HAL_Driver/Src/stm32g4xx_hal_hrtim.c ****       (+) Start simple time base and enable interrupt
 954:Drivers/STM32G4xx_HAL_Driver/Src/stm32g4xx_hal_hrtim.c ****       (+) Stop simple time base and disable interrupt
 955:Drivers/STM32G4xx_HAL_Driver/Src/stm32g4xx_hal_hrtim.c ****       (+) Start simple time base and enable DMA transfer
 956:Drivers/STM32G4xx_HAL_Driver/Src/stm32g4xx_hal_hrtim.c ****       (+) Stop simple time base and disable DMA transfer
 957:Drivers/STM32G4xx_HAL_Driver/Src/stm32g4xx_hal_hrtim.c ****       -@-  When a HRTIM timer operates in simple time base mode, the timer
 958:Drivers/STM32G4xx_HAL_Driver/Src/stm32g4xx_hal_hrtim.c ****            counter counts from 0 to the period value.
 959:Drivers/STM32G4xx_HAL_Driver/Src/stm32g4xx_hal_hrtim.c **** 
 960:Drivers/STM32G4xx_HAL_Driver/Src/stm32g4xx_hal_hrtim.c **** @endverbatim
ARM GAS  /tmp/cclQbFqw.s 			page 33


 961:Drivers/STM32G4xx_HAL_Driver/Src/stm32g4xx_hal_hrtim.c ****   * @{
 962:Drivers/STM32G4xx_HAL_Driver/Src/stm32g4xx_hal_hrtim.c ****   */
 963:Drivers/STM32G4xx_HAL_Driver/Src/stm32g4xx_hal_hrtim.c **** 
 964:Drivers/STM32G4xx_HAL_Driver/Src/stm32g4xx_hal_hrtim.c **** /**
 965:Drivers/STM32G4xx_HAL_Driver/Src/stm32g4xx_hal_hrtim.c ****   * @brief  Start the counter of a timer operating in simple time base mode.
 966:Drivers/STM32G4xx_HAL_Driver/Src/stm32g4xx_hal_hrtim.c ****   * @param  hhrtim pointer to HAL HRTIM handle
 967:Drivers/STM32G4xx_HAL_Driver/Src/stm32g4xx_hal_hrtim.c ****   * @param  TimerIdx Timer index.
 968:Drivers/STM32G4xx_HAL_Driver/Src/stm32g4xx_hal_hrtim.c ****   *                   This parameter can be one of the following values:
 969:Drivers/STM32G4xx_HAL_Driver/Src/stm32g4xx_hal_hrtim.c ****   *                   @arg HRTIM_TIMERINDEX_MASTER  for master timer
 970:Drivers/STM32G4xx_HAL_Driver/Src/stm32g4xx_hal_hrtim.c ****   *                   @arg HRTIM_TIMERINDEX_TIMER_A for timer A
 971:Drivers/STM32G4xx_HAL_Driver/Src/stm32g4xx_hal_hrtim.c ****   *                   @arg HRTIM_TIMERINDEX_TIMER_B for timer B
 972:Drivers/STM32G4xx_HAL_Driver/Src/stm32g4xx_hal_hrtim.c ****   *                   @arg HRTIM_TIMERINDEX_TIMER_C for timer C
 973:Drivers/STM32G4xx_HAL_Driver/Src/stm32g4xx_hal_hrtim.c ****   *                   @arg HRTIM_TIMERINDEX_TIMER_D for timer D
 974:Drivers/STM32G4xx_HAL_Driver/Src/stm32g4xx_hal_hrtim.c ****   *                   @arg HRTIM_TIMERINDEX_TIMER_E for timer E
 975:Drivers/STM32G4xx_HAL_Driver/Src/stm32g4xx_hal_hrtim.c ****   *                   @arg HRTIM_TIMERINDEX_TIMER_F for timer F
 976:Drivers/STM32G4xx_HAL_Driver/Src/stm32g4xx_hal_hrtim.c ****   * @retval HAL status
 977:Drivers/STM32G4xx_HAL_Driver/Src/stm32g4xx_hal_hrtim.c ****   */
 978:Drivers/STM32G4xx_HAL_Driver/Src/stm32g4xx_hal_hrtim.c **** HAL_StatusTypeDef HAL_HRTIM_SimpleBaseStart(HRTIM_HandleTypeDef * hhrtim,
 979:Drivers/STM32G4xx_HAL_Driver/Src/stm32g4xx_hal_hrtim.c ****                                            uint32_t TimerIdx)
 980:Drivers/STM32G4xx_HAL_Driver/Src/stm32g4xx_hal_hrtim.c **** {
 880              		.loc 1 980 1
 881              		.cfi_startproc
 882              		@ args = 0, pretend = 0, frame = 8
 883              		@ frame_needed = 1, uses_anonymous_args = 0
 884              		@ link register save eliminated.
 885 0000 80B4     		push	{r7}
 886              	.LCFI44:
 887              		.cfi_def_cfa_offset 4
 888              		.cfi_offset 7, -4
 889 0002 83B0     		sub	sp, sp, #12
 890              	.LCFI45:
 891              		.cfi_def_cfa_offset 16
 892 0004 00AF     		add	r7, sp, #0
 893              	.LCFI46:
 894              		.cfi_def_cfa_register 7
 895 0006 7860     		str	r0, [r7, #4]
 896 0008 3960     		str	r1, [r7]
 981:Drivers/STM32G4xx_HAL_Driver/Src/stm32g4xx_hal_hrtim.c ****    /* Check the parameters */
 982:Drivers/STM32G4xx_HAL_Driver/Src/stm32g4xx_hal_hrtim.c ****   assert_param(IS_HRTIM_TIMERINDEX(TimerIdx));
 983:Drivers/STM32G4xx_HAL_Driver/Src/stm32g4xx_hal_hrtim.c **** 
 984:Drivers/STM32G4xx_HAL_Driver/Src/stm32g4xx_hal_hrtim.c ****   /* Process Locked */
 985:Drivers/STM32G4xx_HAL_Driver/Src/stm32g4xx_hal_hrtim.c ****   __HAL_LOCK(hhrtim);
 897              		.loc 1 985 3
 898 000a 7B68     		ldr	r3, [r7, #4]
 899 000c 93F8DC30 		ldrb	r3, [r3, #220]	@ zero_extendqisi2
 900 0010 012B     		cmp	r3, #1
 901 0012 01D1     		bne	.L37
 902              		.loc 1 985 3 is_stmt 0 discriminator 1
 903 0014 0223     		movs	r3, #2
 904 0016 1BE0     		b	.L38
 905              	.L37:
 906              		.loc 1 985 3 discriminator 2
 907 0018 7B68     		ldr	r3, [r7, #4]
 908 001a 0122     		movs	r2, #1
 909 001c 83F8DC20 		strb	r2, [r3, #220]
 986:Drivers/STM32G4xx_HAL_Driver/Src/stm32g4xx_hal_hrtim.c **** 
 987:Drivers/STM32G4xx_HAL_Driver/Src/stm32g4xx_hal_hrtim.c ****   hhrtim->State = HAL_HRTIM_STATE_BUSY;
ARM GAS  /tmp/cclQbFqw.s 			page 34


 910              		.loc 1 987 17 is_stmt 1 discriminator 2
 911 0020 7B68     		ldr	r3, [r7, #4]
 912 0022 0222     		movs	r2, #2
 913 0024 83F8DD20 		strb	r2, [r3, #221]
 988:Drivers/STM32G4xx_HAL_Driver/Src/stm32g4xx_hal_hrtim.c **** 
 989:Drivers/STM32G4xx_HAL_Driver/Src/stm32g4xx_hal_hrtim.c ****   /* Enable the timer counter */
 990:Drivers/STM32G4xx_HAL_Driver/Src/stm32g4xx_hal_hrtim.c ****   __HAL_HRTIM_ENABLE(hhrtim, TimerIdxToTimerId[TimerIdx]);
 914              		.loc 1 990 3 discriminator 2
 915 0028 7B68     		ldr	r3, [r7, #4]
 916 002a 1B68     		ldr	r3, [r3]
 917 002c 1968     		ldr	r1, [r3]
 918 002e 0B4A     		ldr	r2, .L39
 919 0030 3B68     		ldr	r3, [r7]
 920 0032 52F82320 		ldr	r2, [r2, r3, lsl #2]
 921 0036 7B68     		ldr	r3, [r7, #4]
 922 0038 1B68     		ldr	r3, [r3]
 923 003a 0A43     		orrs	r2, r2, r1
 924 003c 1A60     		str	r2, [r3]
 991:Drivers/STM32G4xx_HAL_Driver/Src/stm32g4xx_hal_hrtim.c **** 
 992:Drivers/STM32G4xx_HAL_Driver/Src/stm32g4xx_hal_hrtim.c ****   hhrtim->State = HAL_HRTIM_STATE_READY;
 925              		.loc 1 992 17 discriminator 2
 926 003e 7B68     		ldr	r3, [r7, #4]
 927 0040 0122     		movs	r2, #1
 928 0042 83F8DD20 		strb	r2, [r3, #221]
 993:Drivers/STM32G4xx_HAL_Driver/Src/stm32g4xx_hal_hrtim.c **** 
 994:Drivers/STM32G4xx_HAL_Driver/Src/stm32g4xx_hal_hrtim.c ****   /* Process Unlocked */
 995:Drivers/STM32G4xx_HAL_Driver/Src/stm32g4xx_hal_hrtim.c ****   __HAL_UNLOCK(hhrtim);
 929              		.loc 1 995 3 discriminator 2
 930 0046 7B68     		ldr	r3, [r7, #4]
 931 0048 0022     		movs	r2, #0
 932 004a 83F8DC20 		strb	r2, [r3, #220]
 996:Drivers/STM32G4xx_HAL_Driver/Src/stm32g4xx_hal_hrtim.c **** 
 997:Drivers/STM32G4xx_HAL_Driver/Src/stm32g4xx_hal_hrtim.c ****   return HAL_OK;
 933              		.loc 1 997 10 discriminator 2
 934 004e 0023     		movs	r3, #0
 935              	.L38:
 998:Drivers/STM32G4xx_HAL_Driver/Src/stm32g4xx_hal_hrtim.c **** }
 936              		.loc 1 998 1
 937 0050 1846     		mov	r0, r3
 938 0052 0C37     		adds	r7, r7, #12
 939              	.LCFI47:
 940              		.cfi_def_cfa_offset 4
 941 0054 BD46     		mov	sp, r7
 942              	.LCFI48:
 943              		.cfi_def_cfa_register 13
 944              		@ sp needed
 945 0056 5DF8047B 		ldr	r7, [sp], #4
 946              	.LCFI49:
 947              		.cfi_restore 7
 948              		.cfi_def_cfa_offset 0
 949 005a 7047     		bx	lr
 950              	.L40:
 951              		.align	2
 952              	.L39:
 953 005c 00000000 		.word	TimerIdxToTimerId
 954              		.cfi_endproc
 955              	.LFE333:
ARM GAS  /tmp/cclQbFqw.s 			page 35


 957              		.section	.text.HAL_HRTIM_SimpleBaseStop,"ax",%progbits
 958              		.align	1
 959              		.global	HAL_HRTIM_SimpleBaseStop
 960              		.syntax unified
 961              		.thumb
 962              		.thumb_func
 963              		.fpu fpv4-sp-d16
 965              	HAL_HRTIM_SimpleBaseStop:
 966              	.LFB334:
 999:Drivers/STM32G4xx_HAL_Driver/Src/stm32g4xx_hal_hrtim.c **** 
1000:Drivers/STM32G4xx_HAL_Driver/Src/stm32g4xx_hal_hrtim.c **** /**
1001:Drivers/STM32G4xx_HAL_Driver/Src/stm32g4xx_hal_hrtim.c ****   * @brief  Stop the counter of a timer operating in simple time base mode.
1002:Drivers/STM32G4xx_HAL_Driver/Src/stm32g4xx_hal_hrtim.c ****   * @param  hhrtim pointer to HAL HRTIM handle
1003:Drivers/STM32G4xx_HAL_Driver/Src/stm32g4xx_hal_hrtim.c ****   * @param  TimerIdx Timer index.
1004:Drivers/STM32G4xx_HAL_Driver/Src/stm32g4xx_hal_hrtim.c ****   *                   This parameter can be one of the following values:
1005:Drivers/STM32G4xx_HAL_Driver/Src/stm32g4xx_hal_hrtim.c ****   *                   @arg HRTIM_TIMERINDEX_MASTER  for master timer
1006:Drivers/STM32G4xx_HAL_Driver/Src/stm32g4xx_hal_hrtim.c ****   *                   @arg HRTIM_TIMERINDEX_TIMER_A for timer A
1007:Drivers/STM32G4xx_HAL_Driver/Src/stm32g4xx_hal_hrtim.c ****   *                   @arg HRTIM_TIMERINDEX_TIMER_B for timer B
1008:Drivers/STM32G4xx_HAL_Driver/Src/stm32g4xx_hal_hrtim.c ****   *                   @arg HRTIM_TIMERINDEX_TIMER_C for timer C
1009:Drivers/STM32G4xx_HAL_Driver/Src/stm32g4xx_hal_hrtim.c ****   *                   @arg HRTIM_TIMERINDEX_TIMER_D for timer D
1010:Drivers/STM32G4xx_HAL_Driver/Src/stm32g4xx_hal_hrtim.c ****   *                   @arg HRTIM_TIMERINDEX_TIMER_E for timer E
1011:Drivers/STM32G4xx_HAL_Driver/Src/stm32g4xx_hal_hrtim.c ****   *                   @arg HRTIM_TIMERINDEX_TIMER_F for timer F
1012:Drivers/STM32G4xx_HAL_Driver/Src/stm32g4xx_hal_hrtim.c ****   * @retval HAL status
1013:Drivers/STM32G4xx_HAL_Driver/Src/stm32g4xx_hal_hrtim.c ****   */
1014:Drivers/STM32G4xx_HAL_Driver/Src/stm32g4xx_hal_hrtim.c **** HAL_StatusTypeDef HAL_HRTIM_SimpleBaseStop(HRTIM_HandleTypeDef * hhrtim,
1015:Drivers/STM32G4xx_HAL_Driver/Src/stm32g4xx_hal_hrtim.c ****                                           uint32_t TimerIdx)
1016:Drivers/STM32G4xx_HAL_Driver/Src/stm32g4xx_hal_hrtim.c **** {
 967              		.loc 1 1016 1
 968              		.cfi_startproc
 969              		@ args = 0, pretend = 0, frame = 8
 970              		@ frame_needed = 1, uses_anonymous_args = 0
 971              		@ link register save eliminated.
 972 0000 80B4     		push	{r7}
 973              	.LCFI50:
 974              		.cfi_def_cfa_offset 4
 975              		.cfi_offset 7, -4
 976 0002 83B0     		sub	sp, sp, #12
 977              	.LCFI51:
 978              		.cfi_def_cfa_offset 16
 979 0004 00AF     		add	r7, sp, #0
 980              	.LCFI52:
 981              		.cfi_def_cfa_register 7
 982 0006 7860     		str	r0, [r7, #4]
 983 0008 3960     		str	r1, [r7]
1017:Drivers/STM32G4xx_HAL_Driver/Src/stm32g4xx_hal_hrtim.c ****    /* Check the parameters */
1018:Drivers/STM32G4xx_HAL_Driver/Src/stm32g4xx_hal_hrtim.c ****   assert_param(IS_HRTIM_TIMERINDEX(TimerIdx));
1019:Drivers/STM32G4xx_HAL_Driver/Src/stm32g4xx_hal_hrtim.c **** 
1020:Drivers/STM32G4xx_HAL_Driver/Src/stm32g4xx_hal_hrtim.c ****   /* Process Locked */
1021:Drivers/STM32G4xx_HAL_Driver/Src/stm32g4xx_hal_hrtim.c ****   __HAL_LOCK(hhrtim);
 984              		.loc 1 1021 3
 985 000a 7B68     		ldr	r3, [r7, #4]
 986 000c 93F8DC30 		ldrb	r3, [r3, #220]	@ zero_extendqisi2
 987 0010 012B     		cmp	r3, #1
 988 0012 01D1     		bne	.L42
 989              		.loc 1 1021 3 is_stmt 0 discriminator 1
 990 0014 0223     		movs	r3, #2
 991 0016 B0E0     		b	.L43
ARM GAS  /tmp/cclQbFqw.s 			page 36


 992              	.L42:
 993              		.loc 1 1021 3 discriminator 2
 994 0018 7B68     		ldr	r3, [r7, #4]
 995 001a 0122     		movs	r2, #1
 996 001c 83F8DC20 		strb	r2, [r3, #220]
1022:Drivers/STM32G4xx_HAL_Driver/Src/stm32g4xx_hal_hrtim.c **** 
1023:Drivers/STM32G4xx_HAL_Driver/Src/stm32g4xx_hal_hrtim.c ****   hhrtim->State = HAL_HRTIM_STATE_BUSY;
 997              		.loc 1 1023 17 is_stmt 1 discriminator 2
 998 0020 7B68     		ldr	r3, [r7, #4]
 999 0022 0222     		movs	r2, #2
 1000 0024 83F8DD20 		strb	r2, [r3, #221]
1024:Drivers/STM32G4xx_HAL_Driver/Src/stm32g4xx_hal_hrtim.c **** 
1025:Drivers/STM32G4xx_HAL_Driver/Src/stm32g4xx_hal_hrtim.c ****   /* Disable the timer counter */
1026:Drivers/STM32G4xx_HAL_Driver/Src/stm32g4xx_hal_hrtim.c ****   __HAL_HRTIM_DISABLE(hhrtim, TimerIdxToTimerId[TimerIdx]);
 1001              		.loc 1 1026 3 discriminator 2
 1002 0028 574A     		ldr	r2, .L51
 1003 002a 3B68     		ldr	r3, [r7]
 1004 002c 52F82330 		ldr	r3, [r2, r3, lsl #2]
 1005 0030 03F48033 		and	r3, r3, #65536
 1006 0034 002B     		cmp	r3, #0
 1007 0036 07D0     		beq	.L44
 1008              		.loc 1 1026 3 is_stmt 0 discriminator 1
 1009 0038 7B68     		ldr	r3, [r7, #4]
 1010 003a 1B68     		ldr	r3, [r3]
 1011 003c 1A68     		ldr	r2, [r3]
 1012 003e 7B68     		ldr	r3, [r7, #4]
 1013 0040 1B68     		ldr	r3, [r3]
 1014 0042 22F48032 		bic	r2, r2, #65536
 1015 0046 1A60     		str	r2, [r3]
 1016              	.L44:
 1017              		.loc 1 1026 3 discriminator 3
 1018 0048 4F4A     		ldr	r2, .L51
 1019 004a 3B68     		ldr	r3, [r7]
 1020 004c 52F82330 		ldr	r3, [r2, r3, lsl #2]
 1021 0050 03F40033 		and	r3, r3, #131072
 1022 0054 002B     		cmp	r3, #0
 1023 0056 0FD0     		beq	.L45
 1024              		.loc 1 1026 3 discriminator 4
 1025 0058 7B68     		ldr	r3, [r7, #4]
 1026 005a 1B68     		ldr	r3, [r3]
 1027 005c D3F89433 		ldr	r3, [r3, #916]
 1028 0060 03F00303 		and	r3, r3, #3
 1029 0064 002B     		cmp	r3, #0
 1030 0066 07D1     		bne	.L45
 1031              		.loc 1 1026 3 discriminator 6
 1032 0068 7B68     		ldr	r3, [r7, #4]
 1033 006a 1B68     		ldr	r3, [r3]
 1034 006c 1A68     		ldr	r2, [r3]
 1035 006e 7B68     		ldr	r3, [r7, #4]
 1036 0070 1B68     		ldr	r3, [r3]
 1037 0072 22F40032 		bic	r2, r2, #131072
 1038 0076 1A60     		str	r2, [r3]
 1039              	.L45:
 1040              		.loc 1 1026 3 discriminator 8
 1041 0078 434A     		ldr	r2, .L51
 1042 007a 3B68     		ldr	r3, [r7]
 1043 007c 52F82330 		ldr	r3, [r2, r3, lsl #2]
ARM GAS  /tmp/cclQbFqw.s 			page 37


 1044 0080 03F48023 		and	r3, r3, #262144
 1045 0084 002B     		cmp	r3, #0
 1046 0086 0FD0     		beq	.L46
 1047              		.loc 1 1026 3 discriminator 9
 1048 0088 7B68     		ldr	r3, [r7, #4]
 1049 008a 1B68     		ldr	r3, [r3]
 1050 008c D3F89433 		ldr	r3, [r3, #916]
 1051 0090 03F00C03 		and	r3, r3, #12
 1052 0094 002B     		cmp	r3, #0
 1053 0096 07D1     		bne	.L46
 1054              		.loc 1 1026 3 discriminator 11
 1055 0098 7B68     		ldr	r3, [r7, #4]
 1056 009a 1B68     		ldr	r3, [r3]
 1057 009c 1A68     		ldr	r2, [r3]
 1058 009e 7B68     		ldr	r3, [r7, #4]
 1059 00a0 1B68     		ldr	r3, [r3]
 1060 00a2 22F48022 		bic	r2, r2, #262144
 1061 00a6 1A60     		str	r2, [r3]
 1062              	.L46:
 1063              		.loc 1 1026 3 discriminator 13
 1064 00a8 374A     		ldr	r2, .L51
 1065 00aa 3B68     		ldr	r3, [r7]
 1066 00ac 52F82330 		ldr	r3, [r2, r3, lsl #2]
 1067 00b0 03F40023 		and	r3, r3, #524288
 1068 00b4 002B     		cmp	r3, #0
 1069 00b6 0FD0     		beq	.L47
 1070              		.loc 1 1026 3 discriminator 14
 1071 00b8 7B68     		ldr	r3, [r7, #4]
 1072 00ba 1B68     		ldr	r3, [r3]
 1073 00bc D3F89433 		ldr	r3, [r3, #916]
 1074 00c0 03F03003 		and	r3, r3, #48
 1075 00c4 002B     		cmp	r3, #0
 1076 00c6 07D1     		bne	.L47
 1077              		.loc 1 1026 3 discriminator 16
 1078 00c8 7B68     		ldr	r3, [r7, #4]
 1079 00ca 1B68     		ldr	r3, [r3]
 1080 00cc 1A68     		ldr	r2, [r3]
 1081 00ce 7B68     		ldr	r3, [r7, #4]
 1082 00d0 1B68     		ldr	r3, [r3]
 1083 00d2 22F40022 		bic	r2, r2, #524288
 1084 00d6 1A60     		str	r2, [r3]
 1085              	.L47:
 1086              		.loc 1 1026 3 discriminator 18
 1087 00d8 2B4A     		ldr	r2, .L51
 1088 00da 3B68     		ldr	r3, [r7]
 1089 00dc 52F82330 		ldr	r3, [r2, r3, lsl #2]
 1090 00e0 03F48013 		and	r3, r3, #1048576
 1091 00e4 002B     		cmp	r3, #0
 1092 00e6 0FD0     		beq	.L48
 1093              		.loc 1 1026 3 discriminator 19
 1094 00e8 7B68     		ldr	r3, [r7, #4]
 1095 00ea 1B68     		ldr	r3, [r3]
 1096 00ec D3F89433 		ldr	r3, [r3, #916]
 1097 00f0 03F0C003 		and	r3, r3, #192
 1098 00f4 002B     		cmp	r3, #0
 1099 00f6 07D1     		bne	.L48
 1100              		.loc 1 1026 3 discriminator 21
ARM GAS  /tmp/cclQbFqw.s 			page 38


 1101 00f8 7B68     		ldr	r3, [r7, #4]
 1102 00fa 1B68     		ldr	r3, [r3]
 1103 00fc 1A68     		ldr	r2, [r3]
 1104 00fe 7B68     		ldr	r3, [r7, #4]
 1105 0100 1B68     		ldr	r3, [r3]
 1106 0102 22F48012 		bic	r2, r2, #1048576
 1107 0106 1A60     		str	r2, [r3]
 1108              	.L48:
 1109              		.loc 1 1026 3 discriminator 23
 1110 0108 1F4A     		ldr	r2, .L51
 1111 010a 3B68     		ldr	r3, [r7]
 1112 010c 52F82330 		ldr	r3, [r2, r3, lsl #2]
 1113 0110 03F40013 		and	r3, r3, #2097152
 1114 0114 002B     		cmp	r3, #0
 1115 0116 0FD0     		beq	.L49
 1116              		.loc 1 1026 3 discriminator 24
 1117 0118 7B68     		ldr	r3, [r7, #4]
 1118 011a 1B68     		ldr	r3, [r3]
 1119 011c D3F89433 		ldr	r3, [r3, #916]
 1120 0120 03F44073 		and	r3, r3, #768
 1121 0124 002B     		cmp	r3, #0
 1122 0126 07D1     		bne	.L49
 1123              		.loc 1 1026 3 discriminator 26
 1124 0128 7B68     		ldr	r3, [r7, #4]
 1125 012a 1B68     		ldr	r3, [r3]
 1126 012c 1A68     		ldr	r2, [r3]
 1127 012e 7B68     		ldr	r3, [r7, #4]
 1128 0130 1B68     		ldr	r3, [r3]
 1129 0132 22F40012 		bic	r2, r2, #2097152
 1130 0136 1A60     		str	r2, [r3]
 1131              	.L49:
 1132              		.loc 1 1026 3 discriminator 28
 1133 0138 134A     		ldr	r2, .L51
 1134 013a 3B68     		ldr	r3, [r7]
 1135 013c 52F82330 		ldr	r3, [r2, r3, lsl #2]
 1136 0140 03F48003 		and	r3, r3, #4194304
 1137 0144 002B     		cmp	r3, #0
 1138 0146 0FD0     		beq	.L50
 1139              		.loc 1 1026 3 discriminator 29
 1140 0148 7B68     		ldr	r3, [r7, #4]
 1141 014a 1B68     		ldr	r3, [r3]
 1142 014c D3F89433 		ldr	r3, [r3, #916]
 1143 0150 03F44063 		and	r3, r3, #3072
 1144 0154 002B     		cmp	r3, #0
 1145 0156 07D1     		bne	.L50
 1146              		.loc 1 1026 3 discriminator 30
 1147 0158 7B68     		ldr	r3, [r7, #4]
 1148 015a 1B68     		ldr	r3, [r3]
 1149 015c 1A68     		ldr	r2, [r3]
 1150 015e 7B68     		ldr	r3, [r7, #4]
 1151 0160 1B68     		ldr	r3, [r3]
 1152 0162 22F48002 		bic	r2, r2, #4194304
 1153 0166 1A60     		str	r2, [r3]
 1154              	.L50:
1027:Drivers/STM32G4xx_HAL_Driver/Src/stm32g4xx_hal_hrtim.c **** 
1028:Drivers/STM32G4xx_HAL_Driver/Src/stm32g4xx_hal_hrtim.c ****   hhrtim->State = HAL_HRTIM_STATE_READY;
 1155              		.loc 1 1028 17 is_stmt 1
ARM GAS  /tmp/cclQbFqw.s 			page 39


 1156 0168 7B68     		ldr	r3, [r7, #4]
 1157 016a 0122     		movs	r2, #1
 1158 016c 83F8DD20 		strb	r2, [r3, #221]
1029:Drivers/STM32G4xx_HAL_Driver/Src/stm32g4xx_hal_hrtim.c **** 
1030:Drivers/STM32G4xx_HAL_Driver/Src/stm32g4xx_hal_hrtim.c ****   /* Process Unlocked */
1031:Drivers/STM32G4xx_HAL_Driver/Src/stm32g4xx_hal_hrtim.c ****   __HAL_UNLOCK(hhrtim);
 1159              		.loc 1 1031 3
 1160 0170 7B68     		ldr	r3, [r7, #4]
 1161 0172 0022     		movs	r2, #0
 1162 0174 83F8DC20 		strb	r2, [r3, #220]
1032:Drivers/STM32G4xx_HAL_Driver/Src/stm32g4xx_hal_hrtim.c **** 
1033:Drivers/STM32G4xx_HAL_Driver/Src/stm32g4xx_hal_hrtim.c ****   return HAL_OK;
 1163              		.loc 1 1033 10
 1164 0178 0023     		movs	r3, #0
 1165              	.L43:
1034:Drivers/STM32G4xx_HAL_Driver/Src/stm32g4xx_hal_hrtim.c **** }
 1166              		.loc 1 1034 1
 1167 017a 1846     		mov	r0, r3
 1168 017c 0C37     		adds	r7, r7, #12
 1169              	.LCFI53:
 1170              		.cfi_def_cfa_offset 4
 1171 017e BD46     		mov	sp, r7
 1172              	.LCFI54:
 1173              		.cfi_def_cfa_register 13
 1174              		@ sp needed
 1175 0180 5DF8047B 		ldr	r7, [sp], #4
 1176              	.LCFI55:
 1177              		.cfi_restore 7
 1178              		.cfi_def_cfa_offset 0
 1179 0184 7047     		bx	lr
 1180              	.L52:
 1181 0186 00BF     		.align	2
 1182              	.L51:
 1183 0188 00000000 		.word	TimerIdxToTimerId
 1184              		.cfi_endproc
 1185              	.LFE334:
 1187              		.section	.text.HAL_HRTIM_SimpleBaseStart_IT,"ax",%progbits
 1188              		.align	1
 1189              		.global	HAL_HRTIM_SimpleBaseStart_IT
 1190              		.syntax unified
 1191              		.thumb
 1192              		.thumb_func
 1193              		.fpu fpv4-sp-d16
 1195              	HAL_HRTIM_SimpleBaseStart_IT:
 1196              	.LFB335:
1035:Drivers/STM32G4xx_HAL_Driver/Src/stm32g4xx_hal_hrtim.c **** 
1036:Drivers/STM32G4xx_HAL_Driver/Src/stm32g4xx_hal_hrtim.c **** /**
1037:Drivers/STM32G4xx_HAL_Driver/Src/stm32g4xx_hal_hrtim.c ****   * @brief  Start the counter of a timer operating in simple time base mode
1038:Drivers/STM32G4xx_HAL_Driver/Src/stm32g4xx_hal_hrtim.c ****   *         (Timer repetition interrupt is enabled).
1039:Drivers/STM32G4xx_HAL_Driver/Src/stm32g4xx_hal_hrtim.c ****   * @param  hhrtim pointer to HAL HRTIM handle
1040:Drivers/STM32G4xx_HAL_Driver/Src/stm32g4xx_hal_hrtim.c ****   * @param  TimerIdx Timer index.
1041:Drivers/STM32G4xx_HAL_Driver/Src/stm32g4xx_hal_hrtim.c ****   *                   This parameter can be one of the following values:
1042:Drivers/STM32G4xx_HAL_Driver/Src/stm32g4xx_hal_hrtim.c ****   *                   @arg HRTIM_TIMERINDEX_MASTER  for master timer
1043:Drivers/STM32G4xx_HAL_Driver/Src/stm32g4xx_hal_hrtim.c ****   *                   @arg HRTIM_TIMERINDEX_TIMER_A for timer A
1044:Drivers/STM32G4xx_HAL_Driver/Src/stm32g4xx_hal_hrtim.c ****   *                   @arg HRTIM_TIMERINDEX_TIMER_B for timer B
1045:Drivers/STM32G4xx_HAL_Driver/Src/stm32g4xx_hal_hrtim.c ****   *                   @arg HRTIM_TIMERINDEX_TIMER_C for timer C
1046:Drivers/STM32G4xx_HAL_Driver/Src/stm32g4xx_hal_hrtim.c ****   *                   @arg HRTIM_TIMERINDEX_TIMER_D for timer D
ARM GAS  /tmp/cclQbFqw.s 			page 40


1047:Drivers/STM32G4xx_HAL_Driver/Src/stm32g4xx_hal_hrtim.c ****   *                   @arg HRTIM_TIMERINDEX_TIMER_E for timer E
1048:Drivers/STM32G4xx_HAL_Driver/Src/stm32g4xx_hal_hrtim.c ****   *                   @arg HRTIM_TIMERINDEX_TIMER_F for timer F
1049:Drivers/STM32G4xx_HAL_Driver/Src/stm32g4xx_hal_hrtim.c ****   * @retval HAL status
1050:Drivers/STM32G4xx_HAL_Driver/Src/stm32g4xx_hal_hrtim.c ****   */
1051:Drivers/STM32G4xx_HAL_Driver/Src/stm32g4xx_hal_hrtim.c **** HAL_StatusTypeDef HAL_HRTIM_SimpleBaseStart_IT(HRTIM_HandleTypeDef * hhrtim,
1052:Drivers/STM32G4xx_HAL_Driver/Src/stm32g4xx_hal_hrtim.c ****                                               uint32_t TimerIdx)
1053:Drivers/STM32G4xx_HAL_Driver/Src/stm32g4xx_hal_hrtim.c **** {
 1197              		.loc 1 1053 1
 1198              		.cfi_startproc
 1199              		@ args = 0, pretend = 0, frame = 8
 1200              		@ frame_needed = 1, uses_anonymous_args = 0
 1201              		@ link register save eliminated.
 1202 0000 80B4     		push	{r7}
 1203              	.LCFI56:
 1204              		.cfi_def_cfa_offset 4
 1205              		.cfi_offset 7, -4
 1206 0002 83B0     		sub	sp, sp, #12
 1207              	.LCFI57:
 1208              		.cfi_def_cfa_offset 16
 1209 0004 00AF     		add	r7, sp, #0
 1210              	.LCFI58:
 1211              		.cfi_def_cfa_register 7
 1212 0006 7860     		str	r0, [r7, #4]
 1213 0008 3960     		str	r1, [r7]
1054:Drivers/STM32G4xx_HAL_Driver/Src/stm32g4xx_hal_hrtim.c ****    /* Check the parameters */
1055:Drivers/STM32G4xx_HAL_Driver/Src/stm32g4xx_hal_hrtim.c ****   assert_param(IS_HRTIM_TIMERINDEX(TimerIdx));
1056:Drivers/STM32G4xx_HAL_Driver/Src/stm32g4xx_hal_hrtim.c **** 
1057:Drivers/STM32G4xx_HAL_Driver/Src/stm32g4xx_hal_hrtim.c ****   /* Process Locked */
1058:Drivers/STM32G4xx_HAL_Driver/Src/stm32g4xx_hal_hrtim.c ****   __HAL_LOCK(hhrtim);
 1214              		.loc 1 1058 3
 1215 000a 7B68     		ldr	r3, [r7, #4]
 1216 000c 93F8DC30 		ldrb	r3, [r3, #220]	@ zero_extendqisi2
 1217 0010 012B     		cmp	r3, #1
 1218 0012 01D1     		bne	.L54
 1219              		.loc 1 1058 3 is_stmt 0 discriminator 1
 1220 0014 0223     		movs	r3, #2
 1221 0016 37E0     		b	.L55
 1222              	.L54:
 1223              		.loc 1 1058 3 discriminator 2
 1224 0018 7B68     		ldr	r3, [r7, #4]
 1225 001a 0122     		movs	r2, #1
 1226 001c 83F8DC20 		strb	r2, [r3, #220]
1059:Drivers/STM32G4xx_HAL_Driver/Src/stm32g4xx_hal_hrtim.c **** 
1060:Drivers/STM32G4xx_HAL_Driver/Src/stm32g4xx_hal_hrtim.c ****   hhrtim->State = HAL_HRTIM_STATE_BUSY;
 1227              		.loc 1 1060 17 is_stmt 1 discriminator 2
 1228 0020 7B68     		ldr	r3, [r7, #4]
 1229 0022 0222     		movs	r2, #2
 1230 0024 83F8DD20 		strb	r2, [r3, #221]
1061:Drivers/STM32G4xx_HAL_Driver/Src/stm32g4xx_hal_hrtim.c **** 
1062:Drivers/STM32G4xx_HAL_Driver/Src/stm32g4xx_hal_hrtim.c ****   /* Enable the repetition interrupt */
1063:Drivers/STM32G4xx_HAL_Driver/Src/stm32g4xx_hal_hrtim.c ****   if (TimerIdx == HRTIM_TIMERINDEX_MASTER)
 1231              		.loc 1 1063 6 discriminator 2
 1232 0028 3B68     		ldr	r3, [r7]
 1233 002a 062B     		cmp	r3, #6
 1234 002c 08D1     		bne	.L56
1064:Drivers/STM32G4xx_HAL_Driver/Src/stm32g4xx_hal_hrtim.c ****   {
1065:Drivers/STM32G4xx_HAL_Driver/Src/stm32g4xx_hal_hrtim.c ****     __HAL_HRTIM_MASTER_ENABLE_IT(hhrtim, HRTIM_MASTER_IT_MREP);
ARM GAS  /tmp/cclQbFqw.s 			page 41


 1235              		.loc 1 1065 5
 1236 002e 7B68     		ldr	r3, [r7, #4]
 1237 0030 1B68     		ldr	r3, [r3]
 1238 0032 DA68     		ldr	r2, [r3, #12]
 1239 0034 7B68     		ldr	r3, [r7, #4]
 1240 0036 1B68     		ldr	r3, [r3]
 1241 0038 42F01002 		orr	r2, r2, #16
 1242 003c DA60     		str	r2, [r3, #12]
 1243 003e 0FE0     		b	.L57
 1244              	.L56:
1066:Drivers/STM32G4xx_HAL_Driver/Src/stm32g4xx_hal_hrtim.c ****   }
1067:Drivers/STM32G4xx_HAL_Driver/Src/stm32g4xx_hal_hrtim.c ****   else
1068:Drivers/STM32G4xx_HAL_Driver/Src/stm32g4xx_hal_hrtim.c ****   {
1069:Drivers/STM32G4xx_HAL_Driver/Src/stm32g4xx_hal_hrtim.c ****     __HAL_HRTIM_TIMER_ENABLE_IT(hhrtim, TimerIdx, HRTIM_TIM_IT_REP);
 1245              		.loc 1 1069 5
 1246 0040 7B68     		ldr	r3, [r7, #4]
 1247 0042 1A68     		ldr	r2, [r3]
 1248 0044 3B68     		ldr	r3, [r7]
 1249 0046 DB01     		lsls	r3, r3, #7
 1250 0048 1344     		add	r3, r3, r2
 1251 004a 8C33     		adds	r3, r3, #140
 1252 004c 1B68     		ldr	r3, [r3]
 1253 004e 7A68     		ldr	r2, [r7, #4]
 1254 0050 1168     		ldr	r1, [r2]
 1255 0052 43F01002 		orr	r2, r3, #16
 1256 0056 3B68     		ldr	r3, [r7]
 1257 0058 DB01     		lsls	r3, r3, #7
 1258 005a 0B44     		add	r3, r3, r1
 1259 005c 8C33     		adds	r3, r3, #140
 1260 005e 1A60     		str	r2, [r3]
 1261              	.L57:
1070:Drivers/STM32G4xx_HAL_Driver/Src/stm32g4xx_hal_hrtim.c ****   }
1071:Drivers/STM32G4xx_HAL_Driver/Src/stm32g4xx_hal_hrtim.c **** 
1072:Drivers/STM32G4xx_HAL_Driver/Src/stm32g4xx_hal_hrtim.c ****   /* Enable the timer counter */
1073:Drivers/STM32G4xx_HAL_Driver/Src/stm32g4xx_hal_hrtim.c ****   __HAL_HRTIM_ENABLE(hhrtim, TimerIdxToTimerId[TimerIdx]);
 1262              		.loc 1 1073 3
 1263 0060 7B68     		ldr	r3, [r7, #4]
 1264 0062 1B68     		ldr	r3, [r3]
 1265 0064 1968     		ldr	r1, [r3]
 1266 0066 0B4A     		ldr	r2, .L58
 1267 0068 3B68     		ldr	r3, [r7]
 1268 006a 52F82320 		ldr	r2, [r2, r3, lsl #2]
 1269 006e 7B68     		ldr	r3, [r7, #4]
 1270 0070 1B68     		ldr	r3, [r3]
 1271 0072 0A43     		orrs	r2, r2, r1
 1272 0074 1A60     		str	r2, [r3]
1074:Drivers/STM32G4xx_HAL_Driver/Src/stm32g4xx_hal_hrtim.c **** 
1075:Drivers/STM32G4xx_HAL_Driver/Src/stm32g4xx_hal_hrtim.c ****   hhrtim->State = HAL_HRTIM_STATE_READY;
 1273              		.loc 1 1075 17
 1274 0076 7B68     		ldr	r3, [r7, #4]
 1275 0078 0122     		movs	r2, #1
 1276 007a 83F8DD20 		strb	r2, [r3, #221]
1076:Drivers/STM32G4xx_HAL_Driver/Src/stm32g4xx_hal_hrtim.c **** 
1077:Drivers/STM32G4xx_HAL_Driver/Src/stm32g4xx_hal_hrtim.c ****   /* Process Unlocked */
1078:Drivers/STM32G4xx_HAL_Driver/Src/stm32g4xx_hal_hrtim.c ****   __HAL_UNLOCK(hhrtim);
 1277              		.loc 1 1078 3
 1278 007e 7B68     		ldr	r3, [r7, #4]
ARM GAS  /tmp/cclQbFqw.s 			page 42


 1279 0080 0022     		movs	r2, #0
 1280 0082 83F8DC20 		strb	r2, [r3, #220]
1079:Drivers/STM32G4xx_HAL_Driver/Src/stm32g4xx_hal_hrtim.c **** 
1080:Drivers/STM32G4xx_HAL_Driver/Src/stm32g4xx_hal_hrtim.c ****   return HAL_OK;
 1281              		.loc 1 1080 10
 1282 0086 0023     		movs	r3, #0
 1283              	.L55:
1081:Drivers/STM32G4xx_HAL_Driver/Src/stm32g4xx_hal_hrtim.c **** }
 1284              		.loc 1 1081 1
 1285 0088 1846     		mov	r0, r3
 1286 008a 0C37     		adds	r7, r7, #12
 1287              	.LCFI59:
 1288              		.cfi_def_cfa_offset 4
 1289 008c BD46     		mov	sp, r7
 1290              	.LCFI60:
 1291              		.cfi_def_cfa_register 13
 1292              		@ sp needed
 1293 008e 5DF8047B 		ldr	r7, [sp], #4
 1294              	.LCFI61:
 1295              		.cfi_restore 7
 1296              		.cfi_def_cfa_offset 0
 1297 0092 7047     		bx	lr
 1298              	.L59:
 1299              		.align	2
 1300              	.L58:
 1301 0094 00000000 		.word	TimerIdxToTimerId
 1302              		.cfi_endproc
 1303              	.LFE335:
 1305              		.section	.text.HAL_HRTIM_SimpleBaseStop_IT,"ax",%progbits
 1306              		.align	1
 1307              		.global	HAL_HRTIM_SimpleBaseStop_IT
 1308              		.syntax unified
 1309              		.thumb
 1310              		.thumb_func
 1311              		.fpu fpv4-sp-d16
 1313              	HAL_HRTIM_SimpleBaseStop_IT:
 1314              	.LFB336:
1082:Drivers/STM32G4xx_HAL_Driver/Src/stm32g4xx_hal_hrtim.c **** 
1083:Drivers/STM32G4xx_HAL_Driver/Src/stm32g4xx_hal_hrtim.c **** /**
1084:Drivers/STM32G4xx_HAL_Driver/Src/stm32g4xx_hal_hrtim.c ****   * @brief  Stop the counter of a timer operating in simple time base mode
1085:Drivers/STM32G4xx_HAL_Driver/Src/stm32g4xx_hal_hrtim.c ****   *         (Timer repetition interrupt is disabled).
1086:Drivers/STM32G4xx_HAL_Driver/Src/stm32g4xx_hal_hrtim.c ****   * @param  hhrtim pointer to HAL HRTIM handle
1087:Drivers/STM32G4xx_HAL_Driver/Src/stm32g4xx_hal_hrtim.c ****   * @param  TimerIdx Timer index.
1088:Drivers/STM32G4xx_HAL_Driver/Src/stm32g4xx_hal_hrtim.c ****   *                   This parameter can be one of the following values:
1089:Drivers/STM32G4xx_HAL_Driver/Src/stm32g4xx_hal_hrtim.c ****   *                   @arg HRTIM_TIMERINDEX_MASTER  for master timer
1090:Drivers/STM32G4xx_HAL_Driver/Src/stm32g4xx_hal_hrtim.c ****   *                   @arg HRTIM_TIMERINDEX_TIMER_A for timer A
1091:Drivers/STM32G4xx_HAL_Driver/Src/stm32g4xx_hal_hrtim.c ****   *                   @arg HRTIM_TIMERINDEX_TIMER_B for timer B
1092:Drivers/STM32G4xx_HAL_Driver/Src/stm32g4xx_hal_hrtim.c ****   *                   @arg HRTIM_TIMERINDEX_TIMER_C for timer C
1093:Drivers/STM32G4xx_HAL_Driver/Src/stm32g4xx_hal_hrtim.c ****   *                   @arg HRTIM_TIMERINDEX_TIMER_D for timer D
1094:Drivers/STM32G4xx_HAL_Driver/Src/stm32g4xx_hal_hrtim.c ****   *                   @arg HRTIM_TIMERINDEX_TIMER_E for timer E
1095:Drivers/STM32G4xx_HAL_Driver/Src/stm32g4xx_hal_hrtim.c ****   *                   @arg HRTIM_TIMERINDEX_TIMER_F for timer F
1096:Drivers/STM32G4xx_HAL_Driver/Src/stm32g4xx_hal_hrtim.c ****   * @retval HAL status
1097:Drivers/STM32G4xx_HAL_Driver/Src/stm32g4xx_hal_hrtim.c ****   */
1098:Drivers/STM32G4xx_HAL_Driver/Src/stm32g4xx_hal_hrtim.c **** HAL_StatusTypeDef HAL_HRTIM_SimpleBaseStop_IT(HRTIM_HandleTypeDef * hhrtim,
1099:Drivers/STM32G4xx_HAL_Driver/Src/stm32g4xx_hal_hrtim.c ****                                              uint32_t TimerIdx)
1100:Drivers/STM32G4xx_HAL_Driver/Src/stm32g4xx_hal_hrtim.c **** {
 1315              		.loc 1 1100 1
ARM GAS  /tmp/cclQbFqw.s 			page 43


 1316              		.cfi_startproc
 1317              		@ args = 0, pretend = 0, frame = 8
 1318              		@ frame_needed = 1, uses_anonymous_args = 0
 1319              		@ link register save eliminated.
 1320 0000 80B4     		push	{r7}
 1321              	.LCFI62:
 1322              		.cfi_def_cfa_offset 4
 1323              		.cfi_offset 7, -4
 1324 0002 83B0     		sub	sp, sp, #12
 1325              	.LCFI63:
 1326              		.cfi_def_cfa_offset 16
 1327 0004 00AF     		add	r7, sp, #0
 1328              	.LCFI64:
 1329              		.cfi_def_cfa_register 7
 1330 0006 7860     		str	r0, [r7, #4]
 1331 0008 3960     		str	r1, [r7]
1101:Drivers/STM32G4xx_HAL_Driver/Src/stm32g4xx_hal_hrtim.c ****    /* Check the parameters */
1102:Drivers/STM32G4xx_HAL_Driver/Src/stm32g4xx_hal_hrtim.c ****   assert_param(IS_HRTIM_TIMERINDEX(TimerIdx));
1103:Drivers/STM32G4xx_HAL_Driver/Src/stm32g4xx_hal_hrtim.c **** 
1104:Drivers/STM32G4xx_HAL_Driver/Src/stm32g4xx_hal_hrtim.c ****   /* Process Locked */
1105:Drivers/STM32G4xx_HAL_Driver/Src/stm32g4xx_hal_hrtim.c ****   __HAL_LOCK(hhrtim);
 1332              		.loc 1 1105 3
 1333 000a 7B68     		ldr	r3, [r7, #4]
 1334 000c 93F8DC30 		ldrb	r3, [r3, #220]	@ zero_extendqisi2
 1335 0010 012B     		cmp	r3, #1
 1336 0012 01D1     		bne	.L61
 1337              		.loc 1 1105 3 is_stmt 0 discriminator 1
 1338 0014 0223     		movs	r3, #2
 1339 0016 CCE0     		b	.L62
 1340              	.L61:
 1341              		.loc 1 1105 3 discriminator 2
 1342 0018 7B68     		ldr	r3, [r7, #4]
 1343 001a 0122     		movs	r2, #1
 1344 001c 83F8DC20 		strb	r2, [r3, #220]
1106:Drivers/STM32G4xx_HAL_Driver/Src/stm32g4xx_hal_hrtim.c **** 
1107:Drivers/STM32G4xx_HAL_Driver/Src/stm32g4xx_hal_hrtim.c ****   hhrtim->State = HAL_HRTIM_STATE_BUSY;
 1345              		.loc 1 1107 17 is_stmt 1 discriminator 2
 1346 0020 7B68     		ldr	r3, [r7, #4]
 1347 0022 0222     		movs	r2, #2
 1348 0024 83F8DD20 		strb	r2, [r3, #221]
1108:Drivers/STM32G4xx_HAL_Driver/Src/stm32g4xx_hal_hrtim.c **** 
1109:Drivers/STM32G4xx_HAL_Driver/Src/stm32g4xx_hal_hrtim.c ****   /* Disable the repetition interrupt */
1110:Drivers/STM32G4xx_HAL_Driver/Src/stm32g4xx_hal_hrtim.c ****   if (TimerIdx == HRTIM_TIMERINDEX_MASTER)
 1349              		.loc 1 1110 6 discriminator 2
 1350 0028 3B68     		ldr	r3, [r7]
 1351 002a 062B     		cmp	r3, #6
 1352 002c 08D1     		bne	.L63
1111:Drivers/STM32G4xx_HAL_Driver/Src/stm32g4xx_hal_hrtim.c ****   {
1112:Drivers/STM32G4xx_HAL_Driver/Src/stm32g4xx_hal_hrtim.c ****     __HAL_HRTIM_MASTER_DISABLE_IT(hhrtim, HRTIM_MASTER_IT_MREP);
 1353              		.loc 1 1112 5
 1354 002e 7B68     		ldr	r3, [r7, #4]
 1355 0030 1B68     		ldr	r3, [r3]
 1356 0032 DA68     		ldr	r2, [r3, #12]
 1357 0034 7B68     		ldr	r3, [r7, #4]
 1358 0036 1B68     		ldr	r3, [r3]
 1359 0038 22F01002 		bic	r2, r2, #16
 1360 003c DA60     		str	r2, [r3, #12]
ARM GAS  /tmp/cclQbFqw.s 			page 44


 1361 003e 0FE0     		b	.L64
 1362              	.L63:
1113:Drivers/STM32G4xx_HAL_Driver/Src/stm32g4xx_hal_hrtim.c ****   }
1114:Drivers/STM32G4xx_HAL_Driver/Src/stm32g4xx_hal_hrtim.c ****   else
1115:Drivers/STM32G4xx_HAL_Driver/Src/stm32g4xx_hal_hrtim.c ****   {
1116:Drivers/STM32G4xx_HAL_Driver/Src/stm32g4xx_hal_hrtim.c ****     __HAL_HRTIM_TIMER_DISABLE_IT(hhrtim, TimerIdx, HRTIM_TIM_IT_REP);
 1363              		.loc 1 1116 5
 1364 0040 7B68     		ldr	r3, [r7, #4]
 1365 0042 1A68     		ldr	r2, [r3]
 1366 0044 3B68     		ldr	r3, [r7]
 1367 0046 DB01     		lsls	r3, r3, #7
 1368 0048 1344     		add	r3, r3, r2
 1369 004a 8C33     		adds	r3, r3, #140
 1370 004c 1B68     		ldr	r3, [r3]
 1371 004e 7A68     		ldr	r2, [r7, #4]
 1372 0050 1168     		ldr	r1, [r2]
 1373 0052 23F01002 		bic	r2, r3, #16
 1374 0056 3B68     		ldr	r3, [r7]
 1375 0058 DB01     		lsls	r3, r3, #7
 1376 005a 0B44     		add	r3, r3, r1
 1377 005c 8C33     		adds	r3, r3, #140
 1378 005e 1A60     		str	r2, [r3]
 1379              	.L64:
1117:Drivers/STM32G4xx_HAL_Driver/Src/stm32g4xx_hal_hrtim.c ****   }
1118:Drivers/STM32G4xx_HAL_Driver/Src/stm32g4xx_hal_hrtim.c **** 
1119:Drivers/STM32G4xx_HAL_Driver/Src/stm32g4xx_hal_hrtim.c ****   /* Disable the timer counter */
1120:Drivers/STM32G4xx_HAL_Driver/Src/stm32g4xx_hal_hrtim.c ****   __HAL_HRTIM_DISABLE(hhrtim, TimerIdxToTimerId[TimerIdx]);
 1380              		.loc 1 1120 3
 1381 0060 574A     		ldr	r2, .L72
 1382 0062 3B68     		ldr	r3, [r7]
 1383 0064 52F82330 		ldr	r3, [r2, r3, lsl #2]
 1384 0068 03F48033 		and	r3, r3, #65536
 1385 006c 002B     		cmp	r3, #0
 1386 006e 07D0     		beq	.L65
 1387              		.loc 1 1120 3 is_stmt 0 discriminator 1
 1388 0070 7B68     		ldr	r3, [r7, #4]
 1389 0072 1B68     		ldr	r3, [r3]
 1390 0074 1A68     		ldr	r2, [r3]
 1391 0076 7B68     		ldr	r3, [r7, #4]
 1392 0078 1B68     		ldr	r3, [r3]
 1393 007a 22F48032 		bic	r2, r2, #65536
 1394 007e 1A60     		str	r2, [r3]
 1395              	.L65:
 1396              		.loc 1 1120 3 discriminator 3
 1397 0080 4F4A     		ldr	r2, .L72
 1398 0082 3B68     		ldr	r3, [r7]
 1399 0084 52F82330 		ldr	r3, [r2, r3, lsl #2]
 1400 0088 03F40033 		and	r3, r3, #131072
 1401 008c 002B     		cmp	r3, #0
 1402 008e 0FD0     		beq	.L66
 1403              		.loc 1 1120 3 discriminator 4
 1404 0090 7B68     		ldr	r3, [r7, #4]
 1405 0092 1B68     		ldr	r3, [r3]
 1406 0094 D3F89433 		ldr	r3, [r3, #916]
 1407 0098 03F00303 		and	r3, r3, #3
 1408 009c 002B     		cmp	r3, #0
 1409 009e 07D1     		bne	.L66
ARM GAS  /tmp/cclQbFqw.s 			page 45


 1410              		.loc 1 1120 3 discriminator 6
 1411 00a0 7B68     		ldr	r3, [r7, #4]
 1412 00a2 1B68     		ldr	r3, [r3]
 1413 00a4 1A68     		ldr	r2, [r3]
 1414 00a6 7B68     		ldr	r3, [r7, #4]
 1415 00a8 1B68     		ldr	r3, [r3]
 1416 00aa 22F40032 		bic	r2, r2, #131072
 1417 00ae 1A60     		str	r2, [r3]
 1418              	.L66:
 1419              		.loc 1 1120 3 discriminator 8
 1420 00b0 434A     		ldr	r2, .L72
 1421 00b2 3B68     		ldr	r3, [r7]
 1422 00b4 52F82330 		ldr	r3, [r2, r3, lsl #2]
 1423 00b8 03F48023 		and	r3, r3, #262144
 1424 00bc 002B     		cmp	r3, #0
 1425 00be 0FD0     		beq	.L67
 1426              		.loc 1 1120 3 discriminator 9
 1427 00c0 7B68     		ldr	r3, [r7, #4]
 1428 00c2 1B68     		ldr	r3, [r3]
 1429 00c4 D3F89433 		ldr	r3, [r3, #916]
 1430 00c8 03F00C03 		and	r3, r3, #12
 1431 00cc 002B     		cmp	r3, #0
 1432 00ce 07D1     		bne	.L67
 1433              		.loc 1 1120 3 discriminator 11
 1434 00d0 7B68     		ldr	r3, [r7, #4]
 1435 00d2 1B68     		ldr	r3, [r3]
 1436 00d4 1A68     		ldr	r2, [r3]
 1437 00d6 7B68     		ldr	r3, [r7, #4]
 1438 00d8 1B68     		ldr	r3, [r3]
 1439 00da 22F48022 		bic	r2, r2, #262144
 1440 00de 1A60     		str	r2, [r3]
 1441              	.L67:
 1442              		.loc 1 1120 3 discriminator 13
 1443 00e0 374A     		ldr	r2, .L72
 1444 00e2 3B68     		ldr	r3, [r7]
 1445 00e4 52F82330 		ldr	r3, [r2, r3, lsl #2]
 1446 00e8 03F40023 		and	r3, r3, #524288
 1447 00ec 002B     		cmp	r3, #0
 1448 00ee 0FD0     		beq	.L68
 1449              		.loc 1 1120 3 discriminator 14
 1450 00f0 7B68     		ldr	r3, [r7, #4]
 1451 00f2 1B68     		ldr	r3, [r3]
 1452 00f4 D3F89433 		ldr	r3, [r3, #916]
 1453 00f8 03F03003 		and	r3, r3, #48
 1454 00fc 002B     		cmp	r3, #0
 1455 00fe 07D1     		bne	.L68
 1456              		.loc 1 1120 3 discriminator 16
 1457 0100 7B68     		ldr	r3, [r7, #4]
 1458 0102 1B68     		ldr	r3, [r3]
 1459 0104 1A68     		ldr	r2, [r3]
 1460 0106 7B68     		ldr	r3, [r7, #4]
 1461 0108 1B68     		ldr	r3, [r3]
 1462 010a 22F40022 		bic	r2, r2, #524288
 1463 010e 1A60     		str	r2, [r3]
 1464              	.L68:
 1465              		.loc 1 1120 3 discriminator 18
 1466 0110 2B4A     		ldr	r2, .L72
ARM GAS  /tmp/cclQbFqw.s 			page 46


 1467 0112 3B68     		ldr	r3, [r7]
 1468 0114 52F82330 		ldr	r3, [r2, r3, lsl #2]
 1469 0118 03F48013 		and	r3, r3, #1048576
 1470 011c 002B     		cmp	r3, #0
 1471 011e 0FD0     		beq	.L69
 1472              		.loc 1 1120 3 discriminator 19
 1473 0120 7B68     		ldr	r3, [r7, #4]
 1474 0122 1B68     		ldr	r3, [r3]
 1475 0124 D3F89433 		ldr	r3, [r3, #916]
 1476 0128 03F0C003 		and	r3, r3, #192
 1477 012c 002B     		cmp	r3, #0
 1478 012e 07D1     		bne	.L69
 1479              		.loc 1 1120 3 discriminator 21
 1480 0130 7B68     		ldr	r3, [r7, #4]
 1481 0132 1B68     		ldr	r3, [r3]
 1482 0134 1A68     		ldr	r2, [r3]
 1483 0136 7B68     		ldr	r3, [r7, #4]
 1484 0138 1B68     		ldr	r3, [r3]
 1485 013a 22F48012 		bic	r2, r2, #1048576
 1486 013e 1A60     		str	r2, [r3]
 1487              	.L69:
 1488              		.loc 1 1120 3 discriminator 23
 1489 0140 1F4A     		ldr	r2, .L72
 1490 0142 3B68     		ldr	r3, [r7]
 1491 0144 52F82330 		ldr	r3, [r2, r3, lsl #2]
 1492 0148 03F40013 		and	r3, r3, #2097152
 1493 014c 002B     		cmp	r3, #0
 1494 014e 0FD0     		beq	.L70
 1495              		.loc 1 1120 3 discriminator 24
 1496 0150 7B68     		ldr	r3, [r7, #4]
 1497 0152 1B68     		ldr	r3, [r3]
 1498 0154 D3F89433 		ldr	r3, [r3, #916]
 1499 0158 03F44073 		and	r3, r3, #768
 1500 015c 002B     		cmp	r3, #0
 1501 015e 07D1     		bne	.L70
 1502              		.loc 1 1120 3 discriminator 26
 1503 0160 7B68     		ldr	r3, [r7, #4]
 1504 0162 1B68     		ldr	r3, [r3]
 1505 0164 1A68     		ldr	r2, [r3]
 1506 0166 7B68     		ldr	r3, [r7, #4]
 1507 0168 1B68     		ldr	r3, [r3]
 1508 016a 22F40012 		bic	r2, r2, #2097152
 1509 016e 1A60     		str	r2, [r3]
 1510              	.L70:
 1511              		.loc 1 1120 3 discriminator 28
 1512 0170 134A     		ldr	r2, .L72
 1513 0172 3B68     		ldr	r3, [r7]
 1514 0174 52F82330 		ldr	r3, [r2, r3, lsl #2]
 1515 0178 03F48003 		and	r3, r3, #4194304
 1516 017c 002B     		cmp	r3, #0
 1517 017e 0FD0     		beq	.L71
 1518              		.loc 1 1120 3 discriminator 29
 1519 0180 7B68     		ldr	r3, [r7, #4]
 1520 0182 1B68     		ldr	r3, [r3]
 1521 0184 D3F89433 		ldr	r3, [r3, #916]
 1522 0188 03F44063 		and	r3, r3, #3072
 1523 018c 002B     		cmp	r3, #0
ARM GAS  /tmp/cclQbFqw.s 			page 47


 1524 018e 07D1     		bne	.L71
 1525              		.loc 1 1120 3 discriminator 30
 1526 0190 7B68     		ldr	r3, [r7, #4]
 1527 0192 1B68     		ldr	r3, [r3]
 1528 0194 1A68     		ldr	r2, [r3]
 1529 0196 7B68     		ldr	r3, [r7, #4]
 1530 0198 1B68     		ldr	r3, [r3]
 1531 019a 22F48002 		bic	r2, r2, #4194304
 1532 019e 1A60     		str	r2, [r3]
 1533              	.L71:
1121:Drivers/STM32G4xx_HAL_Driver/Src/stm32g4xx_hal_hrtim.c **** 
1122:Drivers/STM32G4xx_HAL_Driver/Src/stm32g4xx_hal_hrtim.c ****   hhrtim->State = HAL_HRTIM_STATE_READY;
 1534              		.loc 1 1122 17 is_stmt 1
 1535 01a0 7B68     		ldr	r3, [r7, #4]
 1536 01a2 0122     		movs	r2, #1
 1537 01a4 83F8DD20 		strb	r2, [r3, #221]
1123:Drivers/STM32G4xx_HAL_Driver/Src/stm32g4xx_hal_hrtim.c **** 
1124:Drivers/STM32G4xx_HAL_Driver/Src/stm32g4xx_hal_hrtim.c ****   /* Process Unlocked */
1125:Drivers/STM32G4xx_HAL_Driver/Src/stm32g4xx_hal_hrtim.c ****   __HAL_UNLOCK(hhrtim);
 1538              		.loc 1 1125 3
 1539 01a8 7B68     		ldr	r3, [r7, #4]
 1540 01aa 0022     		movs	r2, #0
 1541 01ac 83F8DC20 		strb	r2, [r3, #220]
1126:Drivers/STM32G4xx_HAL_Driver/Src/stm32g4xx_hal_hrtim.c **** 
1127:Drivers/STM32G4xx_HAL_Driver/Src/stm32g4xx_hal_hrtim.c ****   return HAL_OK;
 1542              		.loc 1 1127 10
 1543 01b0 0023     		movs	r3, #0
 1544              	.L62:
1128:Drivers/STM32G4xx_HAL_Driver/Src/stm32g4xx_hal_hrtim.c **** }
 1545              		.loc 1 1128 1
 1546 01b2 1846     		mov	r0, r3
 1547 01b4 0C37     		adds	r7, r7, #12
 1548              	.LCFI65:
 1549              		.cfi_def_cfa_offset 4
 1550 01b6 BD46     		mov	sp, r7
 1551              	.LCFI66:
 1552              		.cfi_def_cfa_register 13
 1553              		@ sp needed
 1554 01b8 5DF8047B 		ldr	r7, [sp], #4
 1555              	.LCFI67:
 1556              		.cfi_restore 7
 1557              		.cfi_def_cfa_offset 0
 1558 01bc 7047     		bx	lr
 1559              	.L73:
 1560 01be 00BF     		.align	2
 1561              	.L72:
 1562 01c0 00000000 		.word	TimerIdxToTimerId
 1563              		.cfi_endproc
 1564              	.LFE336:
 1566              		.section	.text.HAL_HRTIM_SimpleBaseStart_DMA,"ax",%progbits
 1567              		.align	1
 1568              		.global	HAL_HRTIM_SimpleBaseStart_DMA
 1569              		.syntax unified
 1570              		.thumb
 1571              		.thumb_func
 1572              		.fpu fpv4-sp-d16
 1574              	HAL_HRTIM_SimpleBaseStart_DMA:
ARM GAS  /tmp/cclQbFqw.s 			page 48


 1575              	.LFB337:
1129:Drivers/STM32G4xx_HAL_Driver/Src/stm32g4xx_hal_hrtim.c **** 
1130:Drivers/STM32G4xx_HAL_Driver/Src/stm32g4xx_hal_hrtim.c **** /**
1131:Drivers/STM32G4xx_HAL_Driver/Src/stm32g4xx_hal_hrtim.c ****   * @brief  Start the counter of a timer operating in simple time base mode
1132:Drivers/STM32G4xx_HAL_Driver/Src/stm32g4xx_hal_hrtim.c ****   *         (Timer repetition DMA request is enabled).
1133:Drivers/STM32G4xx_HAL_Driver/Src/stm32g4xx_hal_hrtim.c ****   * @param  hhrtim pointer to HAL HRTIM handle
1134:Drivers/STM32G4xx_HAL_Driver/Src/stm32g4xx_hal_hrtim.c ****   * @param  TimerIdx Timer index.
1135:Drivers/STM32G4xx_HAL_Driver/Src/stm32g4xx_hal_hrtim.c ****   *                   This parameter can be one of the following values:
1136:Drivers/STM32G4xx_HAL_Driver/Src/stm32g4xx_hal_hrtim.c ****   *                    @arg HRTIM_TIMERINDEX_MASTER  for master timer
1137:Drivers/STM32G4xx_HAL_Driver/Src/stm32g4xx_hal_hrtim.c ****   *                    @arg HRTIM_TIMERINDEX_TIMER_A for timer A
1138:Drivers/STM32G4xx_HAL_Driver/Src/stm32g4xx_hal_hrtim.c ****   *                    @arg HRTIM_TIMERINDEX_TIMER_B for timer B
1139:Drivers/STM32G4xx_HAL_Driver/Src/stm32g4xx_hal_hrtim.c ****   *                    @arg HRTIM_TIMERINDEX_TIMER_C for timer C
1140:Drivers/STM32G4xx_HAL_Driver/Src/stm32g4xx_hal_hrtim.c ****   *                    @arg HRTIM_TIMERINDEX_TIMER_D for timer D
1141:Drivers/STM32G4xx_HAL_Driver/Src/stm32g4xx_hal_hrtim.c ****   *                    @arg HRTIM_TIMERINDEX_TIMER_E for timer E
1142:Drivers/STM32G4xx_HAL_Driver/Src/stm32g4xx_hal_hrtim.c ****   *                   @arg HRTIM_TIMERINDEX_TIMER_F for timer F
1143:Drivers/STM32G4xx_HAL_Driver/Src/stm32g4xx_hal_hrtim.c ****   * @param  SrcAddr DMA transfer source address
1144:Drivers/STM32G4xx_HAL_Driver/Src/stm32g4xx_hal_hrtim.c ****   * @param  DestAddr DMA transfer destination address
1145:Drivers/STM32G4xx_HAL_Driver/Src/stm32g4xx_hal_hrtim.c ****   * @param  Length The length of data items (data size) to be transferred
1146:Drivers/STM32G4xx_HAL_Driver/Src/stm32g4xx_hal_hrtim.c ****   *                     from source to destination
1147:Drivers/STM32G4xx_HAL_Driver/Src/stm32g4xx_hal_hrtim.c ****   */
1148:Drivers/STM32G4xx_HAL_Driver/Src/stm32g4xx_hal_hrtim.c **** HAL_StatusTypeDef HAL_HRTIM_SimpleBaseStart_DMA(HRTIM_HandleTypeDef * hhrtim,
1149:Drivers/STM32G4xx_HAL_Driver/Src/stm32g4xx_hal_hrtim.c ****                                                uint32_t TimerIdx,
1150:Drivers/STM32G4xx_HAL_Driver/Src/stm32g4xx_hal_hrtim.c ****                                                uint32_t SrcAddr,
1151:Drivers/STM32G4xx_HAL_Driver/Src/stm32g4xx_hal_hrtim.c ****                                                uint32_t DestAddr,
1152:Drivers/STM32G4xx_HAL_Driver/Src/stm32g4xx_hal_hrtim.c ****                                                uint32_t Length)
1153:Drivers/STM32G4xx_HAL_Driver/Src/stm32g4xx_hal_hrtim.c **** {
 1576              		.loc 1 1153 1
 1577              		.cfi_startproc
 1578              		@ args = 4, pretend = 0, frame = 24
 1579              		@ frame_needed = 1, uses_anonymous_args = 0
 1580 0000 80B5     		push	{r7, lr}
 1581              	.LCFI68:
 1582              		.cfi_def_cfa_offset 8
 1583              		.cfi_offset 7, -8
 1584              		.cfi_offset 14, -4
 1585 0002 86B0     		sub	sp, sp, #24
 1586              	.LCFI69:
 1587              		.cfi_def_cfa_offset 32
 1588 0004 00AF     		add	r7, sp, #0
 1589              	.LCFI70:
 1590              		.cfi_def_cfa_register 7
 1591 0006 F860     		str	r0, [r7, #12]
 1592 0008 B960     		str	r1, [r7, #8]
 1593 000a 7A60     		str	r2, [r7, #4]
 1594 000c 3B60     		str	r3, [r7]
1154:Drivers/STM32G4xx_HAL_Driver/Src/stm32g4xx_hal_hrtim.c ****   DMA_HandleTypeDef * hdma;
1155:Drivers/STM32G4xx_HAL_Driver/Src/stm32g4xx_hal_hrtim.c **** 
1156:Drivers/STM32G4xx_HAL_Driver/Src/stm32g4xx_hal_hrtim.c ****   /* Check the parameters */
1157:Drivers/STM32G4xx_HAL_Driver/Src/stm32g4xx_hal_hrtim.c ****   assert_param(IS_HRTIM_TIMERINDEX(TimerIdx));
1158:Drivers/STM32G4xx_HAL_Driver/Src/stm32g4xx_hal_hrtim.c **** 
1159:Drivers/STM32G4xx_HAL_Driver/Src/stm32g4xx_hal_hrtim.c ****   if(hhrtim->State == HAL_HRTIM_STATE_BUSY)
 1595              		.loc 1 1159 12
 1596 000e FB68     		ldr	r3, [r7, #12]
 1597 0010 93F8DD30 		ldrb	r3, [r3, #221]
 1598 0014 DBB2     		uxtb	r3, r3
 1599              		.loc 1 1159 5
 1600 0016 022B     		cmp	r3, #2
ARM GAS  /tmp/cclQbFqw.s 			page 49


 1601 0018 01D1     		bne	.L75
1160:Drivers/STM32G4xx_HAL_Driver/Src/stm32g4xx_hal_hrtim.c ****   {
1161:Drivers/STM32G4xx_HAL_Driver/Src/stm32g4xx_hal_hrtim.c ****      return HAL_BUSY;
 1602              		.loc 1 1161 13
 1603 001a 0223     		movs	r3, #2
 1604 001c 81E0     		b	.L76
 1605              	.L75:
1162:Drivers/STM32G4xx_HAL_Driver/Src/stm32g4xx_hal_hrtim.c ****   }
1163:Drivers/STM32G4xx_HAL_Driver/Src/stm32g4xx_hal_hrtim.c ****   if(hhrtim->State == HAL_HRTIM_STATE_READY)
 1606              		.loc 1 1163 12
 1607 001e FB68     		ldr	r3, [r7, #12]
 1608 0020 93F8DD30 		ldrb	r3, [r3, #221]
 1609 0024 DBB2     		uxtb	r3, r3
 1610              		.loc 1 1163 5
 1611 0026 012B     		cmp	r3, #1
 1612 0028 0ED1     		bne	.L77
1164:Drivers/STM32G4xx_HAL_Driver/Src/stm32g4xx_hal_hrtim.c ****   {
1165:Drivers/STM32G4xx_HAL_Driver/Src/stm32g4xx_hal_hrtim.c ****     if((SrcAddr == 0U ) || (DestAddr == 0U ) || (Length == 0U))
 1613              		.loc 1 1165 7
 1614 002a 7B68     		ldr	r3, [r7, #4]
 1615 002c 002B     		cmp	r3, #0
 1616 002e 05D0     		beq	.L78
 1617              		.loc 1 1165 25 discriminator 1
 1618 0030 3B68     		ldr	r3, [r7]
 1619 0032 002B     		cmp	r3, #0
 1620 0034 02D0     		beq	.L78
 1621              		.loc 1 1165 46 discriminator 2
 1622 0036 3B6A     		ldr	r3, [r7, #32]
 1623 0038 002B     		cmp	r3, #0
 1624 003a 01D1     		bne	.L79
 1625              	.L78:
1166:Drivers/STM32G4xx_HAL_Driver/Src/stm32g4xx_hal_hrtim.c ****     {
1167:Drivers/STM32G4xx_HAL_Driver/Src/stm32g4xx_hal_hrtim.c ****       return HAL_ERROR;
 1626              		.loc 1 1167 14
 1627 003c 0123     		movs	r3, #1
 1628 003e 70E0     		b	.L76
 1629              	.L79:
1168:Drivers/STM32G4xx_HAL_Driver/Src/stm32g4xx_hal_hrtim.c ****     }
1169:Drivers/STM32G4xx_HAL_Driver/Src/stm32g4xx_hal_hrtim.c ****     else
1170:Drivers/STM32G4xx_HAL_Driver/Src/stm32g4xx_hal_hrtim.c ****     {
1171:Drivers/STM32G4xx_HAL_Driver/Src/stm32g4xx_hal_hrtim.c ****       hhrtim->State = HAL_HRTIM_STATE_BUSY;
 1630              		.loc 1 1171 21
 1631 0040 FB68     		ldr	r3, [r7, #12]
 1632 0042 0222     		movs	r2, #2
 1633 0044 83F8DD20 		strb	r2, [r3, #221]
 1634              	.L77:
1172:Drivers/STM32G4xx_HAL_Driver/Src/stm32g4xx_hal_hrtim.c ****     }
1173:Drivers/STM32G4xx_HAL_Driver/Src/stm32g4xx_hal_hrtim.c ****   }
1174:Drivers/STM32G4xx_HAL_Driver/Src/stm32g4xx_hal_hrtim.c **** 
1175:Drivers/STM32G4xx_HAL_Driver/Src/stm32g4xx_hal_hrtim.c ****   /* Process Locked */
1176:Drivers/STM32G4xx_HAL_Driver/Src/stm32g4xx_hal_hrtim.c ****   __HAL_LOCK(hhrtim);
 1635              		.loc 1 1176 3
 1636 0048 FB68     		ldr	r3, [r7, #12]
 1637 004a 93F8DC30 		ldrb	r3, [r3, #220]	@ zero_extendqisi2
 1638 004e 012B     		cmp	r3, #1
 1639 0050 01D1     		bne	.L80
 1640              		.loc 1 1176 3 is_stmt 0 discriminator 1
ARM GAS  /tmp/cclQbFqw.s 			page 50


 1641 0052 0223     		movs	r3, #2
 1642 0054 65E0     		b	.L76
 1643              	.L80:
 1644              		.loc 1 1176 3 discriminator 2
 1645 0056 FB68     		ldr	r3, [r7, #12]
 1646 0058 0122     		movs	r2, #1
 1647 005a 83F8DC20 		strb	r2, [r3, #220]
1177:Drivers/STM32G4xx_HAL_Driver/Src/stm32g4xx_hal_hrtim.c **** 
1178:Drivers/STM32G4xx_HAL_Driver/Src/stm32g4xx_hal_hrtim.c ****   /* Get the timer DMA handler */
1179:Drivers/STM32G4xx_HAL_Driver/Src/stm32g4xx_hal_hrtim.c ****   hdma = HRTIM_GetDMAHandleFromTimerIdx(hhrtim, TimerIdx);
 1648              		.loc 1 1179 10 is_stmt 1 discriminator 2
 1649 005e B968     		ldr	r1, [r7, #8]
 1650 0060 F868     		ldr	r0, [r7, #12]
 1651 0062 FFF7FEFF 		bl	HRTIM_GetDMAHandleFromTimerIdx
 1652 0066 7861     		str	r0, [r7, #20]
1180:Drivers/STM32G4xx_HAL_Driver/Src/stm32g4xx_hal_hrtim.c **** 
1181:Drivers/STM32G4xx_HAL_Driver/Src/stm32g4xx_hal_hrtim.c ****   if (hdma == NULL)
 1653              		.loc 1 1181 6 discriminator 2
 1654 0068 7B69     		ldr	r3, [r7, #20]
 1655 006a 002B     		cmp	r3, #0
 1656 006c 09D1     		bne	.L81
1182:Drivers/STM32G4xx_HAL_Driver/Src/stm32g4xx_hal_hrtim.c ****   {
1183:Drivers/STM32G4xx_HAL_Driver/Src/stm32g4xx_hal_hrtim.c ****    hhrtim->State = HAL_HRTIM_STATE_ERROR;
 1657              		.loc 1 1183 18
 1658 006e FB68     		ldr	r3, [r7, #12]
 1659 0070 0722     		movs	r2, #7
 1660 0072 83F8DD20 		strb	r2, [r3, #221]
1184:Drivers/STM32G4xx_HAL_Driver/Src/stm32g4xx_hal_hrtim.c **** 
1185:Drivers/STM32G4xx_HAL_Driver/Src/stm32g4xx_hal_hrtim.c ****    /* Process Unlocked */
1186:Drivers/STM32G4xx_HAL_Driver/Src/stm32g4xx_hal_hrtim.c ****    __HAL_UNLOCK(hhrtim);
 1661              		.loc 1 1186 4
 1662 0076 FB68     		ldr	r3, [r7, #12]
 1663 0078 0022     		movs	r2, #0
 1664 007a 83F8DC20 		strb	r2, [r3, #220]
1187:Drivers/STM32G4xx_HAL_Driver/Src/stm32g4xx_hal_hrtim.c **** 
1188:Drivers/STM32G4xx_HAL_Driver/Src/stm32g4xx_hal_hrtim.c ****    return HAL_ERROR;
 1665              		.loc 1 1188 11
 1666 007e 0123     		movs	r3, #1
 1667 0080 4FE0     		b	.L76
 1668              	.L81:
1189:Drivers/STM32G4xx_HAL_Driver/Src/stm32g4xx_hal_hrtim.c ****   }
1190:Drivers/STM32G4xx_HAL_Driver/Src/stm32g4xx_hal_hrtim.c **** 
1191:Drivers/STM32G4xx_HAL_Driver/Src/stm32g4xx_hal_hrtim.c ****   /* Set the DMA transfer completed callback */
1192:Drivers/STM32G4xx_HAL_Driver/Src/stm32g4xx_hal_hrtim.c ****   if (TimerIdx == HRTIM_TIMERINDEX_MASTER)
 1669              		.loc 1 1192 6
 1670 0082 BB68     		ldr	r3, [r7, #8]
 1671 0084 062B     		cmp	r3, #6
 1672 0086 03D1     		bne	.L82
1193:Drivers/STM32G4xx_HAL_Driver/Src/stm32g4xx_hal_hrtim.c ****   {
1194:Drivers/STM32G4xx_HAL_Driver/Src/stm32g4xx_hal_hrtim.c ****     hdma->XferCpltCallback = HRTIM_DMAMasterCplt;
 1673              		.loc 1 1194 28
 1674 0088 7B69     		ldr	r3, [r7, #20]
 1675 008a 284A     		ldr	r2, .L87
 1676 008c DA62     		str	r2, [r3, #44]
 1677 008e 02E0     		b	.L83
 1678              	.L82:
1195:Drivers/STM32G4xx_HAL_Driver/Src/stm32g4xx_hal_hrtim.c ****   }
ARM GAS  /tmp/cclQbFqw.s 			page 51


1196:Drivers/STM32G4xx_HAL_Driver/Src/stm32g4xx_hal_hrtim.c ****   else
1197:Drivers/STM32G4xx_HAL_Driver/Src/stm32g4xx_hal_hrtim.c ****   {
1198:Drivers/STM32G4xx_HAL_Driver/Src/stm32g4xx_hal_hrtim.c ****     hdma->XferCpltCallback = HRTIM_DMATimerxCplt;
 1679              		.loc 1 1198 28
 1680 0090 7B69     		ldr	r3, [r7, #20]
 1681 0092 274A     		ldr	r2, .L87+4
 1682 0094 DA62     		str	r2, [r3, #44]
 1683              	.L83:
1199:Drivers/STM32G4xx_HAL_Driver/Src/stm32g4xx_hal_hrtim.c ****   }
1200:Drivers/STM32G4xx_HAL_Driver/Src/stm32g4xx_hal_hrtim.c **** 
1201:Drivers/STM32G4xx_HAL_Driver/Src/stm32g4xx_hal_hrtim.c ****   /* Set the DMA error callback */
1202:Drivers/STM32G4xx_HAL_Driver/Src/stm32g4xx_hal_hrtim.c ****   hdma->XferErrorCallback = HRTIM_DMAError ;
 1684              		.loc 1 1202 27
 1685 0096 7B69     		ldr	r3, [r7, #20]
 1686 0098 264A     		ldr	r2, .L87+8
 1687 009a 5A63     		str	r2, [r3, #52]
1203:Drivers/STM32G4xx_HAL_Driver/Src/stm32g4xx_hal_hrtim.c **** 
1204:Drivers/STM32G4xx_HAL_Driver/Src/stm32g4xx_hal_hrtim.c ****   /* Enable the DMA channel */
1205:Drivers/STM32G4xx_HAL_Driver/Src/stm32g4xx_hal_hrtim.c ****   if (HAL_DMA_Start_IT(hdma, SrcAddr, DestAddr, Length) != HAL_OK)
 1688              		.loc 1 1205 7
 1689 009c 3B6A     		ldr	r3, [r7, #32]
 1690 009e 3A68     		ldr	r2, [r7]
 1691 00a0 7968     		ldr	r1, [r7, #4]
 1692 00a2 7869     		ldr	r0, [r7, #20]
 1693 00a4 FFF7FEFF 		bl	HAL_DMA_Start_IT
 1694 00a8 0346     		mov	r3, r0
 1695              		.loc 1 1205 6
 1696 00aa 002B     		cmp	r3, #0
 1697 00ac 09D0     		beq	.L84
1206:Drivers/STM32G4xx_HAL_Driver/Src/stm32g4xx_hal_hrtim.c ****     {
1207:Drivers/STM32G4xx_HAL_Driver/Src/stm32g4xx_hal_hrtim.c ****         hhrtim->State = HAL_HRTIM_STATE_ERROR;
 1698              		.loc 1 1207 23
 1699 00ae FB68     		ldr	r3, [r7, #12]
 1700 00b0 0722     		movs	r2, #7
 1701 00b2 83F8DD20 		strb	r2, [r3, #221]
1208:Drivers/STM32G4xx_HAL_Driver/Src/stm32g4xx_hal_hrtim.c **** 
1209:Drivers/STM32G4xx_HAL_Driver/Src/stm32g4xx_hal_hrtim.c ****         /* Process Unlocked */
1210:Drivers/STM32G4xx_HAL_Driver/Src/stm32g4xx_hal_hrtim.c ****         __HAL_UNLOCK(hhrtim);
 1702              		.loc 1 1210 9
 1703 00b6 FB68     		ldr	r3, [r7, #12]
 1704 00b8 0022     		movs	r2, #0
 1705 00ba 83F8DC20 		strb	r2, [r3, #220]
1211:Drivers/STM32G4xx_HAL_Driver/Src/stm32g4xx_hal_hrtim.c **** 
1212:Drivers/STM32G4xx_HAL_Driver/Src/stm32g4xx_hal_hrtim.c ****         return HAL_ERROR;
 1706              		.loc 1 1212 16
 1707 00be 0123     		movs	r3, #1
 1708 00c0 2FE0     		b	.L76
 1709              	.L84:
1213:Drivers/STM32G4xx_HAL_Driver/Src/stm32g4xx_hal_hrtim.c ****     }
1214:Drivers/STM32G4xx_HAL_Driver/Src/stm32g4xx_hal_hrtim.c **** 
1215:Drivers/STM32G4xx_HAL_Driver/Src/stm32g4xx_hal_hrtim.c ****   /* Enable the timer repetition DMA request */
1216:Drivers/STM32G4xx_HAL_Driver/Src/stm32g4xx_hal_hrtim.c ****   if (TimerIdx == HRTIM_TIMERINDEX_MASTER)
 1710              		.loc 1 1216 6
 1711 00c2 BB68     		ldr	r3, [r7, #8]
 1712 00c4 062B     		cmp	r3, #6
 1713 00c6 08D1     		bne	.L85
1217:Drivers/STM32G4xx_HAL_Driver/Src/stm32g4xx_hal_hrtim.c ****   {
ARM GAS  /tmp/cclQbFqw.s 			page 52


1218:Drivers/STM32G4xx_HAL_Driver/Src/stm32g4xx_hal_hrtim.c ****     __HAL_HRTIM_MASTER_ENABLE_DMA(hhrtim, HRTIM_MASTER_DMA_MREP);
 1714              		.loc 1 1218 5
 1715 00c8 FB68     		ldr	r3, [r7, #12]
 1716 00ca 1B68     		ldr	r3, [r3]
 1717 00cc DA68     		ldr	r2, [r3, #12]
 1718 00ce FB68     		ldr	r3, [r7, #12]
 1719 00d0 1B68     		ldr	r3, [r3]
 1720 00d2 42F48012 		orr	r2, r2, #1048576
 1721 00d6 DA60     		str	r2, [r3, #12]
 1722 00d8 0FE0     		b	.L86
 1723              	.L85:
1219:Drivers/STM32G4xx_HAL_Driver/Src/stm32g4xx_hal_hrtim.c ****   }
1220:Drivers/STM32G4xx_HAL_Driver/Src/stm32g4xx_hal_hrtim.c ****   else
1221:Drivers/STM32G4xx_HAL_Driver/Src/stm32g4xx_hal_hrtim.c ****   {
1222:Drivers/STM32G4xx_HAL_Driver/Src/stm32g4xx_hal_hrtim.c ****     __HAL_HRTIM_TIMER_ENABLE_DMA(hhrtim, TimerIdx, HRTIM_TIM_DMA_REP);
 1724              		.loc 1 1222 5
 1725 00da FB68     		ldr	r3, [r7, #12]
 1726 00dc 1A68     		ldr	r2, [r3]
 1727 00de BB68     		ldr	r3, [r7, #8]
 1728 00e0 DB01     		lsls	r3, r3, #7
 1729 00e2 1344     		add	r3, r3, r2
 1730 00e4 8C33     		adds	r3, r3, #140
 1731 00e6 1B68     		ldr	r3, [r3]
 1732 00e8 FA68     		ldr	r2, [r7, #12]
 1733 00ea 1168     		ldr	r1, [r2]
 1734 00ec 43F48012 		orr	r2, r3, #1048576
 1735 00f0 BB68     		ldr	r3, [r7, #8]
 1736 00f2 DB01     		lsls	r3, r3, #7
 1737 00f4 0B44     		add	r3, r3, r1
 1738 00f6 8C33     		adds	r3, r3, #140
 1739 00f8 1A60     		str	r2, [r3]
 1740              	.L86:
1223:Drivers/STM32G4xx_HAL_Driver/Src/stm32g4xx_hal_hrtim.c ****   }
1224:Drivers/STM32G4xx_HAL_Driver/Src/stm32g4xx_hal_hrtim.c **** 
1225:Drivers/STM32G4xx_HAL_Driver/Src/stm32g4xx_hal_hrtim.c ****   /* Enable the timer counter */
1226:Drivers/STM32G4xx_HAL_Driver/Src/stm32g4xx_hal_hrtim.c ****   __HAL_HRTIM_ENABLE(hhrtim, TimerIdxToTimerId[TimerIdx]);
 1741              		.loc 1 1226 3
 1742 00fa FB68     		ldr	r3, [r7, #12]
 1743 00fc 1B68     		ldr	r3, [r3]
 1744 00fe 1968     		ldr	r1, [r3]
 1745 0100 0D4A     		ldr	r2, .L87+12
 1746 0102 BB68     		ldr	r3, [r7, #8]
 1747 0104 52F82320 		ldr	r2, [r2, r3, lsl #2]
 1748 0108 FB68     		ldr	r3, [r7, #12]
 1749 010a 1B68     		ldr	r3, [r3]
 1750 010c 0A43     		orrs	r2, r2, r1
 1751 010e 1A60     		str	r2, [r3]
1227:Drivers/STM32G4xx_HAL_Driver/Src/stm32g4xx_hal_hrtim.c **** 
1228:Drivers/STM32G4xx_HAL_Driver/Src/stm32g4xx_hal_hrtim.c ****   hhrtim->State = HAL_HRTIM_STATE_READY;
 1752              		.loc 1 1228 17
 1753 0110 FB68     		ldr	r3, [r7, #12]
 1754 0112 0122     		movs	r2, #1
 1755 0114 83F8DD20 		strb	r2, [r3, #221]
1229:Drivers/STM32G4xx_HAL_Driver/Src/stm32g4xx_hal_hrtim.c **** 
1230:Drivers/STM32G4xx_HAL_Driver/Src/stm32g4xx_hal_hrtim.c ****   /* Process Unlocked */
1231:Drivers/STM32G4xx_HAL_Driver/Src/stm32g4xx_hal_hrtim.c ****   __HAL_UNLOCK(hhrtim);
 1756              		.loc 1 1231 3
ARM GAS  /tmp/cclQbFqw.s 			page 53


 1757 0118 FB68     		ldr	r3, [r7, #12]
 1758 011a 0022     		movs	r2, #0
 1759 011c 83F8DC20 		strb	r2, [r3, #220]
1232:Drivers/STM32G4xx_HAL_Driver/Src/stm32g4xx_hal_hrtim.c **** 
1233:Drivers/STM32G4xx_HAL_Driver/Src/stm32g4xx_hal_hrtim.c ****   return HAL_OK;
 1760              		.loc 1 1233 10
 1761 0120 0023     		movs	r3, #0
 1762              	.L76:
1234:Drivers/STM32G4xx_HAL_Driver/Src/stm32g4xx_hal_hrtim.c **** }
 1763              		.loc 1 1234 1
 1764 0122 1846     		mov	r0, r3
 1765 0124 1837     		adds	r7, r7, #24
 1766              	.LCFI71:
 1767              		.cfi_def_cfa_offset 8
 1768 0126 BD46     		mov	sp, r7
 1769              	.LCFI72:
 1770              		.cfi_def_cfa_register 13
 1771              		@ sp needed
 1772 0128 80BD     		pop	{r7, pc}
 1773              	.L88:
 1774 012a 00BF     		.align	2
 1775              	.L87:
 1776 012c 00000000 		.word	HRTIM_DMAMasterCplt
 1777 0130 00000000 		.word	HRTIM_DMATimerxCplt
 1778 0134 00000000 		.word	HRTIM_DMAError
 1779 0138 00000000 		.word	TimerIdxToTimerId
 1780              		.cfi_endproc
 1781              	.LFE337:
 1783              		.section	.text.HAL_HRTIM_SimpleBaseStop_DMA,"ax",%progbits
 1784              		.align	1
 1785              		.global	HAL_HRTIM_SimpleBaseStop_DMA
 1786              		.syntax unified
 1787              		.thumb
 1788              		.thumb_func
 1789              		.fpu fpv4-sp-d16
 1791              	HAL_HRTIM_SimpleBaseStop_DMA:
 1792              	.LFB338:
1235:Drivers/STM32G4xx_HAL_Driver/Src/stm32g4xx_hal_hrtim.c **** 
1236:Drivers/STM32G4xx_HAL_Driver/Src/stm32g4xx_hal_hrtim.c **** /**
1237:Drivers/STM32G4xx_HAL_Driver/Src/stm32g4xx_hal_hrtim.c ****   * @brief  Stop the counter of a timer operating in simple time base mode
1238:Drivers/STM32G4xx_HAL_Driver/Src/stm32g4xx_hal_hrtim.c ****   *         (Timer repetition DMA request is disabled).
1239:Drivers/STM32G4xx_HAL_Driver/Src/stm32g4xx_hal_hrtim.c ****   * @param  hhrtim pointer to HAL HRTIM handle
1240:Drivers/STM32G4xx_HAL_Driver/Src/stm32g4xx_hal_hrtim.c ****   * @param  TimerIdx Timer index.
1241:Drivers/STM32G4xx_HAL_Driver/Src/stm32g4xx_hal_hrtim.c ****   *                   This parameter can be one of the following values:
1242:Drivers/STM32G4xx_HAL_Driver/Src/stm32g4xx_hal_hrtim.c ****   *                   @arg HRTIM_TIMERINDEX_MASTER  for master timer
1243:Drivers/STM32G4xx_HAL_Driver/Src/stm32g4xx_hal_hrtim.c ****   *                   @arg HRTIM_TIMERINDEX_TIMER_A for timer A
1244:Drivers/STM32G4xx_HAL_Driver/Src/stm32g4xx_hal_hrtim.c ****   *                   @arg HRTIM_TIMERINDEX_TIMER_B for timer B
1245:Drivers/STM32G4xx_HAL_Driver/Src/stm32g4xx_hal_hrtim.c ****   *                   @arg HRTIM_TIMERINDEX_TIMER_C for timer C
1246:Drivers/STM32G4xx_HAL_Driver/Src/stm32g4xx_hal_hrtim.c ****   *                   @arg HRTIM_TIMERINDEX_TIMER_D for timer D
1247:Drivers/STM32G4xx_HAL_Driver/Src/stm32g4xx_hal_hrtim.c ****   *                   @arg HRTIM_TIMERINDEX_TIMER_E for timer E
1248:Drivers/STM32G4xx_HAL_Driver/Src/stm32g4xx_hal_hrtim.c ****   *                   @arg HRTIM_TIMERINDEX_TIMER_F for timer F
1249:Drivers/STM32G4xx_HAL_Driver/Src/stm32g4xx_hal_hrtim.c ****   * @retval HAL status
1250:Drivers/STM32G4xx_HAL_Driver/Src/stm32g4xx_hal_hrtim.c ****   */
1251:Drivers/STM32G4xx_HAL_Driver/Src/stm32g4xx_hal_hrtim.c **** HAL_StatusTypeDef HAL_HRTIM_SimpleBaseStop_DMA(HRTIM_HandleTypeDef * hhrtim,
1252:Drivers/STM32G4xx_HAL_Driver/Src/stm32g4xx_hal_hrtim.c ****                                               uint32_t TimerIdx)
1253:Drivers/STM32G4xx_HAL_Driver/Src/stm32g4xx_hal_hrtim.c **** {
 1793              		.loc 1 1253 1
ARM GAS  /tmp/cclQbFqw.s 			page 54


 1794              		.cfi_startproc
 1795              		@ args = 0, pretend = 0, frame = 16
 1796              		@ frame_needed = 1, uses_anonymous_args = 0
 1797 0000 80B5     		push	{r7, lr}
 1798              	.LCFI73:
 1799              		.cfi_def_cfa_offset 8
 1800              		.cfi_offset 7, -8
 1801              		.cfi_offset 14, -4
 1802 0002 84B0     		sub	sp, sp, #16
 1803              	.LCFI74:
 1804              		.cfi_def_cfa_offset 24
 1805 0004 00AF     		add	r7, sp, #0
 1806              	.LCFI75:
 1807              		.cfi_def_cfa_register 7
 1808 0006 7860     		str	r0, [r7, #4]
 1809 0008 3960     		str	r1, [r7]
1254:Drivers/STM32G4xx_HAL_Driver/Src/stm32g4xx_hal_hrtim.c ****   DMA_HandleTypeDef * hdma;
1255:Drivers/STM32G4xx_HAL_Driver/Src/stm32g4xx_hal_hrtim.c **** 
1256:Drivers/STM32G4xx_HAL_Driver/Src/stm32g4xx_hal_hrtim.c ****   /* Check the parameters */
1257:Drivers/STM32G4xx_HAL_Driver/Src/stm32g4xx_hal_hrtim.c ****   assert_param(IS_HRTIM_TIMERINDEX(TimerIdx));
1258:Drivers/STM32G4xx_HAL_Driver/Src/stm32g4xx_hal_hrtim.c **** 
1259:Drivers/STM32G4xx_HAL_Driver/Src/stm32g4xx_hal_hrtim.c ****   /* Process Locked */
1260:Drivers/STM32G4xx_HAL_Driver/Src/stm32g4xx_hal_hrtim.c ****   __HAL_LOCK(hhrtim);
 1810              		.loc 1 1260 3
 1811 000a 7B68     		ldr	r3, [r7, #4]
 1812 000c 93F8DC30 		ldrb	r3, [r3, #220]	@ zero_extendqisi2
 1813 0010 012B     		cmp	r3, #1
 1814 0012 01D1     		bne	.L90
 1815              		.loc 1 1260 3 is_stmt 0 discriminator 1
 1816 0014 0223     		movs	r3, #2
 1817 0016 F8E0     		b	.L91
 1818              	.L90:
 1819              		.loc 1 1260 3 discriminator 2
 1820 0018 7B68     		ldr	r3, [r7, #4]
 1821 001a 0122     		movs	r2, #1
 1822 001c 83F8DC20 		strb	r2, [r3, #220]
1261:Drivers/STM32G4xx_HAL_Driver/Src/stm32g4xx_hal_hrtim.c **** 
1262:Drivers/STM32G4xx_HAL_Driver/Src/stm32g4xx_hal_hrtim.c ****   if (TimerIdx == HRTIM_TIMERINDEX_MASTER)
 1823              		.loc 1 1262 6 is_stmt 1 discriminator 2
 1824 0020 3B68     		ldr	r3, [r7]
 1825 0022 062B     		cmp	r3, #6
 1826 0024 19D1     		bne	.L92
1263:Drivers/STM32G4xx_HAL_Driver/Src/stm32g4xx_hal_hrtim.c ****   {
1264:Drivers/STM32G4xx_HAL_Driver/Src/stm32g4xx_hal_hrtim.c ****     hhrtim->State = HAL_HRTIM_STATE_READY;
 1827              		.loc 1 1264 19
 1828 0026 7B68     		ldr	r3, [r7, #4]
 1829 0028 0122     		movs	r2, #1
 1830 002a 83F8DD20 		strb	r2, [r3, #221]
1265:Drivers/STM32G4xx_HAL_Driver/Src/stm32g4xx_hal_hrtim.c **** 
1266:Drivers/STM32G4xx_HAL_Driver/Src/stm32g4xx_hal_hrtim.c ****     /* Disable the DMA */
1267:Drivers/STM32G4xx_HAL_Driver/Src/stm32g4xx_hal_hrtim.c ****     if (HAL_DMA_Abort(hhrtim->hdmaMaster) != HAL_OK)
 1831              		.loc 1 1267 9
 1832 002e 7B68     		ldr	r3, [r7, #4]
 1833 0030 D3F8E030 		ldr	r3, [r3, #224]
 1834 0034 1846     		mov	r0, r3
 1835 0036 FFF7FEFF 		bl	HAL_DMA_Abort
 1836 003a 0346     		mov	r3, r0
ARM GAS  /tmp/cclQbFqw.s 			page 55


 1837              		.loc 1 1267 8
 1838 003c 002B     		cmp	r3, #0
 1839 003e 03D0     		beq	.L93
1268:Drivers/STM32G4xx_HAL_Driver/Src/stm32g4xx_hal_hrtim.c ****     {
1269:Drivers/STM32G4xx_HAL_Driver/Src/stm32g4xx_hal_hrtim.c ****         hhrtim->State = HAL_HRTIM_STATE_ERROR;
 1840              		.loc 1 1269 23
 1841 0040 7B68     		ldr	r3, [r7, #4]
 1842 0042 0722     		movs	r2, #7
 1843 0044 83F8DD20 		strb	r2, [r3, #221]
 1844              	.L93:
1270:Drivers/STM32G4xx_HAL_Driver/Src/stm32g4xx_hal_hrtim.c ****     }
1271:Drivers/STM32G4xx_HAL_Driver/Src/stm32g4xx_hal_hrtim.c ****     /* Disable the timer repetition DMA request */
1272:Drivers/STM32G4xx_HAL_Driver/Src/stm32g4xx_hal_hrtim.c ****     __HAL_HRTIM_MASTER_DISABLE_DMA(hhrtim, HRTIM_MASTER_DMA_MREP);
 1845              		.loc 1 1272 5
 1846 0048 7B68     		ldr	r3, [r7, #4]
 1847 004a 1B68     		ldr	r3, [r3]
 1848 004c DA68     		ldr	r2, [r3, #12]
 1849 004e 7B68     		ldr	r3, [r7, #4]
 1850 0050 1B68     		ldr	r3, [r3]
 1851 0052 22F48012 		bic	r2, r2, #1048576
 1852 0056 DA60     		str	r2, [r3, #12]
 1853 0058 2AE0     		b	.L94
 1854              	.L92:
1273:Drivers/STM32G4xx_HAL_Driver/Src/stm32g4xx_hal_hrtim.c ****   }
1274:Drivers/STM32G4xx_HAL_Driver/Src/stm32g4xx_hal_hrtim.c ****   else
1275:Drivers/STM32G4xx_HAL_Driver/Src/stm32g4xx_hal_hrtim.c ****   {
1276:Drivers/STM32G4xx_HAL_Driver/Src/stm32g4xx_hal_hrtim.c ****     /* Get the timer DMA handler */
1277:Drivers/STM32G4xx_HAL_Driver/Src/stm32g4xx_hal_hrtim.c ****     hdma = HRTIM_GetDMAHandleFromTimerIdx(hhrtim, TimerIdx);
 1855              		.loc 1 1277 12
 1856 005a 3968     		ldr	r1, [r7]
 1857 005c 7868     		ldr	r0, [r7, #4]
 1858 005e FFF7FEFF 		bl	HRTIM_GetDMAHandleFromTimerIdx
 1859 0062 F860     		str	r0, [r7, #12]
1278:Drivers/STM32G4xx_HAL_Driver/Src/stm32g4xx_hal_hrtim.c **** 
1279:Drivers/STM32G4xx_HAL_Driver/Src/stm32g4xx_hal_hrtim.c ****     if (hdma == NULL)
 1860              		.loc 1 1279 8
 1861 0064 FB68     		ldr	r3, [r7, #12]
 1862 0066 002B     		cmp	r3, #0
 1863 0068 04D1     		bne	.L95
1280:Drivers/STM32G4xx_HAL_Driver/Src/stm32g4xx_hal_hrtim.c ****     {
1281:Drivers/STM32G4xx_HAL_Driver/Src/stm32g4xx_hal_hrtim.c ****       hhrtim->State = HAL_HRTIM_STATE_ERROR;
 1864              		.loc 1 1281 21
 1865 006a 7B68     		ldr	r3, [r7, #4]
 1866 006c 0722     		movs	r2, #7
 1867 006e 83F8DD20 		strb	r2, [r3, #221]
 1868 0072 1DE0     		b	.L94
 1869              	.L95:
1282:Drivers/STM32G4xx_HAL_Driver/Src/stm32g4xx_hal_hrtim.c ****     }
1283:Drivers/STM32G4xx_HAL_Driver/Src/stm32g4xx_hal_hrtim.c ****     else
1284:Drivers/STM32G4xx_HAL_Driver/Src/stm32g4xx_hal_hrtim.c ****     {
1285:Drivers/STM32G4xx_HAL_Driver/Src/stm32g4xx_hal_hrtim.c ****       hhrtim->State = HAL_HRTIM_STATE_READY;
 1870              		.loc 1 1285 21
 1871 0074 7B68     		ldr	r3, [r7, #4]
 1872 0076 0122     		movs	r2, #1
 1873 0078 83F8DD20 		strb	r2, [r3, #221]
1286:Drivers/STM32G4xx_HAL_Driver/Src/stm32g4xx_hal_hrtim.c **** 
1287:Drivers/STM32G4xx_HAL_Driver/Src/stm32g4xx_hal_hrtim.c ****       /* Disable the DMA */
ARM GAS  /tmp/cclQbFqw.s 			page 56


1288:Drivers/STM32G4xx_HAL_Driver/Src/stm32g4xx_hal_hrtim.c ****       if (HAL_DMA_Abort(hdma) != HAL_OK)
 1874              		.loc 1 1288 11
 1875 007c F868     		ldr	r0, [r7, #12]
 1876 007e FFF7FEFF 		bl	HAL_DMA_Abort
 1877 0082 0346     		mov	r3, r0
 1878              		.loc 1 1288 10
 1879 0084 002B     		cmp	r3, #0
 1880 0086 03D0     		beq	.L96
1289:Drivers/STM32G4xx_HAL_Driver/Src/stm32g4xx_hal_hrtim.c ****       {
1290:Drivers/STM32G4xx_HAL_Driver/Src/stm32g4xx_hal_hrtim.c ****          hhrtim->State = HAL_HRTIM_STATE_ERROR;
 1881              		.loc 1 1290 24
 1882 0088 7B68     		ldr	r3, [r7, #4]
 1883 008a 0722     		movs	r2, #7
 1884 008c 83F8DD20 		strb	r2, [r3, #221]
 1885              	.L96:
1291:Drivers/STM32G4xx_HAL_Driver/Src/stm32g4xx_hal_hrtim.c ****       }
1292:Drivers/STM32G4xx_HAL_Driver/Src/stm32g4xx_hal_hrtim.c **** 
1293:Drivers/STM32G4xx_HAL_Driver/Src/stm32g4xx_hal_hrtim.c ****       /* Disable the timer repetition DMA request */
1294:Drivers/STM32G4xx_HAL_Driver/Src/stm32g4xx_hal_hrtim.c ****       __HAL_HRTIM_TIMER_DISABLE_DMA(hhrtim, TimerIdx, HRTIM_TIM_DMA_REP);
 1886              		.loc 1 1294 7
 1887 0090 7B68     		ldr	r3, [r7, #4]
 1888 0092 1A68     		ldr	r2, [r3]
 1889 0094 3B68     		ldr	r3, [r7]
 1890 0096 DB01     		lsls	r3, r3, #7
 1891 0098 1344     		add	r3, r3, r2
 1892 009a 8C33     		adds	r3, r3, #140
 1893 009c 1B68     		ldr	r3, [r3]
 1894 009e 7A68     		ldr	r2, [r7, #4]
 1895 00a0 1168     		ldr	r1, [r2]
 1896 00a2 23F48012 		bic	r2, r3, #1048576
 1897 00a6 3B68     		ldr	r3, [r7]
 1898 00a8 DB01     		lsls	r3, r3, #7
 1899 00aa 0B44     		add	r3, r3, r1
 1900 00ac 8C33     		adds	r3, r3, #140
 1901 00ae 1A60     		str	r2, [r3]
 1902              	.L94:
1295:Drivers/STM32G4xx_HAL_Driver/Src/stm32g4xx_hal_hrtim.c ****      }
1296:Drivers/STM32G4xx_HAL_Driver/Src/stm32g4xx_hal_hrtim.c ****   }
1297:Drivers/STM32G4xx_HAL_Driver/Src/stm32g4xx_hal_hrtim.c **** 
1298:Drivers/STM32G4xx_HAL_Driver/Src/stm32g4xx_hal_hrtim.c ****   /* Disable the timer counter */
1299:Drivers/STM32G4xx_HAL_Driver/Src/stm32g4xx_hal_hrtim.c ****   __HAL_HRTIM_DISABLE(hhrtim, TimerIdxToTimerId[TimerIdx]);
 1903              		.loc 1 1299 3
 1904 00b0 584A     		ldr	r2, .L105
 1905 00b2 3B68     		ldr	r3, [r7]
 1906 00b4 52F82330 		ldr	r3, [r2, r3, lsl #2]
 1907 00b8 03F48033 		and	r3, r3, #65536
 1908 00bc 002B     		cmp	r3, #0
 1909 00be 07D0     		beq	.L97
 1910              		.loc 1 1299 3 is_stmt 0 discriminator 1
 1911 00c0 7B68     		ldr	r3, [r7, #4]
 1912 00c2 1B68     		ldr	r3, [r3]
 1913 00c4 1A68     		ldr	r2, [r3]
 1914 00c6 7B68     		ldr	r3, [r7, #4]
 1915 00c8 1B68     		ldr	r3, [r3]
 1916 00ca 22F48032 		bic	r2, r2, #65536
 1917 00ce 1A60     		str	r2, [r3]
 1918              	.L97:
ARM GAS  /tmp/cclQbFqw.s 			page 57


 1919              		.loc 1 1299 3 discriminator 3
 1920 00d0 504A     		ldr	r2, .L105
 1921 00d2 3B68     		ldr	r3, [r7]
 1922 00d4 52F82330 		ldr	r3, [r2, r3, lsl #2]
 1923 00d8 03F40033 		and	r3, r3, #131072
 1924 00dc 002B     		cmp	r3, #0
 1925 00de 0FD0     		beq	.L98
 1926              		.loc 1 1299 3 discriminator 4
 1927 00e0 7B68     		ldr	r3, [r7, #4]
 1928 00e2 1B68     		ldr	r3, [r3]
 1929 00e4 D3F89433 		ldr	r3, [r3, #916]
 1930 00e8 03F00303 		and	r3, r3, #3
 1931 00ec 002B     		cmp	r3, #0
 1932 00ee 07D1     		bne	.L98
 1933              		.loc 1 1299 3 discriminator 6
 1934 00f0 7B68     		ldr	r3, [r7, #4]
 1935 00f2 1B68     		ldr	r3, [r3]
 1936 00f4 1A68     		ldr	r2, [r3]
 1937 00f6 7B68     		ldr	r3, [r7, #4]
 1938 00f8 1B68     		ldr	r3, [r3]
 1939 00fa 22F40032 		bic	r2, r2, #131072
 1940 00fe 1A60     		str	r2, [r3]
 1941              	.L98:
 1942              		.loc 1 1299 3 discriminator 8
 1943 0100 444A     		ldr	r2, .L105
 1944 0102 3B68     		ldr	r3, [r7]
 1945 0104 52F82330 		ldr	r3, [r2, r3, lsl #2]
 1946 0108 03F48023 		and	r3, r3, #262144
 1947 010c 002B     		cmp	r3, #0
 1948 010e 0FD0     		beq	.L99
 1949              		.loc 1 1299 3 discriminator 9
 1950 0110 7B68     		ldr	r3, [r7, #4]
 1951 0112 1B68     		ldr	r3, [r3]
 1952 0114 D3F89433 		ldr	r3, [r3, #916]
 1953 0118 03F00C03 		and	r3, r3, #12
 1954 011c 002B     		cmp	r3, #0
 1955 011e 07D1     		bne	.L99
 1956              		.loc 1 1299 3 discriminator 11
 1957 0120 7B68     		ldr	r3, [r7, #4]
 1958 0122 1B68     		ldr	r3, [r3]
 1959 0124 1A68     		ldr	r2, [r3]
 1960 0126 7B68     		ldr	r3, [r7, #4]
 1961 0128 1B68     		ldr	r3, [r3]
 1962 012a 22F48022 		bic	r2, r2, #262144
 1963 012e 1A60     		str	r2, [r3]
 1964              	.L99:
 1965              		.loc 1 1299 3 discriminator 13
 1966 0130 384A     		ldr	r2, .L105
 1967 0132 3B68     		ldr	r3, [r7]
 1968 0134 52F82330 		ldr	r3, [r2, r3, lsl #2]
 1969 0138 03F40023 		and	r3, r3, #524288
 1970 013c 002B     		cmp	r3, #0
 1971 013e 0FD0     		beq	.L100
 1972              		.loc 1 1299 3 discriminator 14
 1973 0140 7B68     		ldr	r3, [r7, #4]
 1974 0142 1B68     		ldr	r3, [r3]
 1975 0144 D3F89433 		ldr	r3, [r3, #916]
ARM GAS  /tmp/cclQbFqw.s 			page 58


 1976 0148 03F03003 		and	r3, r3, #48
 1977 014c 002B     		cmp	r3, #0
 1978 014e 07D1     		bne	.L100
 1979              		.loc 1 1299 3 discriminator 16
 1980 0150 7B68     		ldr	r3, [r7, #4]
 1981 0152 1B68     		ldr	r3, [r3]
 1982 0154 1A68     		ldr	r2, [r3]
 1983 0156 7B68     		ldr	r3, [r7, #4]
 1984 0158 1B68     		ldr	r3, [r3]
 1985 015a 22F40022 		bic	r2, r2, #524288
 1986 015e 1A60     		str	r2, [r3]
 1987              	.L100:
 1988              		.loc 1 1299 3 discriminator 18
 1989 0160 2C4A     		ldr	r2, .L105
 1990 0162 3B68     		ldr	r3, [r7]
 1991 0164 52F82330 		ldr	r3, [r2, r3, lsl #2]
 1992 0168 03F48013 		and	r3, r3, #1048576
 1993 016c 002B     		cmp	r3, #0
 1994 016e 0FD0     		beq	.L101
 1995              		.loc 1 1299 3 discriminator 19
 1996 0170 7B68     		ldr	r3, [r7, #4]
 1997 0172 1B68     		ldr	r3, [r3]
 1998 0174 D3F89433 		ldr	r3, [r3, #916]
 1999 0178 03F0C003 		and	r3, r3, #192
 2000 017c 002B     		cmp	r3, #0
 2001 017e 07D1     		bne	.L101
 2002              		.loc 1 1299 3 discriminator 21
 2003 0180 7B68     		ldr	r3, [r7, #4]
 2004 0182 1B68     		ldr	r3, [r3]
 2005 0184 1A68     		ldr	r2, [r3]
 2006 0186 7B68     		ldr	r3, [r7, #4]
 2007 0188 1B68     		ldr	r3, [r3]
 2008 018a 22F48012 		bic	r2, r2, #1048576
 2009 018e 1A60     		str	r2, [r3]
 2010              	.L101:
 2011              		.loc 1 1299 3 discriminator 23
 2012 0190 204A     		ldr	r2, .L105
 2013 0192 3B68     		ldr	r3, [r7]
 2014 0194 52F82330 		ldr	r3, [r2, r3, lsl #2]
 2015 0198 03F40013 		and	r3, r3, #2097152
 2016 019c 002B     		cmp	r3, #0
 2017 019e 0FD0     		beq	.L102
 2018              		.loc 1 1299 3 discriminator 24
 2019 01a0 7B68     		ldr	r3, [r7, #4]
 2020 01a2 1B68     		ldr	r3, [r3]
 2021 01a4 D3F89433 		ldr	r3, [r3, #916]
 2022 01a8 03F44073 		and	r3, r3, #768
 2023 01ac 002B     		cmp	r3, #0
 2024 01ae 07D1     		bne	.L102
 2025              		.loc 1 1299 3 discriminator 26
 2026 01b0 7B68     		ldr	r3, [r7, #4]
 2027 01b2 1B68     		ldr	r3, [r3]
 2028 01b4 1A68     		ldr	r2, [r3]
 2029 01b6 7B68     		ldr	r3, [r7, #4]
 2030 01b8 1B68     		ldr	r3, [r3]
 2031 01ba 22F40012 		bic	r2, r2, #2097152
 2032 01be 1A60     		str	r2, [r3]
ARM GAS  /tmp/cclQbFqw.s 			page 59


 2033              	.L102:
 2034              		.loc 1 1299 3 discriminator 28
 2035 01c0 144A     		ldr	r2, .L105
 2036 01c2 3B68     		ldr	r3, [r7]
 2037 01c4 52F82330 		ldr	r3, [r2, r3, lsl #2]
 2038 01c8 03F48003 		and	r3, r3, #4194304
 2039 01cc 002B     		cmp	r3, #0
 2040 01ce 0FD0     		beq	.L103
 2041              		.loc 1 1299 3 discriminator 29
 2042 01d0 7B68     		ldr	r3, [r7, #4]
 2043 01d2 1B68     		ldr	r3, [r3]
 2044 01d4 D3F89433 		ldr	r3, [r3, #916]
 2045 01d8 03F44063 		and	r3, r3, #3072
 2046 01dc 002B     		cmp	r3, #0
 2047 01de 07D1     		bne	.L103
 2048              		.loc 1 1299 3 discriminator 30
 2049 01e0 7B68     		ldr	r3, [r7, #4]
 2050 01e2 1B68     		ldr	r3, [r3]
 2051 01e4 1A68     		ldr	r2, [r3]
 2052 01e6 7B68     		ldr	r3, [r7, #4]
 2053 01e8 1B68     		ldr	r3, [r3]
 2054 01ea 22F48002 		bic	r2, r2, #4194304
 2055 01ee 1A60     		str	r2, [r3]
 2056              	.L103:
1300:Drivers/STM32G4xx_HAL_Driver/Src/stm32g4xx_hal_hrtim.c **** 
1301:Drivers/STM32G4xx_HAL_Driver/Src/stm32g4xx_hal_hrtim.c ****   /* Process Unlocked */
1302:Drivers/STM32G4xx_HAL_Driver/Src/stm32g4xx_hal_hrtim.c ****   __HAL_UNLOCK(hhrtim);
 2057              		.loc 1 1302 3 is_stmt 1
 2058 01f0 7B68     		ldr	r3, [r7, #4]
 2059 01f2 0022     		movs	r2, #0
 2060 01f4 83F8DC20 		strb	r2, [r3, #220]
1303:Drivers/STM32G4xx_HAL_Driver/Src/stm32g4xx_hal_hrtim.c **** 
1304:Drivers/STM32G4xx_HAL_Driver/Src/stm32g4xx_hal_hrtim.c ****   if (hhrtim->State == HAL_HRTIM_STATE_ERROR)
 2061              		.loc 1 1304 13
 2062 01f8 7B68     		ldr	r3, [r7, #4]
 2063 01fa 93F8DD30 		ldrb	r3, [r3, #221]
 2064 01fe DBB2     		uxtb	r3, r3
 2065              		.loc 1 1304 6
 2066 0200 072B     		cmp	r3, #7
 2067 0202 01D1     		bne	.L104
1305:Drivers/STM32G4xx_HAL_Driver/Src/stm32g4xx_hal_hrtim.c ****   {
1306:Drivers/STM32G4xx_HAL_Driver/Src/stm32g4xx_hal_hrtim.c ****       return HAL_ERROR;
 2068              		.loc 1 1306 14
 2069 0204 0123     		movs	r3, #1
 2070 0206 00E0     		b	.L91
 2071              	.L104:
1307:Drivers/STM32G4xx_HAL_Driver/Src/stm32g4xx_hal_hrtim.c ****   }
1308:Drivers/STM32G4xx_HAL_Driver/Src/stm32g4xx_hal_hrtim.c ****   else
1309:Drivers/STM32G4xx_HAL_Driver/Src/stm32g4xx_hal_hrtim.c ****   {
1310:Drivers/STM32G4xx_HAL_Driver/Src/stm32g4xx_hal_hrtim.c ****       return HAL_OK;
 2072              		.loc 1 1310 14
 2073 0208 0023     		movs	r3, #0
 2074              	.L91:
1311:Drivers/STM32G4xx_HAL_Driver/Src/stm32g4xx_hal_hrtim.c ****   }
1312:Drivers/STM32G4xx_HAL_Driver/Src/stm32g4xx_hal_hrtim.c **** }
 2075              		.loc 1 1312 1
 2076 020a 1846     		mov	r0, r3
ARM GAS  /tmp/cclQbFqw.s 			page 60


 2077 020c 1037     		adds	r7, r7, #16
 2078              	.LCFI76:
 2079              		.cfi_def_cfa_offset 8
 2080 020e BD46     		mov	sp, r7
 2081              	.LCFI77:
 2082              		.cfi_def_cfa_register 13
 2083              		@ sp needed
 2084 0210 80BD     		pop	{r7, pc}
 2085              	.L106:
 2086 0212 00BF     		.align	2
 2087              	.L105:
 2088 0214 00000000 		.word	TimerIdxToTimerId
 2089              		.cfi_endproc
 2090              	.LFE338:
 2092              		.section	.text.HAL_HRTIM_SimpleOCChannelConfig,"ax",%progbits
 2093              		.align	1
 2094              		.global	HAL_HRTIM_SimpleOCChannelConfig
 2095              		.syntax unified
 2096              		.thumb
 2097              		.thumb_func
 2098              		.fpu fpv4-sp-d16
 2100              	HAL_HRTIM_SimpleOCChannelConfig:
 2101              	.LFB339:
1313:Drivers/STM32G4xx_HAL_Driver/Src/stm32g4xx_hal_hrtim.c **** 
1314:Drivers/STM32G4xx_HAL_Driver/Src/stm32g4xx_hal_hrtim.c **** /**
1315:Drivers/STM32G4xx_HAL_Driver/Src/stm32g4xx_hal_hrtim.c ****   * @}
1316:Drivers/STM32G4xx_HAL_Driver/Src/stm32g4xx_hal_hrtim.c ****   */
1317:Drivers/STM32G4xx_HAL_Driver/Src/stm32g4xx_hal_hrtim.c **** 
1318:Drivers/STM32G4xx_HAL_Driver/Src/stm32g4xx_hal_hrtim.c **** /** @defgroup HRTIM_Exported_Functions_Group3 Simple output compare mode functions
1319:Drivers/STM32G4xx_HAL_Driver/Src/stm32g4xx_hal_hrtim.c ****  *  @brief    Simple output compare functions
1320:Drivers/STM32G4xx_HAL_Driver/Src/stm32g4xx_hal_hrtim.c **** @verbatim
1321:Drivers/STM32G4xx_HAL_Driver/Src/stm32g4xx_hal_hrtim.c ****  ===============================================================================
1322:Drivers/STM32G4xx_HAL_Driver/Src/stm32g4xx_hal_hrtim.c ****               ##### Simple output compare functions #####
1323:Drivers/STM32G4xx_HAL_Driver/Src/stm32g4xx_hal_hrtim.c ****  ===============================================================================
1324:Drivers/STM32G4xx_HAL_Driver/Src/stm32g4xx_hal_hrtim.c ****     [..]  This section provides functions allowing to:
1325:Drivers/STM32G4xx_HAL_Driver/Src/stm32g4xx_hal_hrtim.c ****       (+) Configure simple output channel
1326:Drivers/STM32G4xx_HAL_Driver/Src/stm32g4xx_hal_hrtim.c ****       (+) Start simple output compare
1327:Drivers/STM32G4xx_HAL_Driver/Src/stm32g4xx_hal_hrtim.c ****       (+) Stop simple output compare
1328:Drivers/STM32G4xx_HAL_Driver/Src/stm32g4xx_hal_hrtim.c ****       (+) Start simple output compare and enable interrupt
1329:Drivers/STM32G4xx_HAL_Driver/Src/stm32g4xx_hal_hrtim.c ****       (+) Stop simple output compare and disable interrupt
1330:Drivers/STM32G4xx_HAL_Driver/Src/stm32g4xx_hal_hrtim.c ****       (+) Start simple output compare and enable DMA transfer
1331:Drivers/STM32G4xx_HAL_Driver/Src/stm32g4xx_hal_hrtim.c ****       (+) Stop simple output compare and disable DMA transfer
1332:Drivers/STM32G4xx_HAL_Driver/Src/stm32g4xx_hal_hrtim.c ****        -@- When a HRTIM timer operates in simple output compare mode
1333:Drivers/STM32G4xx_HAL_Driver/Src/stm32g4xx_hal_hrtim.c ****            the output level is set to a programmable value when a match
1334:Drivers/STM32G4xx_HAL_Driver/Src/stm32g4xx_hal_hrtim.c ****            is found between the compare register and the counter.
1335:Drivers/STM32G4xx_HAL_Driver/Src/stm32g4xx_hal_hrtim.c ****            Compare unit 1 is automatically associated to output 1
1336:Drivers/STM32G4xx_HAL_Driver/Src/stm32g4xx_hal_hrtim.c ****            Compare unit 2 is automatically associated to output 2
1337:Drivers/STM32G4xx_HAL_Driver/Src/stm32g4xx_hal_hrtim.c **** @endverbatim
1338:Drivers/STM32G4xx_HAL_Driver/Src/stm32g4xx_hal_hrtim.c ****   * @{
1339:Drivers/STM32G4xx_HAL_Driver/Src/stm32g4xx_hal_hrtim.c ****   */
1340:Drivers/STM32G4xx_HAL_Driver/Src/stm32g4xx_hal_hrtim.c **** 
1341:Drivers/STM32G4xx_HAL_Driver/Src/stm32g4xx_hal_hrtim.c **** /**
1342:Drivers/STM32G4xx_HAL_Driver/Src/stm32g4xx_hal_hrtim.c ****   * @brief  Configure an output in simple output compare mode
1343:Drivers/STM32G4xx_HAL_Driver/Src/stm32g4xx_hal_hrtim.c ****   * @param  hhrtim pointer to HAL HRTIM handle
1344:Drivers/STM32G4xx_HAL_Driver/Src/stm32g4xx_hal_hrtim.c ****   * @param  TimerIdx Timer index
1345:Drivers/STM32G4xx_HAL_Driver/Src/stm32g4xx_hal_hrtim.c ****   *                   This parameter can be one of the following values:
1346:Drivers/STM32G4xx_HAL_Driver/Src/stm32g4xx_hal_hrtim.c ****   *                   @arg HRTIM_TIMERINDEX_TIMER_A for timer A
ARM GAS  /tmp/cclQbFqw.s 			page 61


1347:Drivers/STM32G4xx_HAL_Driver/Src/stm32g4xx_hal_hrtim.c ****   *                   @arg HRTIM_TIMERINDEX_TIMER_B for timer B
1348:Drivers/STM32G4xx_HAL_Driver/Src/stm32g4xx_hal_hrtim.c ****   *                   @arg HRTIM_TIMERINDEX_TIMER_C for timer C
1349:Drivers/STM32G4xx_HAL_Driver/Src/stm32g4xx_hal_hrtim.c ****   *                   @arg HRTIM_TIMERINDEX_TIMER_D for timer D
1350:Drivers/STM32G4xx_HAL_Driver/Src/stm32g4xx_hal_hrtim.c ****   *                   @arg HRTIM_TIMERINDEX_TIMER_E for timer E
1351:Drivers/STM32G4xx_HAL_Driver/Src/stm32g4xx_hal_hrtim.c ****   *                   @arg HRTIM_TIMERINDEX_TIMER_F for timer F
1352:Drivers/STM32G4xx_HAL_Driver/Src/stm32g4xx_hal_hrtim.c ****   * @param  OCChannel Timer output
1353:Drivers/STM32G4xx_HAL_Driver/Src/stm32g4xx_hal_hrtim.c ****   *                    This parameter can be one of the following values:
1354:Drivers/STM32G4xx_HAL_Driver/Src/stm32g4xx_hal_hrtim.c ****   *                    @arg HRTIM_OUTPUT_TA1: Timer A - Output 1
1355:Drivers/STM32G4xx_HAL_Driver/Src/stm32g4xx_hal_hrtim.c ****   *                    @arg HRTIM_OUTPUT_TA2: Timer A - Output 2
1356:Drivers/STM32G4xx_HAL_Driver/Src/stm32g4xx_hal_hrtim.c ****   *                    @arg HRTIM_OUTPUT_TB1: Timer B - Output 1
1357:Drivers/STM32G4xx_HAL_Driver/Src/stm32g4xx_hal_hrtim.c ****   *                    @arg HRTIM_OUTPUT_TB2: Timer B - Output 2
1358:Drivers/STM32G4xx_HAL_Driver/Src/stm32g4xx_hal_hrtim.c ****   *                    @arg HRTIM_OUTPUT_TC1: Timer C - Output 1
1359:Drivers/STM32G4xx_HAL_Driver/Src/stm32g4xx_hal_hrtim.c ****   *                    @arg HRTIM_OUTPUT_TC2: Timer C - Output 2
1360:Drivers/STM32G4xx_HAL_Driver/Src/stm32g4xx_hal_hrtim.c ****   *                    @arg HRTIM_OUTPUT_TD1: Timer D - Output 1
1361:Drivers/STM32G4xx_HAL_Driver/Src/stm32g4xx_hal_hrtim.c ****   *                    @arg HRTIM_OUTPUT_TD2: Timer D - Output 2
1362:Drivers/STM32G4xx_HAL_Driver/Src/stm32g4xx_hal_hrtim.c ****   *                    @arg HRTIM_OUTPUT_TE1: Timer E - Output 1
1363:Drivers/STM32G4xx_HAL_Driver/Src/stm32g4xx_hal_hrtim.c ****   *                    @arg HRTIM_OUTPUT_TE2: Timer E - Output 2
1364:Drivers/STM32G4xx_HAL_Driver/Src/stm32g4xx_hal_hrtim.c ****   *                    @arg HRTIM_OUTPUT_TF1: Timer F - Output 1
1365:Drivers/STM32G4xx_HAL_Driver/Src/stm32g4xx_hal_hrtim.c ****   *                    @arg HRTIM_OUTPUT_TF2: Timer F - Output 2
1366:Drivers/STM32G4xx_HAL_Driver/Src/stm32g4xx_hal_hrtim.c ****   * @param  pSimpleOCChannelCfg pointer to the simple output compare output configuration structure
1367:Drivers/STM32G4xx_HAL_Driver/Src/stm32g4xx_hal_hrtim.c ****   * @note When the timer operates in simple output compare mode:
1368:Drivers/STM32G4xx_HAL_Driver/Src/stm32g4xx_hal_hrtim.c ****   *         Output 1 is implicitly controlled by the compare unit 1
1369:Drivers/STM32G4xx_HAL_Driver/Src/stm32g4xx_hal_hrtim.c ****   *         Output 2 is implicitly controlled by the compare unit 2
1370:Drivers/STM32G4xx_HAL_Driver/Src/stm32g4xx_hal_hrtim.c ****   *       Output Set/Reset crossbar is set according to the selected output compare mode:
1371:Drivers/STM32G4xx_HAL_Driver/Src/stm32g4xx_hal_hrtim.c ****   *         Toggle: SETxyR = RSTxyR = CMPy
1372:Drivers/STM32G4xx_HAL_Driver/Src/stm32g4xx_hal_hrtim.c ****   *         Active: SETxyR = CMPy, RSTxyR = 0
1373:Drivers/STM32G4xx_HAL_Driver/Src/stm32g4xx_hal_hrtim.c ****   *         Inactive: SETxy =0, RSTxy = CMPy
1374:Drivers/STM32G4xx_HAL_Driver/Src/stm32g4xx_hal_hrtim.c ****   * @retval HAL status
1375:Drivers/STM32G4xx_HAL_Driver/Src/stm32g4xx_hal_hrtim.c ****   */
1376:Drivers/STM32G4xx_HAL_Driver/Src/stm32g4xx_hal_hrtim.c **** HAL_StatusTypeDef HAL_HRTIM_SimpleOCChannelConfig(HRTIM_HandleTypeDef * hhrtim,
1377:Drivers/STM32G4xx_HAL_Driver/Src/stm32g4xx_hal_hrtim.c ****                                                  uint32_t TimerIdx,
1378:Drivers/STM32G4xx_HAL_Driver/Src/stm32g4xx_hal_hrtim.c ****                                                  uint32_t OCChannel,
1379:Drivers/STM32G4xx_HAL_Driver/Src/stm32g4xx_hal_hrtim.c ****                                                  HRTIM_SimpleOCChannelCfgTypeDef* pSimpleOCChannelC
1380:Drivers/STM32G4xx_HAL_Driver/Src/stm32g4xx_hal_hrtim.c **** {
 2102              		.loc 1 1380 1
 2103              		.cfi_startproc
 2104              		@ args = 0, pretend = 0, frame = 56
 2105              		@ frame_needed = 1, uses_anonymous_args = 0
 2106 0000 80B5     		push	{r7, lr}
 2107              	.LCFI78:
 2108              		.cfi_def_cfa_offset 8
 2109              		.cfi_offset 7, -8
 2110              		.cfi_offset 14, -4
 2111 0002 8EB0     		sub	sp, sp, #56
 2112              	.LCFI79:
 2113              		.cfi_def_cfa_offset 64
 2114 0004 00AF     		add	r7, sp, #0
 2115              	.LCFI80:
 2116              		.cfi_def_cfa_register 7
 2117 0006 F860     		str	r0, [r7, #12]
 2118 0008 B960     		str	r1, [r7, #8]
 2119 000a 7A60     		str	r2, [r7, #4]
 2120 000c 3B60     		str	r3, [r7]
1381:Drivers/STM32G4xx_HAL_Driver/Src/stm32g4xx_hal_hrtim.c ****   uint32_t CompareUnit = (uint32_t)RESET;
 2121              		.loc 1 1381 12
 2122 000e 0023     		movs	r3, #0
 2123 0010 7B63     		str	r3, [r7, #52]
ARM GAS  /tmp/cclQbFqw.s 			page 62


1382:Drivers/STM32G4xx_HAL_Driver/Src/stm32g4xx_hal_hrtim.c ****   HRTIM_OutputCfgTypeDef OutputCfg;
1383:Drivers/STM32G4xx_HAL_Driver/Src/stm32g4xx_hal_hrtim.c **** 
1384:Drivers/STM32G4xx_HAL_Driver/Src/stm32g4xx_hal_hrtim.c ****   /* Check parameters */
1385:Drivers/STM32G4xx_HAL_Driver/Src/stm32g4xx_hal_hrtim.c ****   assert_param(IS_HRTIM_TIMER_OUTPUT(TimerIdx, OCChannel));
1386:Drivers/STM32G4xx_HAL_Driver/Src/stm32g4xx_hal_hrtim.c ****   assert_param(IS_HRTIM_BASICOCMODE(pSimpleOCChannelCfg->Mode));
1387:Drivers/STM32G4xx_HAL_Driver/Src/stm32g4xx_hal_hrtim.c ****   assert_param(IS_HRTIM_OUTPUTPULSE(pSimpleOCChannelCfg->Pulse));
1388:Drivers/STM32G4xx_HAL_Driver/Src/stm32g4xx_hal_hrtim.c ****   assert_param(IS_HRTIM_OUTPUTPOLARITY(pSimpleOCChannelCfg->Polarity));
1389:Drivers/STM32G4xx_HAL_Driver/Src/stm32g4xx_hal_hrtim.c ****   assert_param(IS_HRTIM_OUTPUTIDLELEVEL(pSimpleOCChannelCfg->IdleLevel));
1390:Drivers/STM32G4xx_HAL_Driver/Src/stm32g4xx_hal_hrtim.c **** 
1391:Drivers/STM32G4xx_HAL_Driver/Src/stm32g4xx_hal_hrtim.c ****   if(hhrtim->State == HAL_HRTIM_STATE_BUSY)
 2124              		.loc 1 1391 12
 2125 0012 FB68     		ldr	r3, [r7, #12]
 2126 0014 93F8DD30 		ldrb	r3, [r3, #221]
 2127 0018 DBB2     		uxtb	r3, r3
 2128              		.loc 1 1391 5
 2129 001a 022B     		cmp	r3, #2
 2130 001c 01D1     		bne	.L108
1392:Drivers/STM32G4xx_HAL_Driver/Src/stm32g4xx_hal_hrtim.c ****   {
1393:Drivers/STM32G4xx_HAL_Driver/Src/stm32g4xx_hal_hrtim.c ****      return HAL_BUSY;
 2131              		.loc 1 1393 13
 2132 001e 0223     		movs	r3, #2
 2133 0020 BAE0     		b	.L129
 2134              	.L108:
1394:Drivers/STM32G4xx_HAL_Driver/Src/stm32g4xx_hal_hrtim.c ****   }
1395:Drivers/STM32G4xx_HAL_Driver/Src/stm32g4xx_hal_hrtim.c **** 
1396:Drivers/STM32G4xx_HAL_Driver/Src/stm32g4xx_hal_hrtim.c ****   /* Set HRTIM state */
1397:Drivers/STM32G4xx_HAL_Driver/Src/stm32g4xx_hal_hrtim.c ****   hhrtim->State = HAL_HRTIM_STATE_BUSY;
 2135              		.loc 1 1397 17
 2136 0022 FB68     		ldr	r3, [r7, #12]
 2137 0024 0222     		movs	r2, #2
 2138 0026 83F8DD20 		strb	r2, [r3, #221]
1398:Drivers/STM32G4xx_HAL_Driver/Src/stm32g4xx_hal_hrtim.c **** 
1399:Drivers/STM32G4xx_HAL_Driver/Src/stm32g4xx_hal_hrtim.c ****   /* Configure timer compare unit */
1400:Drivers/STM32G4xx_HAL_Driver/Src/stm32g4xx_hal_hrtim.c ****   switch (OCChannel)
 2139              		.loc 1 1400 3
 2140 002a 7B68     		ldr	r3, [r7, #4]
 2141 002c 202B     		cmp	r3, #32
 2142 002e 3ED0     		beq	.L110
 2143 0030 7B68     		ldr	r3, [r7, #4]
 2144 0032 202B     		cmp	r3, #32
 2145 0034 13D8     		bhi	.L111
 2146 0036 7B68     		ldr	r3, [r7, #4]
 2147 0038 042B     		cmp	r3, #4
 2148 003a 2CD0     		beq	.L112
 2149 003c 7B68     		ldr	r3, [r7, #4]
 2150 003e 042B     		cmp	r3, #4
 2151 0040 06D8     		bhi	.L113
 2152 0042 7B68     		ldr	r3, [r7, #4]
 2153 0044 012B     		cmp	r3, #1
 2154 0046 26D0     		beq	.L112
 2155 0048 7B68     		ldr	r3, [r7, #4]
 2156 004a 022B     		cmp	r3, #2
 2157 004c 2FD0     		beq	.L110
 2158 004e 3AE0     		b	.L114
 2159              	.L113:
 2160 0050 7B68     		ldr	r3, [r7, #4]
 2161 0052 082B     		cmp	r3, #8
ARM GAS  /tmp/cclQbFqw.s 			page 63


 2162 0054 2BD0     		beq	.L110
 2163 0056 7B68     		ldr	r3, [r7, #4]
 2164 0058 102B     		cmp	r3, #16
 2165 005a 1CD0     		beq	.L112
 2166 005c 33E0     		b	.L114
 2167              	.L111:
 2168 005e 7B68     		ldr	r3, [r7, #4]
 2169 0060 B3F5807F 		cmp	r3, #256
 2170 0064 17D0     		beq	.L112
 2171 0066 7B68     		ldr	r3, [r7, #4]
 2172 0068 B3F5807F 		cmp	r3, #256
 2173 006c 06D8     		bhi	.L115
 2174 006e 7B68     		ldr	r3, [r7, #4]
 2175 0070 402B     		cmp	r3, #64
 2176 0072 10D0     		beq	.L112
 2177 0074 7B68     		ldr	r3, [r7, #4]
 2178 0076 802B     		cmp	r3, #128
 2179 0078 19D0     		beq	.L110
 2180 007a 24E0     		b	.L114
 2181              	.L115:
 2182 007c 7B68     		ldr	r3, [r7, #4]
 2183 007e B3F5806F 		cmp	r3, #1024
 2184 0082 08D0     		beq	.L112
 2185 0084 7B68     		ldr	r3, [r7, #4]
 2186 0086 B3F5006F 		cmp	r3, #2048
 2187 008a 10D0     		beq	.L110
 2188 008c 7B68     		ldr	r3, [r7, #4]
 2189 008e B3F5007F 		cmp	r3, #512
 2190 0092 0CD0     		beq	.L110
 2191 0094 17E0     		b	.L114
 2192              	.L112:
1401:Drivers/STM32G4xx_HAL_Driver/Src/stm32g4xx_hal_hrtim.c ****   {
1402:Drivers/STM32G4xx_HAL_Driver/Src/stm32g4xx_hal_hrtim.c ****   case HRTIM_OUTPUT_TA1:
1403:Drivers/STM32G4xx_HAL_Driver/Src/stm32g4xx_hal_hrtim.c ****   case HRTIM_OUTPUT_TB1:
1404:Drivers/STM32G4xx_HAL_Driver/Src/stm32g4xx_hal_hrtim.c ****   case HRTIM_OUTPUT_TC1:
1405:Drivers/STM32G4xx_HAL_Driver/Src/stm32g4xx_hal_hrtim.c ****   case HRTIM_OUTPUT_TD1:
1406:Drivers/STM32G4xx_HAL_Driver/Src/stm32g4xx_hal_hrtim.c ****   case HRTIM_OUTPUT_TE1:
1407:Drivers/STM32G4xx_HAL_Driver/Src/stm32g4xx_hal_hrtim.c ****   case HRTIM_OUTPUT_TF1:
1408:Drivers/STM32G4xx_HAL_Driver/Src/stm32g4xx_hal_hrtim.c ****     {
1409:Drivers/STM32G4xx_HAL_Driver/Src/stm32g4xx_hal_hrtim.c ****       CompareUnit = HRTIM_COMPAREUNIT_1;
 2193              		.loc 1 1409 19
 2194 0096 0123     		movs	r3, #1
 2195 0098 7B63     		str	r3, [r7, #52]
1410:Drivers/STM32G4xx_HAL_Driver/Src/stm32g4xx_hal_hrtim.c ****       hhrtim->Instance->sTimerxRegs[TimerIdx].CMP1xR = pSimpleOCChannelCfg->Pulse;
 2196              		.loc 1 1410 13
 2197 009a FB68     		ldr	r3, [r7, #12]
 2198 009c 1968     		ldr	r1, [r3]
 2199              		.loc 1 1410 75
 2200 009e 3B68     		ldr	r3, [r7]
 2201 00a0 5A68     		ldr	r2, [r3, #4]
 2202              		.loc 1 1410 54
 2203 00a2 BB68     		ldr	r3, [r7, #8]
 2204 00a4 DB01     		lsls	r3, r3, #7
 2205 00a6 0B44     		add	r3, r3, r1
 2206 00a8 9C33     		adds	r3, r3, #156
 2207 00aa 1A60     		str	r2, [r3]
1411:Drivers/STM32G4xx_HAL_Driver/Src/stm32g4xx_hal_hrtim.c ****       break;
ARM GAS  /tmp/cclQbFqw.s 			page 64


 2208              		.loc 1 1411 7
 2209 00ac 14E0     		b	.L116
 2210              	.L110:
1412:Drivers/STM32G4xx_HAL_Driver/Src/stm32g4xx_hal_hrtim.c ****     }
1413:Drivers/STM32G4xx_HAL_Driver/Src/stm32g4xx_hal_hrtim.c ****   case HRTIM_OUTPUT_TA2:
1414:Drivers/STM32G4xx_HAL_Driver/Src/stm32g4xx_hal_hrtim.c ****   case HRTIM_OUTPUT_TB2:
1415:Drivers/STM32G4xx_HAL_Driver/Src/stm32g4xx_hal_hrtim.c ****   case HRTIM_OUTPUT_TC2:
1416:Drivers/STM32G4xx_HAL_Driver/Src/stm32g4xx_hal_hrtim.c ****   case HRTIM_OUTPUT_TD2:
1417:Drivers/STM32G4xx_HAL_Driver/Src/stm32g4xx_hal_hrtim.c ****   case HRTIM_OUTPUT_TE2:
1418:Drivers/STM32G4xx_HAL_Driver/Src/stm32g4xx_hal_hrtim.c ****   case HRTIM_OUTPUT_TF2:
1419:Drivers/STM32G4xx_HAL_Driver/Src/stm32g4xx_hal_hrtim.c ****     {
1420:Drivers/STM32G4xx_HAL_Driver/Src/stm32g4xx_hal_hrtim.c ****       CompareUnit = HRTIM_COMPAREUNIT_2;
 2211              		.loc 1 1420 19
 2212 00ae 0223     		movs	r3, #2
 2213 00b0 7B63     		str	r3, [r7, #52]
1421:Drivers/STM32G4xx_HAL_Driver/Src/stm32g4xx_hal_hrtim.c ****       hhrtim->Instance->sTimerxRegs[TimerIdx].CMP2xR = pSimpleOCChannelCfg->Pulse;
 2214              		.loc 1 1421 13
 2215 00b2 FB68     		ldr	r3, [r7, #12]
 2216 00b4 1968     		ldr	r1, [r3]
 2217              		.loc 1 1421 75
 2218 00b6 3B68     		ldr	r3, [r7]
 2219 00b8 5A68     		ldr	r2, [r3, #4]
 2220              		.loc 1 1421 54
 2221 00ba BB68     		ldr	r3, [r7, #8]
 2222 00bc DB01     		lsls	r3, r3, #7
 2223 00be 0B44     		add	r3, r3, r1
 2224 00c0 A433     		adds	r3, r3, #164
 2225 00c2 1A60     		str	r2, [r3]
1422:Drivers/STM32G4xx_HAL_Driver/Src/stm32g4xx_hal_hrtim.c ****       break;
 2226              		.loc 1 1422 7
 2227 00c4 08E0     		b	.L116
 2228              	.L114:
1423:Drivers/STM32G4xx_HAL_Driver/Src/stm32g4xx_hal_hrtim.c ****     }
1424:Drivers/STM32G4xx_HAL_Driver/Src/stm32g4xx_hal_hrtim.c ****   default:
1425:Drivers/STM32G4xx_HAL_Driver/Src/stm32g4xx_hal_hrtim.c ****     {
1426:Drivers/STM32G4xx_HAL_Driver/Src/stm32g4xx_hal_hrtim.c ****       hhrtim->State = HAL_HRTIM_STATE_ERROR;
 2229              		.loc 1 1426 21
 2230 00c6 FB68     		ldr	r3, [r7, #12]
 2231 00c8 0722     		movs	r2, #7
 2232 00ca 83F8DD20 		strb	r2, [r3, #221]
1427:Drivers/STM32G4xx_HAL_Driver/Src/stm32g4xx_hal_hrtim.c **** 
1428:Drivers/STM32G4xx_HAL_Driver/Src/stm32g4xx_hal_hrtim.c ****       /* Process Unlocked */
1429:Drivers/STM32G4xx_HAL_Driver/Src/stm32g4xx_hal_hrtim.c ****       __HAL_UNLOCK(hhrtim);
 2233              		.loc 1 1429 7
 2234 00ce FB68     		ldr	r3, [r7, #12]
 2235 00d0 0022     		movs	r2, #0
 2236 00d2 83F8DC20 		strb	r2, [r3, #220]
1430:Drivers/STM32G4xx_HAL_Driver/Src/stm32g4xx_hal_hrtim.c **** 
1431:Drivers/STM32G4xx_HAL_Driver/Src/stm32g4xx_hal_hrtim.c ****       break;
 2237              		.loc 1 1431 7
 2238 00d6 00BF     		nop
 2239              	.L116:
1432:Drivers/STM32G4xx_HAL_Driver/Src/stm32g4xx_hal_hrtim.c ****     }
1433:Drivers/STM32G4xx_HAL_Driver/Src/stm32g4xx_hal_hrtim.c ****   }
1434:Drivers/STM32G4xx_HAL_Driver/Src/stm32g4xx_hal_hrtim.c **** 
1435:Drivers/STM32G4xx_HAL_Driver/Src/stm32g4xx_hal_hrtim.c ****   if(hhrtim->State == HAL_HRTIM_STATE_ERROR)
 2240              		.loc 1 1435 12
ARM GAS  /tmp/cclQbFqw.s 			page 65


 2241 00d8 FB68     		ldr	r3, [r7, #12]
 2242 00da 93F8DD30 		ldrb	r3, [r3, #221]
 2243 00de DBB2     		uxtb	r3, r3
 2244              		.loc 1 1435 5
 2245 00e0 072B     		cmp	r3, #7
 2246 00e2 01D1     		bne	.L117
1436:Drivers/STM32G4xx_HAL_Driver/Src/stm32g4xx_hal_hrtim.c ****   {
1437:Drivers/STM32G4xx_HAL_Driver/Src/stm32g4xx_hal_hrtim.c ****      return HAL_ERROR;
 2247              		.loc 1 1437 13
 2248 00e4 0123     		movs	r3, #1
 2249 00e6 57E0     		b	.L129
 2250              	.L117:
1438:Drivers/STM32G4xx_HAL_Driver/Src/stm32g4xx_hal_hrtim.c ****   }
1439:Drivers/STM32G4xx_HAL_Driver/Src/stm32g4xx_hal_hrtim.c **** 
1440:Drivers/STM32G4xx_HAL_Driver/Src/stm32g4xx_hal_hrtim.c ****   /* Configure timer output */
1441:Drivers/STM32G4xx_HAL_Driver/Src/stm32g4xx_hal_hrtim.c ****   OutputCfg.Polarity = (pSimpleOCChannelCfg->Polarity & HRTIM_OUTR_POL1);
 2251              		.loc 1 1441 44
 2252 00e8 3B68     		ldr	r3, [r7]
 2253 00ea 9B68     		ldr	r3, [r3, #8]
 2254              		.loc 1 1441 55
 2255 00ec 03F00203 		and	r3, r3, #2
 2256              		.loc 1 1441 22
 2257 00f0 7B61     		str	r3, [r7, #20]
1442:Drivers/STM32G4xx_HAL_Driver/Src/stm32g4xx_hal_hrtim.c ****   OutputCfg.IdleLevel = (pSimpleOCChannelCfg->IdleLevel & HRTIM_OUTR_IDLES1);
 2258              		.loc 1 1442 45
 2259 00f2 3B68     		ldr	r3, [r7]
 2260 00f4 DB68     		ldr	r3, [r3, #12]
 2261              		.loc 1 1442 57
 2262 00f6 03F00803 		and	r3, r3, #8
 2263              		.loc 1 1442 23
 2264 00fa 7B62     		str	r3, [r7, #36]
1443:Drivers/STM32G4xx_HAL_Driver/Src/stm32g4xx_hal_hrtim.c ****   OutputCfg.FaultLevel = HRTIM_OUTPUTFAULTLEVEL_NONE;
 2265              		.loc 1 1443 24
 2266 00fc 0023     		movs	r3, #0
 2267 00fe BB62     		str	r3, [r7, #40]
1444:Drivers/STM32G4xx_HAL_Driver/Src/stm32g4xx_hal_hrtim.c ****   OutputCfg.IdleMode = HRTIM_OUTPUTIDLEMODE_NONE;
 2268              		.loc 1 1444 22
 2269 0100 0023     		movs	r3, #0
 2270 0102 3B62     		str	r3, [r7, #32]
1445:Drivers/STM32G4xx_HAL_Driver/Src/stm32g4xx_hal_hrtim.c ****   OutputCfg.ChopperModeEnable = HRTIM_OUTPUTCHOPPERMODE_DISABLED;
 2271              		.loc 1 1445 31
 2272 0104 0023     		movs	r3, #0
 2273 0106 FB62     		str	r3, [r7, #44]
1446:Drivers/STM32G4xx_HAL_Driver/Src/stm32g4xx_hal_hrtim.c ****   OutputCfg.BurstModeEntryDelayed = HRTIM_OUTPUTBURSTMODEENTRY_REGULAR;
 2274              		.loc 1 1446 35
 2275 0108 0023     		movs	r3, #0
 2276 010a 3B63     		str	r3, [r7, #48]
1447:Drivers/STM32G4xx_HAL_Driver/Src/stm32g4xx_hal_hrtim.c **** 
1448:Drivers/STM32G4xx_HAL_Driver/Src/stm32g4xx_hal_hrtim.c ****   switch (pSimpleOCChannelCfg->Mode)
 2277              		.loc 1 1448 30
 2278 010c 3B68     		ldr	r3, [r7]
 2279 010e 1B68     		ldr	r3, [r3]
 2280              		.loc 1 1448 3
 2281 0110 022B     		cmp	r3, #2
 2282 0112 19D0     		beq	.L118
 2283 0114 032B     		cmp	r3, #3
 2284 0116 0CD0     		beq	.L119
ARM GAS  /tmp/cclQbFqw.s 			page 66


 2285 0118 012B     		cmp	r3, #1
 2286 011a 20D1     		bne	.L120
1449:Drivers/STM32G4xx_HAL_Driver/Src/stm32g4xx_hal_hrtim.c ****   {
1450:Drivers/STM32G4xx_HAL_Driver/Src/stm32g4xx_hal_hrtim.c ****   case HRTIM_BASICOCMODE_TOGGLE:
1451:Drivers/STM32G4xx_HAL_Driver/Src/stm32g4xx_hal_hrtim.c ****     {
1452:Drivers/STM32G4xx_HAL_Driver/Src/stm32g4xx_hal_hrtim.c ****       if (CompareUnit == HRTIM_COMPAREUNIT_1)
 2287              		.loc 1 1452 10
 2288 011c 7B6B     		ldr	r3, [r7, #52]
 2289 011e 012B     		cmp	r3, #1
 2290 0120 02D1     		bne	.L121
1453:Drivers/STM32G4xx_HAL_Driver/Src/stm32g4xx_hal_hrtim.c ****       {
1454:Drivers/STM32G4xx_HAL_Driver/Src/stm32g4xx_hal_hrtim.c ****         OutputCfg.SetSource = HRTIM_OUTPUTSET_TIMCMP1;
 2291              		.loc 1 1454 29
 2292 0122 0823     		movs	r3, #8
 2293 0124 BB61     		str	r3, [r7, #24]
 2294 0126 01E0     		b	.L122
 2295              	.L121:
1455:Drivers/STM32G4xx_HAL_Driver/Src/stm32g4xx_hal_hrtim.c ****       }
1456:Drivers/STM32G4xx_HAL_Driver/Src/stm32g4xx_hal_hrtim.c ****       else
1457:Drivers/STM32G4xx_HAL_Driver/Src/stm32g4xx_hal_hrtim.c ****       {
1458:Drivers/STM32G4xx_HAL_Driver/Src/stm32g4xx_hal_hrtim.c ****         OutputCfg.SetSource = HRTIM_OUTPUTSET_TIMCMP2;
 2296              		.loc 1 1458 29
 2297 0128 1023     		movs	r3, #16
 2298 012a BB61     		str	r3, [r7, #24]
 2299              	.L122:
1459:Drivers/STM32G4xx_HAL_Driver/Src/stm32g4xx_hal_hrtim.c ****       }
1460:Drivers/STM32G4xx_HAL_Driver/Src/stm32g4xx_hal_hrtim.c ****       OutputCfg.ResetSource = OutputCfg.SetSource;
 2300              		.loc 1 1460 40
 2301 012c BB69     		ldr	r3, [r7, #24]
 2302              		.loc 1 1460 29
 2303 012e FB61     		str	r3, [r7, #28]
1461:Drivers/STM32G4xx_HAL_Driver/Src/stm32g4xx_hal_hrtim.c ****       break;
 2304              		.loc 1 1461 7
 2305 0130 1EE0     		b	.L123
 2306              	.L119:
1462:Drivers/STM32G4xx_HAL_Driver/Src/stm32g4xx_hal_hrtim.c ****     }
1463:Drivers/STM32G4xx_HAL_Driver/Src/stm32g4xx_hal_hrtim.c **** 
1464:Drivers/STM32G4xx_HAL_Driver/Src/stm32g4xx_hal_hrtim.c ****   case HRTIM_BASICOCMODE_ACTIVE:
1465:Drivers/STM32G4xx_HAL_Driver/Src/stm32g4xx_hal_hrtim.c ****     {
1466:Drivers/STM32G4xx_HAL_Driver/Src/stm32g4xx_hal_hrtim.c ****       if (CompareUnit == HRTIM_COMPAREUNIT_1)
 2307              		.loc 1 1466 10
 2308 0132 7B6B     		ldr	r3, [r7, #52]
 2309 0134 012B     		cmp	r3, #1
 2310 0136 02D1     		bne	.L124
1467:Drivers/STM32G4xx_HAL_Driver/Src/stm32g4xx_hal_hrtim.c ****       {
1468:Drivers/STM32G4xx_HAL_Driver/Src/stm32g4xx_hal_hrtim.c ****         OutputCfg.SetSource = HRTIM_OUTPUTSET_TIMCMP1;
 2311              		.loc 1 1468 29
 2312 0138 0823     		movs	r3, #8
 2313 013a BB61     		str	r3, [r7, #24]
 2314 013c 01E0     		b	.L125
 2315              	.L124:
1469:Drivers/STM32G4xx_HAL_Driver/Src/stm32g4xx_hal_hrtim.c ****       }
1470:Drivers/STM32G4xx_HAL_Driver/Src/stm32g4xx_hal_hrtim.c ****       else
1471:Drivers/STM32G4xx_HAL_Driver/Src/stm32g4xx_hal_hrtim.c ****       {
1472:Drivers/STM32G4xx_HAL_Driver/Src/stm32g4xx_hal_hrtim.c ****         OutputCfg.SetSource = HRTIM_OUTPUTSET_TIMCMP2;
 2316              		.loc 1 1472 29
 2317 013e 1023     		movs	r3, #16
ARM GAS  /tmp/cclQbFqw.s 			page 67


 2318 0140 BB61     		str	r3, [r7, #24]
 2319              	.L125:
1473:Drivers/STM32G4xx_HAL_Driver/Src/stm32g4xx_hal_hrtim.c ****       }
1474:Drivers/STM32G4xx_HAL_Driver/Src/stm32g4xx_hal_hrtim.c ****       OutputCfg.ResetSource = HRTIM_OUTPUTRESET_NONE;
 2320              		.loc 1 1474 29
 2321 0142 0023     		movs	r3, #0
 2322 0144 FB61     		str	r3, [r7, #28]
1475:Drivers/STM32G4xx_HAL_Driver/Src/stm32g4xx_hal_hrtim.c ****       break;
 2323              		.loc 1 1475 7
 2324 0146 13E0     		b	.L123
 2325              	.L118:
1476:Drivers/STM32G4xx_HAL_Driver/Src/stm32g4xx_hal_hrtim.c ****     }
1477:Drivers/STM32G4xx_HAL_Driver/Src/stm32g4xx_hal_hrtim.c **** 
1478:Drivers/STM32G4xx_HAL_Driver/Src/stm32g4xx_hal_hrtim.c ****   case HRTIM_BASICOCMODE_INACTIVE:
1479:Drivers/STM32G4xx_HAL_Driver/Src/stm32g4xx_hal_hrtim.c ****     {
1480:Drivers/STM32G4xx_HAL_Driver/Src/stm32g4xx_hal_hrtim.c ****       if (CompareUnit == HRTIM_COMPAREUNIT_1)
 2326              		.loc 1 1480 10
 2327 0148 7B6B     		ldr	r3, [r7, #52]
 2328 014a 012B     		cmp	r3, #1
 2329 014c 02D1     		bne	.L126
1481:Drivers/STM32G4xx_HAL_Driver/Src/stm32g4xx_hal_hrtim.c ****       {
1482:Drivers/STM32G4xx_HAL_Driver/Src/stm32g4xx_hal_hrtim.c ****         OutputCfg.ResetSource = HRTIM_OUTPUTRESET_TIMCMP1;
 2330              		.loc 1 1482 31
 2331 014e 0823     		movs	r3, #8
 2332 0150 FB61     		str	r3, [r7, #28]
 2333 0152 01E0     		b	.L127
 2334              	.L126:
1483:Drivers/STM32G4xx_HAL_Driver/Src/stm32g4xx_hal_hrtim.c ****       }
1484:Drivers/STM32G4xx_HAL_Driver/Src/stm32g4xx_hal_hrtim.c ****       else
1485:Drivers/STM32G4xx_HAL_Driver/Src/stm32g4xx_hal_hrtim.c ****       {
1486:Drivers/STM32G4xx_HAL_Driver/Src/stm32g4xx_hal_hrtim.c ****         OutputCfg.ResetSource = HRTIM_OUTPUTRESET_TIMCMP2;
 2335              		.loc 1 1486 31
 2336 0154 1023     		movs	r3, #16
 2337 0156 FB61     		str	r3, [r7, #28]
 2338              	.L127:
1487:Drivers/STM32G4xx_HAL_Driver/Src/stm32g4xx_hal_hrtim.c ****       }
1488:Drivers/STM32G4xx_HAL_Driver/Src/stm32g4xx_hal_hrtim.c ****       OutputCfg.SetSource = HRTIM_OUTPUTSET_NONE;
 2339              		.loc 1 1488 27
 2340 0158 0023     		movs	r3, #0
 2341 015a BB61     		str	r3, [r7, #24]
1489:Drivers/STM32G4xx_HAL_Driver/Src/stm32g4xx_hal_hrtim.c ****       break;
 2342              		.loc 1 1489 7
 2343 015c 08E0     		b	.L123
 2344              	.L120:
1490:Drivers/STM32G4xx_HAL_Driver/Src/stm32g4xx_hal_hrtim.c ****     }
1491:Drivers/STM32G4xx_HAL_Driver/Src/stm32g4xx_hal_hrtim.c **** 
1492:Drivers/STM32G4xx_HAL_Driver/Src/stm32g4xx_hal_hrtim.c ****   default:
1493:Drivers/STM32G4xx_HAL_Driver/Src/stm32g4xx_hal_hrtim.c ****     {
1494:Drivers/STM32G4xx_HAL_Driver/Src/stm32g4xx_hal_hrtim.c ****       hhrtim->State = HAL_HRTIM_STATE_ERROR;
 2345              		.loc 1 1494 21
 2346 015e FB68     		ldr	r3, [r7, #12]
 2347 0160 0722     		movs	r2, #7
 2348 0162 83F8DD20 		strb	r2, [r3, #221]
1495:Drivers/STM32G4xx_HAL_Driver/Src/stm32g4xx_hal_hrtim.c **** 
1496:Drivers/STM32G4xx_HAL_Driver/Src/stm32g4xx_hal_hrtim.c ****       /* Process Unlocked */
1497:Drivers/STM32G4xx_HAL_Driver/Src/stm32g4xx_hal_hrtim.c ****       __HAL_UNLOCK(hhrtim);
 2349              		.loc 1 1497 7
ARM GAS  /tmp/cclQbFqw.s 			page 68


 2350 0166 FB68     		ldr	r3, [r7, #12]
 2351 0168 0022     		movs	r2, #0
 2352 016a 83F8DC20 		strb	r2, [r3, #220]
1498:Drivers/STM32G4xx_HAL_Driver/Src/stm32g4xx_hal_hrtim.c **** 
1499:Drivers/STM32G4xx_HAL_Driver/Src/stm32g4xx_hal_hrtim.c ****       break;
 2353              		.loc 1 1499 7
 2354 016e 00BF     		nop
 2355              	.L123:
1500:Drivers/STM32G4xx_HAL_Driver/Src/stm32g4xx_hal_hrtim.c ****     }
1501:Drivers/STM32G4xx_HAL_Driver/Src/stm32g4xx_hal_hrtim.c ****   }
1502:Drivers/STM32G4xx_HAL_Driver/Src/stm32g4xx_hal_hrtim.c **** 
1503:Drivers/STM32G4xx_HAL_Driver/Src/stm32g4xx_hal_hrtim.c ****   if(hhrtim->State == HAL_HRTIM_STATE_ERROR)
 2356              		.loc 1 1503 12
 2357 0170 FB68     		ldr	r3, [r7, #12]
 2358 0172 93F8DD30 		ldrb	r3, [r3, #221]
 2359 0176 DBB2     		uxtb	r3, r3
 2360              		.loc 1 1503 5
 2361 0178 072B     		cmp	r3, #7
 2362 017a 01D1     		bne	.L128
1504:Drivers/STM32G4xx_HAL_Driver/Src/stm32g4xx_hal_hrtim.c ****   {
1505:Drivers/STM32G4xx_HAL_Driver/Src/stm32g4xx_hal_hrtim.c ****      return HAL_ERROR;
 2363              		.loc 1 1505 13
 2364 017c 0123     		movs	r3, #1
 2365 017e 0BE0     		b	.L129
 2366              	.L128:
1506:Drivers/STM32G4xx_HAL_Driver/Src/stm32g4xx_hal_hrtim.c ****   }
1507:Drivers/STM32G4xx_HAL_Driver/Src/stm32g4xx_hal_hrtim.c **** 
1508:Drivers/STM32G4xx_HAL_Driver/Src/stm32g4xx_hal_hrtim.c ****   HRTIM_OutputConfig(hhrtim,
 2367              		.loc 1 1508 3
 2368 0180 07F11403 		add	r3, r7, #20
 2369 0184 7A68     		ldr	r2, [r7, #4]
 2370 0186 B968     		ldr	r1, [r7, #8]
 2371 0188 F868     		ldr	r0, [r7, #12]
 2372 018a FFF7FEFF 		bl	HRTIM_OutputConfig
