ARM GAS  /tmp/cc4MD8jd.s 			page 1


   1              		.cpu cortex-m4
   2              		.eabi_attribute 27, 1
   3              		.eabi_attribute 28, 1
   4              		.eabi_attribute 20, 1
   5              		.eabi_attribute 21, 1
   6              		.eabi_attribute 23, 3
   7              		.eabi_attribute 24, 1
   8              		.eabi_attribute 25, 1
   9              		.eabi_attribute 26, 1
  10              		.eabi_attribute 30, 6
  11              		.eabi_attribute 34, 1
  12              		.eabi_attribute 18, 4
  13              		.file	"stm32g4xx_hal_pcd.c"
  14              		.text
  15              	.Ltext0:
  16              		.cfi_sections	.debug_frame
  17              		.section	.text.HAL_PCD_Init,"ax",%progbits
  18              		.align	1
  19              		.global	HAL_PCD_Init
  20              		.arch armv7e-m
  21              		.syntax unified
  22              		.thumb
  23              		.thumb_func
  24              		.fpu fpv4-sp-d16
  26              	HAL_PCD_Init:
  27              	.LFB325:
  28              		.file 1 "Drivers/STM32G4xx_HAL_Driver/Src/stm32g4xx_hal_pcd.c"
   1:Drivers/STM32G4xx_HAL_Driver/Src/stm32g4xx_hal_pcd.c **** /**
   2:Drivers/STM32G4xx_HAL_Driver/Src/stm32g4xx_hal_pcd.c ****   ******************************************************************************
   3:Drivers/STM32G4xx_HAL_Driver/Src/stm32g4xx_hal_pcd.c ****   * @file    stm32g4xx_hal_pcd.c
   4:Drivers/STM32G4xx_HAL_Driver/Src/stm32g4xx_hal_pcd.c ****   * @author  MCD Application Team
   5:Drivers/STM32G4xx_HAL_Driver/Src/stm32g4xx_hal_pcd.c ****   * @brief   PCD HAL module driver.
   6:Drivers/STM32G4xx_HAL_Driver/Src/stm32g4xx_hal_pcd.c ****   *          This file provides firmware functions to manage the following
   7:Drivers/STM32G4xx_HAL_Driver/Src/stm32g4xx_hal_pcd.c ****   *          functionalities of the USB Peripheral Controller:
   8:Drivers/STM32G4xx_HAL_Driver/Src/stm32g4xx_hal_pcd.c ****   *           + Initialization and de-initialization functions
   9:Drivers/STM32G4xx_HAL_Driver/Src/stm32g4xx_hal_pcd.c ****   *           + IO operation functions
  10:Drivers/STM32G4xx_HAL_Driver/Src/stm32g4xx_hal_pcd.c ****   *           + Peripheral Control functions
  11:Drivers/STM32G4xx_HAL_Driver/Src/stm32g4xx_hal_pcd.c ****   *           + Peripheral State functions
  12:Drivers/STM32G4xx_HAL_Driver/Src/stm32g4xx_hal_pcd.c ****   *
  13:Drivers/STM32G4xx_HAL_Driver/Src/stm32g4xx_hal_pcd.c ****   @verbatim
  14:Drivers/STM32G4xx_HAL_Driver/Src/stm32g4xx_hal_pcd.c ****   ==============================================================================
  15:Drivers/STM32G4xx_HAL_Driver/Src/stm32g4xx_hal_pcd.c ****                     ##### How to use this driver #####
  16:Drivers/STM32G4xx_HAL_Driver/Src/stm32g4xx_hal_pcd.c ****   ==============================================================================
  17:Drivers/STM32G4xx_HAL_Driver/Src/stm32g4xx_hal_pcd.c ****     [..]
  18:Drivers/STM32G4xx_HAL_Driver/Src/stm32g4xx_hal_pcd.c ****       The PCD HAL driver can be used as follows:
  19:Drivers/STM32G4xx_HAL_Driver/Src/stm32g4xx_hal_pcd.c **** 
  20:Drivers/STM32G4xx_HAL_Driver/Src/stm32g4xx_hal_pcd.c ****      (#) Declare a PCD_HandleTypeDef handle structure, for example:
  21:Drivers/STM32G4xx_HAL_Driver/Src/stm32g4xx_hal_pcd.c ****          PCD_HandleTypeDef  hpcd;
  22:Drivers/STM32G4xx_HAL_Driver/Src/stm32g4xx_hal_pcd.c **** 
  23:Drivers/STM32G4xx_HAL_Driver/Src/stm32g4xx_hal_pcd.c ****      (#) Fill parameters of Init structure in HCD handle
  24:Drivers/STM32G4xx_HAL_Driver/Src/stm32g4xx_hal_pcd.c **** 
  25:Drivers/STM32G4xx_HAL_Driver/Src/stm32g4xx_hal_pcd.c ****      (#) Call HAL_PCD_Init() API to initialize the PCD peripheral (Core, Device core, ...)
  26:Drivers/STM32G4xx_HAL_Driver/Src/stm32g4xx_hal_pcd.c **** 
  27:Drivers/STM32G4xx_HAL_Driver/Src/stm32g4xx_hal_pcd.c ****      (#) Initialize the PCD low level resources through the HAL_PCD_MspInit() API:
  28:Drivers/STM32G4xx_HAL_Driver/Src/stm32g4xx_hal_pcd.c ****          (##) Enable the PCD/USB Low Level interface clock using
  29:Drivers/STM32G4xx_HAL_Driver/Src/stm32g4xx_hal_pcd.c ****               (+++) __HAL_RCC_USB_CLK_ENABLE(); For USB Device only FS peripheral
  30:Drivers/STM32G4xx_HAL_Driver/Src/stm32g4xx_hal_pcd.c **** 
ARM GAS  /tmp/cc4MD8jd.s 			page 2


  31:Drivers/STM32G4xx_HAL_Driver/Src/stm32g4xx_hal_pcd.c ****          (##) Initialize the related GPIO clocks
  32:Drivers/STM32G4xx_HAL_Driver/Src/stm32g4xx_hal_pcd.c ****          (##) Configure PCD pin-out
  33:Drivers/STM32G4xx_HAL_Driver/Src/stm32g4xx_hal_pcd.c ****          (##) Configure PCD NVIC interrupt
  34:Drivers/STM32G4xx_HAL_Driver/Src/stm32g4xx_hal_pcd.c **** 
  35:Drivers/STM32G4xx_HAL_Driver/Src/stm32g4xx_hal_pcd.c ****      (#)Associate the Upper USB device stack to the HAL PCD Driver:
  36:Drivers/STM32G4xx_HAL_Driver/Src/stm32g4xx_hal_pcd.c ****          (##) hpcd.pData = pdev;
  37:Drivers/STM32G4xx_HAL_Driver/Src/stm32g4xx_hal_pcd.c **** 
  38:Drivers/STM32G4xx_HAL_Driver/Src/stm32g4xx_hal_pcd.c ****      (#)Enable PCD transmission and reception:
  39:Drivers/STM32G4xx_HAL_Driver/Src/stm32g4xx_hal_pcd.c ****          (##) HAL_PCD_Start();
  40:Drivers/STM32G4xx_HAL_Driver/Src/stm32g4xx_hal_pcd.c **** 
  41:Drivers/STM32G4xx_HAL_Driver/Src/stm32g4xx_hal_pcd.c ****   @endverbatim
  42:Drivers/STM32G4xx_HAL_Driver/Src/stm32g4xx_hal_pcd.c ****   ******************************************************************************
  43:Drivers/STM32G4xx_HAL_Driver/Src/stm32g4xx_hal_pcd.c ****   * @attention
  44:Drivers/STM32G4xx_HAL_Driver/Src/stm32g4xx_hal_pcd.c ****   *
  45:Drivers/STM32G4xx_HAL_Driver/Src/stm32g4xx_hal_pcd.c ****   * <h2><center>&copy; Copyright (c) 2019 STMicroelectronics.
  46:Drivers/STM32G4xx_HAL_Driver/Src/stm32g4xx_hal_pcd.c ****   * All rights reserved.</center></h2>
  47:Drivers/STM32G4xx_HAL_Driver/Src/stm32g4xx_hal_pcd.c ****   *
  48:Drivers/STM32G4xx_HAL_Driver/Src/stm32g4xx_hal_pcd.c ****   * This software component is licensed by ST under BSD 3-Clause license,
  49:Drivers/STM32G4xx_HAL_Driver/Src/stm32g4xx_hal_pcd.c ****   * the "License"; You may not use this file except in compliance with the
  50:Drivers/STM32G4xx_HAL_Driver/Src/stm32g4xx_hal_pcd.c ****   * License. You may obtain a copy of the License at:
  51:Drivers/STM32G4xx_HAL_Driver/Src/stm32g4xx_hal_pcd.c ****   *                        opensource.org/licenses/BSD-3-Clause
  52:Drivers/STM32G4xx_HAL_Driver/Src/stm32g4xx_hal_pcd.c ****   *
  53:Drivers/STM32G4xx_HAL_Driver/Src/stm32g4xx_hal_pcd.c ****   ******************************************************************************
  54:Drivers/STM32G4xx_HAL_Driver/Src/stm32g4xx_hal_pcd.c ****   */
  55:Drivers/STM32G4xx_HAL_Driver/Src/stm32g4xx_hal_pcd.c **** 
  56:Drivers/STM32G4xx_HAL_Driver/Src/stm32g4xx_hal_pcd.c **** /* Includes ------------------------------------------------------------------*/
  57:Drivers/STM32G4xx_HAL_Driver/Src/stm32g4xx_hal_pcd.c **** #include "stm32g4xx_hal.h"
  58:Drivers/STM32G4xx_HAL_Driver/Src/stm32g4xx_hal_pcd.c **** 
  59:Drivers/STM32G4xx_HAL_Driver/Src/stm32g4xx_hal_pcd.c **** /** @addtogroup STM32G4xx_HAL_Driver
  60:Drivers/STM32G4xx_HAL_Driver/Src/stm32g4xx_hal_pcd.c ****   * @{
  61:Drivers/STM32G4xx_HAL_Driver/Src/stm32g4xx_hal_pcd.c ****   */
  62:Drivers/STM32G4xx_HAL_Driver/Src/stm32g4xx_hal_pcd.c **** 
  63:Drivers/STM32G4xx_HAL_Driver/Src/stm32g4xx_hal_pcd.c **** /** @defgroup PCD PCD
  64:Drivers/STM32G4xx_HAL_Driver/Src/stm32g4xx_hal_pcd.c ****   * @brief PCD HAL module driver
  65:Drivers/STM32G4xx_HAL_Driver/Src/stm32g4xx_hal_pcd.c ****   * @{
  66:Drivers/STM32G4xx_HAL_Driver/Src/stm32g4xx_hal_pcd.c ****   */
  67:Drivers/STM32G4xx_HAL_Driver/Src/stm32g4xx_hal_pcd.c **** 
  68:Drivers/STM32G4xx_HAL_Driver/Src/stm32g4xx_hal_pcd.c **** #ifdef HAL_PCD_MODULE_ENABLED
  69:Drivers/STM32G4xx_HAL_Driver/Src/stm32g4xx_hal_pcd.c **** 
  70:Drivers/STM32G4xx_HAL_Driver/Src/stm32g4xx_hal_pcd.c **** #if defined (USB)
  71:Drivers/STM32G4xx_HAL_Driver/Src/stm32g4xx_hal_pcd.c **** 
  72:Drivers/STM32G4xx_HAL_Driver/Src/stm32g4xx_hal_pcd.c **** /* Private types -------------------------------------------------------------*/
  73:Drivers/STM32G4xx_HAL_Driver/Src/stm32g4xx_hal_pcd.c **** /* Private variables ---------------------------------------------------------*/
  74:Drivers/STM32G4xx_HAL_Driver/Src/stm32g4xx_hal_pcd.c **** /* Private constants ---------------------------------------------------------*/
  75:Drivers/STM32G4xx_HAL_Driver/Src/stm32g4xx_hal_pcd.c **** /* Private macros ------------------------------------------------------------*/
  76:Drivers/STM32G4xx_HAL_Driver/Src/stm32g4xx_hal_pcd.c **** /** @defgroup PCD_Private_Macros PCD Private Macros
  77:Drivers/STM32G4xx_HAL_Driver/Src/stm32g4xx_hal_pcd.c ****   * @{
  78:Drivers/STM32G4xx_HAL_Driver/Src/stm32g4xx_hal_pcd.c ****   */
  79:Drivers/STM32G4xx_HAL_Driver/Src/stm32g4xx_hal_pcd.c **** #define PCD_MIN(a, b)  (((a) < (b)) ? (a) : (b))
  80:Drivers/STM32G4xx_HAL_Driver/Src/stm32g4xx_hal_pcd.c **** #define PCD_MAX(a, b)  (((a) > (b)) ? (a) : (b))
  81:Drivers/STM32G4xx_HAL_Driver/Src/stm32g4xx_hal_pcd.c **** /**
  82:Drivers/STM32G4xx_HAL_Driver/Src/stm32g4xx_hal_pcd.c ****   * @}
  83:Drivers/STM32G4xx_HAL_Driver/Src/stm32g4xx_hal_pcd.c ****   */
  84:Drivers/STM32G4xx_HAL_Driver/Src/stm32g4xx_hal_pcd.c **** 
  85:Drivers/STM32G4xx_HAL_Driver/Src/stm32g4xx_hal_pcd.c **** /* Private functions prototypes ----------------------------------------------*/
  86:Drivers/STM32G4xx_HAL_Driver/Src/stm32g4xx_hal_pcd.c **** /** @defgroup PCD_Private_Functions PCD Private Functions
  87:Drivers/STM32G4xx_HAL_Driver/Src/stm32g4xx_hal_pcd.c ****   * @{
ARM GAS  /tmp/cc4MD8jd.s 			page 3


  88:Drivers/STM32G4xx_HAL_Driver/Src/stm32g4xx_hal_pcd.c ****   */
  89:Drivers/STM32G4xx_HAL_Driver/Src/stm32g4xx_hal_pcd.c **** 
  90:Drivers/STM32G4xx_HAL_Driver/Src/stm32g4xx_hal_pcd.c **** static HAL_StatusTypeDef PCD_EP_ISR_Handler(PCD_HandleTypeDef *hpcd);
  91:Drivers/STM32G4xx_HAL_Driver/Src/stm32g4xx_hal_pcd.c **** 
  92:Drivers/STM32G4xx_HAL_Driver/Src/stm32g4xx_hal_pcd.c **** /**
  93:Drivers/STM32G4xx_HAL_Driver/Src/stm32g4xx_hal_pcd.c ****   * @}
  94:Drivers/STM32G4xx_HAL_Driver/Src/stm32g4xx_hal_pcd.c ****   */
  95:Drivers/STM32G4xx_HAL_Driver/Src/stm32g4xx_hal_pcd.c **** 
  96:Drivers/STM32G4xx_HAL_Driver/Src/stm32g4xx_hal_pcd.c **** /* Exported functions --------------------------------------------------------*/
  97:Drivers/STM32G4xx_HAL_Driver/Src/stm32g4xx_hal_pcd.c **** /** @defgroup PCD_Exported_Functions PCD Exported Functions
  98:Drivers/STM32G4xx_HAL_Driver/Src/stm32g4xx_hal_pcd.c ****   * @{
  99:Drivers/STM32G4xx_HAL_Driver/Src/stm32g4xx_hal_pcd.c ****   */
 100:Drivers/STM32G4xx_HAL_Driver/Src/stm32g4xx_hal_pcd.c **** 
 101:Drivers/STM32G4xx_HAL_Driver/Src/stm32g4xx_hal_pcd.c **** /** @defgroup PCD_Exported_Functions_Group1 Initialization and de-initialization functions
 102:Drivers/STM32G4xx_HAL_Driver/Src/stm32g4xx_hal_pcd.c ****  *  @brief    Initialization and Configuration functions
 103:Drivers/STM32G4xx_HAL_Driver/Src/stm32g4xx_hal_pcd.c ****  *
 104:Drivers/STM32G4xx_HAL_Driver/Src/stm32g4xx_hal_pcd.c **** @verbatim
 105:Drivers/STM32G4xx_HAL_Driver/Src/stm32g4xx_hal_pcd.c ****  ===============================================================================
 106:Drivers/STM32G4xx_HAL_Driver/Src/stm32g4xx_hal_pcd.c ****             ##### Initialization and de-initialization functions #####
 107:Drivers/STM32G4xx_HAL_Driver/Src/stm32g4xx_hal_pcd.c ****  ===============================================================================
 108:Drivers/STM32G4xx_HAL_Driver/Src/stm32g4xx_hal_pcd.c ****     [..]  This section provides functions allowing to:
 109:Drivers/STM32G4xx_HAL_Driver/Src/stm32g4xx_hal_pcd.c **** 
 110:Drivers/STM32G4xx_HAL_Driver/Src/stm32g4xx_hal_pcd.c **** @endverbatim
 111:Drivers/STM32G4xx_HAL_Driver/Src/stm32g4xx_hal_pcd.c ****   * @{
 112:Drivers/STM32G4xx_HAL_Driver/Src/stm32g4xx_hal_pcd.c ****   */
 113:Drivers/STM32G4xx_HAL_Driver/Src/stm32g4xx_hal_pcd.c **** 
 114:Drivers/STM32G4xx_HAL_Driver/Src/stm32g4xx_hal_pcd.c **** /**
 115:Drivers/STM32G4xx_HAL_Driver/Src/stm32g4xx_hal_pcd.c ****   * @brief  Initializes the PCD according to the specified
 116:Drivers/STM32G4xx_HAL_Driver/Src/stm32g4xx_hal_pcd.c ****   *         parameters in the PCD_InitTypeDef and initialize the associated handle.
 117:Drivers/STM32G4xx_HAL_Driver/Src/stm32g4xx_hal_pcd.c ****   * @param  hpcd PCD handle
 118:Drivers/STM32G4xx_HAL_Driver/Src/stm32g4xx_hal_pcd.c ****   * @retval HAL status
 119:Drivers/STM32G4xx_HAL_Driver/Src/stm32g4xx_hal_pcd.c ****   */
 120:Drivers/STM32G4xx_HAL_Driver/Src/stm32g4xx_hal_pcd.c **** HAL_StatusTypeDef HAL_PCD_Init(PCD_HandleTypeDef *hpcd)
 121:Drivers/STM32G4xx_HAL_Driver/Src/stm32g4xx_hal_pcd.c **** {
  29              		.loc 1 121 1
  30              		.cfi_startproc
  31              		@ args = 0, pretend = 0, frame = 16
  32              		@ frame_needed = 1, uses_anonymous_args = 0
  33 0000 F0B5     		push	{r4, r5, r6, r7, lr}
  34              	.LCFI0:
  35              		.cfi_def_cfa_offset 20
  36              		.cfi_offset 4, -20
  37              		.cfi_offset 5, -16
  38              		.cfi_offset 6, -12
  39              		.cfi_offset 7, -8
  40              		.cfi_offset 14, -4
  41 0002 8BB0     		sub	sp, sp, #44
  42              	.LCFI1:
  43              		.cfi_def_cfa_offset 64
  44 0004 06AF     		add	r7, sp, #24
  45              	.LCFI2:
  46              		.cfi_def_cfa 7, 40
  47 0006 7860     		str	r0, [r7, #4]
 122:Drivers/STM32G4xx_HAL_Driver/Src/stm32g4xx_hal_pcd.c ****   uint8_t i;
 123:Drivers/STM32G4xx_HAL_Driver/Src/stm32g4xx_hal_pcd.c **** 
 124:Drivers/STM32G4xx_HAL_Driver/Src/stm32g4xx_hal_pcd.c ****   /* Check the PCD handle allocation */
 125:Drivers/STM32G4xx_HAL_Driver/Src/stm32g4xx_hal_pcd.c ****   if (hpcd == NULL)
ARM GAS  /tmp/cc4MD8jd.s 			page 4


  48              		.loc 1 125 6
  49 0008 7B68     		ldr	r3, [r7, #4]
  50 000a 002B     		cmp	r3, #0
  51 000c 01D1     		bne	.L2
 126:Drivers/STM32G4xx_HAL_Driver/Src/stm32g4xx_hal_pcd.c ****   {
 127:Drivers/STM32G4xx_HAL_Driver/Src/stm32g4xx_hal_pcd.c ****     return HAL_ERROR;
  52              		.loc 1 127 12
  53 000e 0123     		movs	r3, #1
  54 0010 ADE0     		b	.L3
  55              	.L2:
 128:Drivers/STM32G4xx_HAL_Driver/Src/stm32g4xx_hal_pcd.c ****   }
 129:Drivers/STM32G4xx_HAL_Driver/Src/stm32g4xx_hal_pcd.c **** 
 130:Drivers/STM32G4xx_HAL_Driver/Src/stm32g4xx_hal_pcd.c ****   /* Check the parameters */
 131:Drivers/STM32G4xx_HAL_Driver/Src/stm32g4xx_hal_pcd.c ****   assert_param(IS_PCD_ALL_INSTANCE(hpcd->Instance));
 132:Drivers/STM32G4xx_HAL_Driver/Src/stm32g4xx_hal_pcd.c **** 
 133:Drivers/STM32G4xx_HAL_Driver/Src/stm32g4xx_hal_pcd.c ****   if (hpcd->State == HAL_PCD_STATE_RESET)
  56              		.loc 1 133 11
  57 0012 7B68     		ldr	r3, [r7, #4]
  58 0014 93F82932 		ldrb	r3, [r3, #553]
  59 0018 DBB2     		uxtb	r3, r3
  60              		.loc 1 133 6
  61 001a 002B     		cmp	r3, #0
  62 001c 06D1     		bne	.L4
 134:Drivers/STM32G4xx_HAL_Driver/Src/stm32g4xx_hal_pcd.c ****   {
 135:Drivers/STM32G4xx_HAL_Driver/Src/stm32g4xx_hal_pcd.c ****     /* Allocate lock resource and initialize it */
 136:Drivers/STM32G4xx_HAL_Driver/Src/stm32g4xx_hal_pcd.c ****     hpcd->Lock = HAL_UNLOCKED;
  63              		.loc 1 136 16
  64 001e 7B68     		ldr	r3, [r7, #4]
  65 0020 0022     		movs	r2, #0
  66 0022 83F82822 		strb	r2, [r3, #552]
 137:Drivers/STM32G4xx_HAL_Driver/Src/stm32g4xx_hal_pcd.c **** 
 138:Drivers/STM32G4xx_HAL_Driver/Src/stm32g4xx_hal_pcd.c **** #if (USE_HAL_PCD_REGISTER_CALLBACKS == 1U)
 139:Drivers/STM32G4xx_HAL_Driver/Src/stm32g4xx_hal_pcd.c ****     hpcd->SOFCallback = HAL_PCD_SOFCallback;
 140:Drivers/STM32G4xx_HAL_Driver/Src/stm32g4xx_hal_pcd.c ****     hpcd->SetupStageCallback = HAL_PCD_SetupStageCallback;
 141:Drivers/STM32G4xx_HAL_Driver/Src/stm32g4xx_hal_pcd.c ****     hpcd->ResetCallback = HAL_PCD_ResetCallback;
 142:Drivers/STM32G4xx_HAL_Driver/Src/stm32g4xx_hal_pcd.c ****     hpcd->SuspendCallback = HAL_PCD_SuspendCallback;
 143:Drivers/STM32G4xx_HAL_Driver/Src/stm32g4xx_hal_pcd.c ****     hpcd->ResumeCallback = HAL_PCD_ResumeCallback;
 144:Drivers/STM32G4xx_HAL_Driver/Src/stm32g4xx_hal_pcd.c ****     hpcd->ConnectCallback = HAL_PCD_ConnectCallback;
 145:Drivers/STM32G4xx_HAL_Driver/Src/stm32g4xx_hal_pcd.c ****     hpcd->DisconnectCallback = HAL_PCD_DisconnectCallback;
 146:Drivers/STM32G4xx_HAL_Driver/Src/stm32g4xx_hal_pcd.c ****     hpcd->DataOutStageCallback = HAL_PCD_DataOutStageCallback;
 147:Drivers/STM32G4xx_HAL_Driver/Src/stm32g4xx_hal_pcd.c ****     hpcd->DataInStageCallback = HAL_PCD_DataInStageCallback;
 148:Drivers/STM32G4xx_HAL_Driver/Src/stm32g4xx_hal_pcd.c ****     hpcd->ISOOUTIncompleteCallback = HAL_PCD_ISOOUTIncompleteCallback;
 149:Drivers/STM32G4xx_HAL_Driver/Src/stm32g4xx_hal_pcd.c ****     hpcd->ISOINIncompleteCallback = HAL_PCD_ISOINIncompleteCallback;
 150:Drivers/STM32G4xx_HAL_Driver/Src/stm32g4xx_hal_pcd.c ****     hpcd->LPMCallback = HAL_PCDEx_LPM_Callback;
 151:Drivers/STM32G4xx_HAL_Driver/Src/stm32g4xx_hal_pcd.c ****     hpcd->BCDCallback = HAL_PCDEx_BCD_Callback;
 152:Drivers/STM32G4xx_HAL_Driver/Src/stm32g4xx_hal_pcd.c **** 
 153:Drivers/STM32G4xx_HAL_Driver/Src/stm32g4xx_hal_pcd.c ****     if (hpcd->MspInitCallback == NULL)
 154:Drivers/STM32G4xx_HAL_Driver/Src/stm32g4xx_hal_pcd.c ****     {
 155:Drivers/STM32G4xx_HAL_Driver/Src/stm32g4xx_hal_pcd.c ****       hpcd->MspInitCallback = HAL_PCD_MspInit;
 156:Drivers/STM32G4xx_HAL_Driver/Src/stm32g4xx_hal_pcd.c ****     }
 157:Drivers/STM32G4xx_HAL_Driver/Src/stm32g4xx_hal_pcd.c **** 
 158:Drivers/STM32G4xx_HAL_Driver/Src/stm32g4xx_hal_pcd.c ****     /* Init the low level hardware */
 159:Drivers/STM32G4xx_HAL_Driver/Src/stm32g4xx_hal_pcd.c ****     hpcd->MspInitCallback(hpcd);
 160:Drivers/STM32G4xx_HAL_Driver/Src/stm32g4xx_hal_pcd.c **** #else
 161:Drivers/STM32G4xx_HAL_Driver/Src/stm32g4xx_hal_pcd.c ****     /* Init the low level hardware : GPIO, CLOCK, NVIC... */
 162:Drivers/STM32G4xx_HAL_Driver/Src/stm32g4xx_hal_pcd.c ****     HAL_PCD_MspInit(hpcd);
  67              		.loc 1 162 5
ARM GAS  /tmp/cc4MD8jd.s 			page 5


  68 0026 7868     		ldr	r0, [r7, #4]
  69 0028 FFF7FEFF 		bl	HAL_PCD_MspInit
  70              	.L4:
 163:Drivers/STM32G4xx_HAL_Driver/Src/stm32g4xx_hal_pcd.c **** #endif /* (USE_HAL_PCD_REGISTER_CALLBACKS) */
 164:Drivers/STM32G4xx_HAL_Driver/Src/stm32g4xx_hal_pcd.c ****   }
 165:Drivers/STM32G4xx_HAL_Driver/Src/stm32g4xx_hal_pcd.c **** 
 166:Drivers/STM32G4xx_HAL_Driver/Src/stm32g4xx_hal_pcd.c ****   hpcd->State = HAL_PCD_STATE_BUSY;
  71              		.loc 1 166 15
  72 002c 7B68     		ldr	r3, [r7, #4]
  73 002e 0322     		movs	r2, #3
  74 0030 83F82922 		strb	r2, [r3, #553]
 167:Drivers/STM32G4xx_HAL_Driver/Src/stm32g4xx_hal_pcd.c **** 
 168:Drivers/STM32G4xx_HAL_Driver/Src/stm32g4xx_hal_pcd.c ****   /* Disable the Interrupts */
 169:Drivers/STM32G4xx_HAL_Driver/Src/stm32g4xx_hal_pcd.c ****   __HAL_PCD_DISABLE(hpcd);
  75              		.loc 1 169 3
  76 0034 7B68     		ldr	r3, [r7, #4]
  77 0036 1B68     		ldr	r3, [r3]
  78 0038 1846     		mov	r0, r3
  79 003a FFF7FEFF 		bl	USB_DisableGlobalInt
 170:Drivers/STM32G4xx_HAL_Driver/Src/stm32g4xx_hal_pcd.c **** 
 171:Drivers/STM32G4xx_HAL_Driver/Src/stm32g4xx_hal_pcd.c ****   /* Init endpoints structures */
 172:Drivers/STM32G4xx_HAL_Driver/Src/stm32g4xx_hal_pcd.c ****   for (i = 0U; i < hpcd->Init.dev_endpoints; i++)
  80              		.loc 1 172 10
  81 003e 0023     		movs	r3, #0
  82 0040 FB73     		strb	r3, [r7, #15]
  83              		.loc 1 172 3
  84 0042 35E0     		b	.L5
  85              	.L6:
 173:Drivers/STM32G4xx_HAL_Driver/Src/stm32g4xx_hal_pcd.c ****   {
 174:Drivers/STM32G4xx_HAL_Driver/Src/stm32g4xx_hal_pcd.c ****     /* Init ep structure */
 175:Drivers/STM32G4xx_HAL_Driver/Src/stm32g4xx_hal_pcd.c ****     hpcd->IN_ep[i].is_in = 1U;
  86              		.loc 1 175 19 discriminator 3
  87 0044 FB7B     		ldrb	r3, [r7, #15]	@ zero_extendqisi2
  88              		.loc 1 175 26 discriminator 3
  89 0046 7A68     		ldr	r2, [r7, #4]
  90 0048 5B01     		lsls	r3, r3, #5
  91 004a 1344     		add	r3, r3, r2
  92 004c 2933     		adds	r3, r3, #41
  93 004e 0122     		movs	r2, #1
  94 0050 1A70     		strb	r2, [r3]
 176:Drivers/STM32G4xx_HAL_Driver/Src/stm32g4xx_hal_pcd.c ****     hpcd->IN_ep[i].num = i;
  95              		.loc 1 176 19 discriminator 3
  96 0052 FB7B     		ldrb	r3, [r7, #15]	@ zero_extendqisi2
  97              		.loc 1 176 24 discriminator 3
  98 0054 7A68     		ldr	r2, [r7, #4]
  99 0056 5B01     		lsls	r3, r3, #5
 100 0058 1344     		add	r3, r3, r2
 101 005a 2833     		adds	r3, r3, #40
 102 005c FA7B     		ldrb	r2, [r7, #15]
 103 005e 1A70     		strb	r2, [r3]
 177:Drivers/STM32G4xx_HAL_Driver/Src/stm32g4xx_hal_pcd.c ****     hpcd->IN_ep[i].tx_fifo_num = i;
 104              		.loc 1 177 19 discriminator 3
 105 0060 FB7B     		ldrb	r3, [r7, #15]	@ zero_extendqisi2
 106              		.loc 1 177 32 discriminator 3
 107 0062 FA7B     		ldrb	r2, [r7, #15]	@ zero_extendqisi2
 108 0064 91B2     		uxth	r1, r2
 109 0066 7A68     		ldr	r2, [r7, #4]
ARM GAS  /tmp/cc4MD8jd.s 			page 6


 110 0068 5B01     		lsls	r3, r3, #5
 111 006a 1344     		add	r3, r3, r2
 112 006c 3633     		adds	r3, r3, #54
 113 006e 0A46     		mov	r2, r1	@ movhi
 114 0070 1A80     		strh	r2, [r3]	@ movhi
 178:Drivers/STM32G4xx_HAL_Driver/Src/stm32g4xx_hal_pcd.c ****     /* Control until ep is activated */
 179:Drivers/STM32G4xx_HAL_Driver/Src/stm32g4xx_hal_pcd.c ****     hpcd->IN_ep[i].type = EP_TYPE_CTRL;
 115              		.loc 1 179 19 discriminator 3
 116 0072 FB7B     		ldrb	r3, [r7, #15]	@ zero_extendqisi2
 117              		.loc 1 179 25 discriminator 3
 118 0074 7A68     		ldr	r2, [r7, #4]
 119 0076 5B01     		lsls	r3, r3, #5
 120 0078 1344     		add	r3, r3, r2
 121 007a 2B33     		adds	r3, r3, #43
 122 007c 0022     		movs	r2, #0
 123 007e 1A70     		strb	r2, [r3]
 180:Drivers/STM32G4xx_HAL_Driver/Src/stm32g4xx_hal_pcd.c ****     hpcd->IN_ep[i].maxpacket = 0U;
 124              		.loc 1 180 19 discriminator 3
 125 0080 FB7B     		ldrb	r3, [r7, #15]	@ zero_extendqisi2
 126              		.loc 1 180 30 discriminator 3
 127 0082 7A68     		ldr	r2, [r7, #4]
 128 0084 5B01     		lsls	r3, r3, #5
 129 0086 1344     		add	r3, r3, r2
 130 0088 3833     		adds	r3, r3, #56
 131 008a 0022     		movs	r2, #0
 132 008c 1A60     		str	r2, [r3]
 181:Drivers/STM32G4xx_HAL_Driver/Src/stm32g4xx_hal_pcd.c ****     hpcd->IN_ep[i].xfer_buff = 0U;
 133              		.loc 1 181 19 discriminator 3
 134 008e FB7B     		ldrb	r3, [r7, #15]	@ zero_extendqisi2
 135              		.loc 1 181 30 discriminator 3
 136 0090 7A68     		ldr	r2, [r7, #4]
 137 0092 5B01     		lsls	r3, r3, #5
 138 0094 1344     		add	r3, r3, r2
 139 0096 3C33     		adds	r3, r3, #60
 140 0098 0022     		movs	r2, #0
 141 009a 1A60     		str	r2, [r3]
 182:Drivers/STM32G4xx_HAL_Driver/Src/stm32g4xx_hal_pcd.c ****     hpcd->IN_ep[i].xfer_len = 0U;
 142              		.loc 1 182 19 discriminator 3
 143 009c FB7B     		ldrb	r3, [r7, #15]	@ zero_extendqisi2
 144              		.loc 1 182 29 discriminator 3
 145 009e 7A68     		ldr	r2, [r7, #4]
 146 00a0 0233     		adds	r3, r3, #2
 147 00a2 5B01     		lsls	r3, r3, #5
 148 00a4 1344     		add	r3, r3, r2
 149 00a6 0022     		movs	r2, #0
 150 00a8 1A60     		str	r2, [r3]
 172:Drivers/STM32G4xx_HAL_Driver/Src/stm32g4xx_hal_pcd.c ****   {
 151              		.loc 1 172 47 discriminator 3
 152 00aa FB7B     		ldrb	r3, [r7, #15]	@ zero_extendqisi2
 153 00ac 0133     		adds	r3, r3, #1
 154 00ae FB73     		strb	r3, [r7, #15]
 155              	.L5:
 172:Drivers/STM32G4xx_HAL_Driver/Src/stm32g4xx_hal_pcd.c ****   {
 156              		.loc 1 172 18 discriminator 1
 157 00b0 FA7B     		ldrb	r2, [r7, #15]	@ zero_extendqisi2
 172:Drivers/STM32G4xx_HAL_Driver/Src/stm32g4xx_hal_pcd.c ****   {
 158              		.loc 1 172 30 discriminator 1
ARM GAS  /tmp/cc4MD8jd.s 			page 7


 159 00b2 7B68     		ldr	r3, [r7, #4]
 160 00b4 5B68     		ldr	r3, [r3, #4]
 172:Drivers/STM32G4xx_HAL_Driver/Src/stm32g4xx_hal_pcd.c ****   {
 161              		.loc 1 172 3 discriminator 1
 162 00b6 9A42     		cmp	r2, r3
 163 00b8 C4D3     		bcc	.L6
 183:Drivers/STM32G4xx_HAL_Driver/Src/stm32g4xx_hal_pcd.c ****   }
 184:Drivers/STM32G4xx_HAL_Driver/Src/stm32g4xx_hal_pcd.c **** 
 185:Drivers/STM32G4xx_HAL_Driver/Src/stm32g4xx_hal_pcd.c ****   for (i = 0U; i < hpcd->Init.dev_endpoints; i++)
 164              		.loc 1 185 10
 165 00ba 0023     		movs	r3, #0
 166 00bc FB73     		strb	r3, [r7, #15]
 167              		.loc 1 185 3
 168 00be 31E0     		b	.L7
 169              	.L8:
 186:Drivers/STM32G4xx_HAL_Driver/Src/stm32g4xx_hal_pcd.c ****   {
 187:Drivers/STM32G4xx_HAL_Driver/Src/stm32g4xx_hal_pcd.c ****     hpcd->OUT_ep[i].is_in = 0U;
 170              		.loc 1 187 20 discriminator 3
 171 00c0 FB7B     		ldrb	r3, [r7, #15]	@ zero_extendqisi2
 172              		.loc 1 187 27 discriminator 3
 173 00c2 7A68     		ldr	r2, [r7, #4]
 174 00c4 5B01     		lsls	r3, r3, #5
 175 00c6 1344     		add	r3, r3, r2
 176 00c8 03F22913 		addw	r3, r3, #297
 177 00cc 0022     		movs	r2, #0
 178 00ce 1A70     		strb	r2, [r3]
 188:Drivers/STM32G4xx_HAL_Driver/Src/stm32g4xx_hal_pcd.c ****     hpcd->OUT_ep[i].num = i;
 179              		.loc 1 188 20 discriminator 3
 180 00d0 FB7B     		ldrb	r3, [r7, #15]	@ zero_extendqisi2
 181              		.loc 1 188 25 discriminator 3
 182 00d2 7A68     		ldr	r2, [r7, #4]
 183 00d4 5B01     		lsls	r3, r3, #5
 184 00d6 1344     		add	r3, r3, r2
 185 00d8 03F59473 		add	r3, r3, #296
 186 00dc FA7B     		ldrb	r2, [r7, #15]
 187 00de 1A70     		strb	r2, [r3]
 189:Drivers/STM32G4xx_HAL_Driver/Src/stm32g4xx_hal_pcd.c ****     /* Control until ep is activated */
 190:Drivers/STM32G4xx_HAL_Driver/Src/stm32g4xx_hal_pcd.c ****     hpcd->OUT_ep[i].type = EP_TYPE_CTRL;
 188              		.loc 1 190 20 discriminator 3
 189 00e0 FB7B     		ldrb	r3, [r7, #15]	@ zero_extendqisi2
 190              		.loc 1 190 26 discriminator 3
 191 00e2 7A68     		ldr	r2, [r7, #4]
 192 00e4 5B01     		lsls	r3, r3, #5
 193 00e6 1344     		add	r3, r3, r2
 194 00e8 03F22B13 		addw	r3, r3, #299
 195 00ec 0022     		movs	r2, #0
 196 00ee 1A70     		strb	r2, [r3]
 191:Drivers/STM32G4xx_HAL_Driver/Src/stm32g4xx_hal_pcd.c ****     hpcd->OUT_ep[i].maxpacket = 0U;
 197              		.loc 1 191 20 discriminator 3
 198 00f0 FB7B     		ldrb	r3, [r7, #15]	@ zero_extendqisi2
 199              		.loc 1 191 31 discriminator 3
 200 00f2 7A68     		ldr	r2, [r7, #4]
 201 00f4 5B01     		lsls	r3, r3, #5
 202 00f6 1344     		add	r3, r3, r2
 203 00f8 03F59C73 		add	r3, r3, #312
 204 00fc 0022     		movs	r2, #0
 205 00fe 1A60     		str	r2, [r3]
ARM GAS  /tmp/cc4MD8jd.s 			page 8


 192:Drivers/STM32G4xx_HAL_Driver/Src/stm32g4xx_hal_pcd.c ****     hpcd->OUT_ep[i].xfer_buff = 0U;
 206              		.loc 1 192 20 discriminator 3
 207 0100 FB7B     		ldrb	r3, [r7, #15]	@ zero_extendqisi2
 208              		.loc 1 192 31 discriminator 3
 209 0102 7A68     		ldr	r2, [r7, #4]
 210 0104 5B01     		lsls	r3, r3, #5
 211 0106 1344     		add	r3, r3, r2
 212 0108 03F59E73 		add	r3, r3, #316
 213 010c 0022     		movs	r2, #0
 214 010e 1A60     		str	r2, [r3]
 193:Drivers/STM32G4xx_HAL_Driver/Src/stm32g4xx_hal_pcd.c ****     hpcd->OUT_ep[i].xfer_len = 0U;
 215              		.loc 1 193 20 discriminator 3
 216 0110 FB7B     		ldrb	r3, [r7, #15]	@ zero_extendqisi2
 217              		.loc 1 193 30 discriminator 3
 218 0112 7A68     		ldr	r2, [r7, #4]
 219 0114 0A33     		adds	r3, r3, #10
 220 0116 5B01     		lsls	r3, r3, #5
 221 0118 1344     		add	r3, r3, r2
 222 011a 0022     		movs	r2, #0
 223 011c 1A60     		str	r2, [r3]
 185:Drivers/STM32G4xx_HAL_Driver/Src/stm32g4xx_hal_pcd.c ****   {
 224              		.loc 1 185 47 discriminator 3
 225 011e FB7B     		ldrb	r3, [r7, #15]	@ zero_extendqisi2
 226 0120 0133     		adds	r3, r3, #1
 227 0122 FB73     		strb	r3, [r7, #15]
 228              	.L7:
 185:Drivers/STM32G4xx_HAL_Driver/Src/stm32g4xx_hal_pcd.c ****   {
 229              		.loc 1 185 18 discriminator 1
 230 0124 FA7B     		ldrb	r2, [r7, #15]	@ zero_extendqisi2
 185:Drivers/STM32G4xx_HAL_Driver/Src/stm32g4xx_hal_pcd.c ****   {
 231              		.loc 1 185 30 discriminator 1
 232 0126 7B68     		ldr	r3, [r7, #4]
 233 0128 5B68     		ldr	r3, [r3, #4]
 185:Drivers/STM32G4xx_HAL_Driver/Src/stm32g4xx_hal_pcd.c ****   {
 234              		.loc 1 185 3 discriminator 1
 235 012a 9A42     		cmp	r2, r3
 236 012c C8D3     		bcc	.L8
 194:Drivers/STM32G4xx_HAL_Driver/Src/stm32g4xx_hal_pcd.c ****   }
 195:Drivers/STM32G4xx_HAL_Driver/Src/stm32g4xx_hal_pcd.c **** 
 196:Drivers/STM32G4xx_HAL_Driver/Src/stm32g4xx_hal_pcd.c ****   /* Init Device */
 197:Drivers/STM32G4xx_HAL_Driver/Src/stm32g4xx_hal_pcd.c ****   (void)USB_DevInit(hpcd->Instance, hpcd->Init);
 237              		.loc 1 197 25
 238 012e 7B68     		ldr	r3, [r7, #4]
 239 0130 1B68     		ldr	r3, [r3]
 240 0132 3B60     		str	r3, [r7]
 241              		.loc 1 197 9
 242 0134 7E68     		ldr	r6, [r7, #4]
 243 0136 6D46     		mov	r5, sp
 244 0138 06F11004 		add	r4, r6, #16
 245 013c 0FCC     		ldmia	r4!, {r0, r1, r2, r3}
 246 013e 0FC5     		stmia	r5!, {r0, r1, r2, r3}
 247 0140 2368     		ldr	r3, [r4]
 248 0142 2B60     		str	r3, [r5]
 249 0144 331D     		adds	r3, r6, #4
 250 0146 0ECB     		ldm	r3, {r1, r2, r3}
 251 0148 3868     		ldr	r0, [r7]
 252 014a FFF7FEFF 		bl	USB_DevInit
ARM GAS  /tmp/cc4MD8jd.s 			page 9


 198:Drivers/STM32G4xx_HAL_Driver/Src/stm32g4xx_hal_pcd.c **** 
 199:Drivers/STM32G4xx_HAL_Driver/Src/stm32g4xx_hal_pcd.c ****   hpcd->USB_Address = 0U;
 253              		.loc 1 199 21
 254 014e 7B68     		ldr	r3, [r7, #4]
 255 0150 0022     		movs	r2, #0
 256 0152 83F82420 		strb	r2, [r3, #36]
 200:Drivers/STM32G4xx_HAL_Driver/Src/stm32g4xx_hal_pcd.c ****   hpcd->State = HAL_PCD_STATE_READY;
 257              		.loc 1 200 15
 258 0156 7B68     		ldr	r3, [r7, #4]
 259 0158 0122     		movs	r2, #1
 260 015a 83F82922 		strb	r2, [r3, #553]
 201:Drivers/STM32G4xx_HAL_Driver/Src/stm32g4xx_hal_pcd.c ****   
 202:Drivers/STM32G4xx_HAL_Driver/Src/stm32g4xx_hal_pcd.c ****   /* Activate LPM */
 203:Drivers/STM32G4xx_HAL_Driver/Src/stm32g4xx_hal_pcd.c ****   if (hpcd->Init.lpm_enable == 1U)
 261              		.loc 1 203 17
 262 015e 7B68     		ldr	r3, [r7, #4]
 263 0160 DB69     		ldr	r3, [r3, #28]
 264              		.loc 1 203 6
 265 0162 012B     		cmp	r3, #1
 266 0164 02D1     		bne	.L9
 204:Drivers/STM32G4xx_HAL_Driver/Src/stm32g4xx_hal_pcd.c ****   {
 205:Drivers/STM32G4xx_HAL_Driver/Src/stm32g4xx_hal_pcd.c ****     (void)HAL_PCDEx_ActivateLPM(hpcd);
 267              		.loc 1 205 11
 268 0166 7868     		ldr	r0, [r7, #4]
 269 0168 FFF7FEFF 		bl	HAL_PCDEx_ActivateLPM
 270              	.L9:
 206:Drivers/STM32G4xx_HAL_Driver/Src/stm32g4xx_hal_pcd.c ****   }
 207:Drivers/STM32G4xx_HAL_Driver/Src/stm32g4xx_hal_pcd.c ****   
 208:Drivers/STM32G4xx_HAL_Driver/Src/stm32g4xx_hal_pcd.c ****   return HAL_OK;
 271              		.loc 1 208 10
 272 016c 0023     		movs	r3, #0
 273              	.L3:
 209:Drivers/STM32G4xx_HAL_Driver/Src/stm32g4xx_hal_pcd.c **** }
 274              		.loc 1 209 1
 275 016e 1846     		mov	r0, r3
 276 0170 1437     		adds	r7, r7, #20
 277              	.LCFI3:
 278              		.cfi_def_cfa_offset 20
 279 0172 BD46     		mov	sp, r7
 280              	.LCFI4:
 281              		.cfi_def_cfa_register 13
 282              		@ sp needed
 283 0174 F0BD     		pop	{r4, r5, r6, r7, pc}
 284              		.cfi_endproc
 285              	.LFE325:
 287              		.section	.text.HAL_PCD_DeInit,"ax",%progbits
 288              		.align	1
 289              		.global	HAL_PCD_DeInit
 290              		.syntax unified
 291              		.thumb
 292              		.thumb_func
 293              		.fpu fpv4-sp-d16
 295              	HAL_PCD_DeInit:
 296              	.LFB326:
 210:Drivers/STM32G4xx_HAL_Driver/Src/stm32g4xx_hal_pcd.c **** 
 211:Drivers/STM32G4xx_HAL_Driver/Src/stm32g4xx_hal_pcd.c **** /**
 212:Drivers/STM32G4xx_HAL_Driver/Src/stm32g4xx_hal_pcd.c ****   * @brief  DeInitializes the PCD peripheral.
ARM GAS  /tmp/cc4MD8jd.s 			page 10


 213:Drivers/STM32G4xx_HAL_Driver/Src/stm32g4xx_hal_pcd.c ****   * @param  hpcd PCD handle
 214:Drivers/STM32G4xx_HAL_Driver/Src/stm32g4xx_hal_pcd.c ****   * @retval HAL status
 215:Drivers/STM32G4xx_HAL_Driver/Src/stm32g4xx_hal_pcd.c ****   */
 216:Drivers/STM32G4xx_HAL_Driver/Src/stm32g4xx_hal_pcd.c **** HAL_StatusTypeDef HAL_PCD_DeInit(PCD_HandleTypeDef *hpcd)
 217:Drivers/STM32G4xx_HAL_Driver/Src/stm32g4xx_hal_pcd.c **** {
 297              		.loc 1 217 1
 298              		.cfi_startproc
 299              		@ args = 0, pretend = 0, frame = 8
 300              		@ frame_needed = 1, uses_anonymous_args = 0
 301 0000 80B5     		push	{r7, lr}
 302              	.LCFI5:
 303              		.cfi_def_cfa_offset 8
 304              		.cfi_offset 7, -8
 305              		.cfi_offset 14, -4
 306 0002 82B0     		sub	sp, sp, #8
 307              	.LCFI6:
 308              		.cfi_def_cfa_offset 16
 309 0004 00AF     		add	r7, sp, #0
 310              	.LCFI7:
 311              		.cfi_def_cfa_register 7
 312 0006 7860     		str	r0, [r7, #4]
 218:Drivers/STM32G4xx_HAL_Driver/Src/stm32g4xx_hal_pcd.c ****   /* Check the PCD handle allocation */
 219:Drivers/STM32G4xx_HAL_Driver/Src/stm32g4xx_hal_pcd.c ****   if (hpcd == NULL)
 313              		.loc 1 219 6
 314 0008 7B68     		ldr	r3, [r7, #4]
 315 000a 002B     		cmp	r3, #0
 316 000c 01D1     		bne	.L11
 220:Drivers/STM32G4xx_HAL_Driver/Src/stm32g4xx_hal_pcd.c ****   {
 221:Drivers/STM32G4xx_HAL_Driver/Src/stm32g4xx_hal_pcd.c ****     return HAL_ERROR;
 317              		.loc 1 221 12
 318 000e 0123     		movs	r3, #1
 319 0010 0EE0     		b	.L12
 320              	.L11:
 222:Drivers/STM32G4xx_HAL_Driver/Src/stm32g4xx_hal_pcd.c ****   }
 223:Drivers/STM32G4xx_HAL_Driver/Src/stm32g4xx_hal_pcd.c **** 
 224:Drivers/STM32G4xx_HAL_Driver/Src/stm32g4xx_hal_pcd.c ****   hpcd->State = HAL_PCD_STATE_BUSY;
 321              		.loc 1 224 15
 322 0012 7B68     		ldr	r3, [r7, #4]
 323 0014 0322     		movs	r2, #3
 324 0016 83F82922 		strb	r2, [r3, #553]
 225:Drivers/STM32G4xx_HAL_Driver/Src/stm32g4xx_hal_pcd.c **** 
 226:Drivers/STM32G4xx_HAL_Driver/Src/stm32g4xx_hal_pcd.c ****   /* Stop Device */
 227:Drivers/STM32G4xx_HAL_Driver/Src/stm32g4xx_hal_pcd.c ****   (void)HAL_PCD_Stop(hpcd);
 325              		.loc 1 227 9
 326 001a 7868     		ldr	r0, [r7, #4]
 327 001c FFF7FEFF 		bl	HAL_PCD_Stop
 228:Drivers/STM32G4xx_HAL_Driver/Src/stm32g4xx_hal_pcd.c **** 
 229:Drivers/STM32G4xx_HAL_Driver/Src/stm32g4xx_hal_pcd.c **** #if (USE_HAL_PCD_REGISTER_CALLBACKS == 1U)
 230:Drivers/STM32G4xx_HAL_Driver/Src/stm32g4xx_hal_pcd.c ****   if (hpcd->MspDeInitCallback == NULL)
 231:Drivers/STM32G4xx_HAL_Driver/Src/stm32g4xx_hal_pcd.c ****   {
 232:Drivers/STM32G4xx_HAL_Driver/Src/stm32g4xx_hal_pcd.c ****     hpcd->MspDeInitCallback = HAL_PCD_MspDeInit; /* Legacy weak MspDeInit  */
 233:Drivers/STM32G4xx_HAL_Driver/Src/stm32g4xx_hal_pcd.c ****   }
 234:Drivers/STM32G4xx_HAL_Driver/Src/stm32g4xx_hal_pcd.c **** 
 235:Drivers/STM32G4xx_HAL_Driver/Src/stm32g4xx_hal_pcd.c ****   /* DeInit the low level hardware */
 236:Drivers/STM32G4xx_HAL_Driver/Src/stm32g4xx_hal_pcd.c ****   hpcd->MspDeInitCallback(hpcd);
 237:Drivers/STM32G4xx_HAL_Driver/Src/stm32g4xx_hal_pcd.c **** #else
 238:Drivers/STM32G4xx_HAL_Driver/Src/stm32g4xx_hal_pcd.c ****   /* DeInit the low level hardware: CLOCK, NVIC.*/
ARM GAS  /tmp/cc4MD8jd.s 			page 11


 239:Drivers/STM32G4xx_HAL_Driver/Src/stm32g4xx_hal_pcd.c ****   HAL_PCD_MspDeInit(hpcd);
 328              		.loc 1 239 3
 329 0020 7868     		ldr	r0, [r7, #4]
 330 0022 FFF7FEFF 		bl	HAL_PCD_MspDeInit
 240:Drivers/STM32G4xx_HAL_Driver/Src/stm32g4xx_hal_pcd.c **** #endif /* USE_HAL_PCD_REGISTER_CALLBACKS */
 241:Drivers/STM32G4xx_HAL_Driver/Src/stm32g4xx_hal_pcd.c **** 
 242:Drivers/STM32G4xx_HAL_Driver/Src/stm32g4xx_hal_pcd.c ****   hpcd->State = HAL_PCD_STATE_RESET;
 331              		.loc 1 242 15
 332 0026 7B68     		ldr	r3, [r7, #4]
 333 0028 0022     		movs	r2, #0
 334 002a 83F82922 		strb	r2, [r3, #553]
 243:Drivers/STM32G4xx_HAL_Driver/Src/stm32g4xx_hal_pcd.c **** 
 244:Drivers/STM32G4xx_HAL_Driver/Src/stm32g4xx_hal_pcd.c ****   return HAL_OK;
 335              		.loc 1 244 10
 336 002e 0023     		movs	r3, #0
 337              	.L12:
 245:Drivers/STM32G4xx_HAL_Driver/Src/stm32g4xx_hal_pcd.c **** }
 338              		.loc 1 245 1
 339 0030 1846     		mov	r0, r3
 340 0032 0837     		adds	r7, r7, #8
 341              	.LCFI8:
 342              		.cfi_def_cfa_offset 8
 343 0034 BD46     		mov	sp, r7
 344              	.LCFI9:
 345              		.cfi_def_cfa_register 13
 346              		@ sp needed
 347 0036 80BD     		pop	{r7, pc}
 348              		.cfi_endproc
 349              	.LFE326:
 351              		.section	.text.HAL_PCD_MspInit,"ax",%progbits
 352              		.align	1
 353              		.weak	HAL_PCD_MspInit
 354              		.syntax unified
 355              		.thumb
 356              		.thumb_func
 357              		.fpu fpv4-sp-d16
 359              	HAL_PCD_MspInit:
 360              	.LFB327:
 246:Drivers/STM32G4xx_HAL_Driver/Src/stm32g4xx_hal_pcd.c **** 
 247:Drivers/STM32G4xx_HAL_Driver/Src/stm32g4xx_hal_pcd.c **** /**
 248:Drivers/STM32G4xx_HAL_Driver/Src/stm32g4xx_hal_pcd.c ****   * @brief  Initializes the PCD MSP.
 249:Drivers/STM32G4xx_HAL_Driver/Src/stm32g4xx_hal_pcd.c ****   * @param  hpcd PCD handle
 250:Drivers/STM32G4xx_HAL_Driver/Src/stm32g4xx_hal_pcd.c ****   * @retval None
 251:Drivers/STM32G4xx_HAL_Driver/Src/stm32g4xx_hal_pcd.c ****   */
 252:Drivers/STM32G4xx_HAL_Driver/Src/stm32g4xx_hal_pcd.c **** __weak void HAL_PCD_MspInit(PCD_HandleTypeDef *hpcd)
 253:Drivers/STM32G4xx_HAL_Driver/Src/stm32g4xx_hal_pcd.c **** {
 361              		.loc 1 253 1
 362              		.cfi_startproc
 363              		@ args = 0, pretend = 0, frame = 8
 364              		@ frame_needed = 1, uses_anonymous_args = 0
 365              		@ link register save eliminated.
 366 0000 80B4     		push	{r7}
 367              	.LCFI10:
 368              		.cfi_def_cfa_offset 4
 369              		.cfi_offset 7, -4
 370 0002 83B0     		sub	sp, sp, #12
 371              	.LCFI11:
ARM GAS  /tmp/cc4MD8jd.s 			page 12


 372              		.cfi_def_cfa_offset 16
 373 0004 00AF     		add	r7, sp, #0
 374              	.LCFI12:
 375              		.cfi_def_cfa_register 7
 376 0006 7860     		str	r0, [r7, #4]
 254:Drivers/STM32G4xx_HAL_Driver/Src/stm32g4xx_hal_pcd.c ****   /* Prevent unused argument(s) compilation warning */
 255:Drivers/STM32G4xx_HAL_Driver/Src/stm32g4xx_hal_pcd.c ****   UNUSED(hpcd);
 256:Drivers/STM32G4xx_HAL_Driver/Src/stm32g4xx_hal_pcd.c **** 
 257:Drivers/STM32G4xx_HAL_Driver/Src/stm32g4xx_hal_pcd.c ****   /* NOTE : This function should not be modified, when the callback is needed,
 258:Drivers/STM32G4xx_HAL_Driver/Src/stm32g4xx_hal_pcd.c ****             the HAL_PCD_MspInit could be implemented in the user file
 259:Drivers/STM32G4xx_HAL_Driver/Src/stm32g4xx_hal_pcd.c ****    */
 260:Drivers/STM32G4xx_HAL_Driver/Src/stm32g4xx_hal_pcd.c **** }
 377              		.loc 1 260 1
 378 0008 00BF     		nop
 379 000a 0C37     		adds	r7, r7, #12
 380              	.LCFI13:
 381              		.cfi_def_cfa_offset 4
 382 000c BD46     		mov	sp, r7
 383              	.LCFI14:
 384              		.cfi_def_cfa_register 13
 385              		@ sp needed
 386 000e 5DF8047B 		ldr	r7, [sp], #4
 387              	.LCFI15:
 388              		.cfi_restore 7
 389              		.cfi_def_cfa_offset 0
 390 0012 7047     		bx	lr
 391              		.cfi_endproc
 392              	.LFE327:
 394              		.section	.text.HAL_PCD_MspDeInit,"ax",%progbits
 395              		.align	1
 396              		.weak	HAL_PCD_MspDeInit
 397              		.syntax unified
 398              		.thumb
 399              		.thumb_func
 400              		.fpu fpv4-sp-d16
 402              	HAL_PCD_MspDeInit:
 403              	.LFB328:
 261:Drivers/STM32G4xx_HAL_Driver/Src/stm32g4xx_hal_pcd.c **** 
 262:Drivers/STM32G4xx_HAL_Driver/Src/stm32g4xx_hal_pcd.c **** /**
 263:Drivers/STM32G4xx_HAL_Driver/Src/stm32g4xx_hal_pcd.c ****   * @brief  DeInitializes PCD MSP.
 264:Drivers/STM32G4xx_HAL_Driver/Src/stm32g4xx_hal_pcd.c ****   * @param  hpcd PCD handle
 265:Drivers/STM32G4xx_HAL_Driver/Src/stm32g4xx_hal_pcd.c ****   * @retval None
 266:Drivers/STM32G4xx_HAL_Driver/Src/stm32g4xx_hal_pcd.c ****   */
 267:Drivers/STM32G4xx_HAL_Driver/Src/stm32g4xx_hal_pcd.c **** __weak void HAL_PCD_MspDeInit(PCD_HandleTypeDef *hpcd)
 268:Drivers/STM32G4xx_HAL_Driver/Src/stm32g4xx_hal_pcd.c **** {
 404              		.loc 1 268 1
 405              		.cfi_startproc
 406              		@ args = 0, pretend = 0, frame = 8
 407              		@ frame_needed = 1, uses_anonymous_args = 0
 408              		@ link register save eliminated.
 409 0000 80B4     		push	{r7}
 410              	.LCFI16:
 411              		.cfi_def_cfa_offset 4
 412              		.cfi_offset 7, -4
 413 0002 83B0     		sub	sp, sp, #12
 414              	.LCFI17:
 415              		.cfi_def_cfa_offset 16
ARM GAS  /tmp/cc4MD8jd.s 			page 13


 416 0004 00AF     		add	r7, sp, #0
 417              	.LCFI18:
 418              		.cfi_def_cfa_register 7
 419 0006 7860     		str	r0, [r7, #4]
 269:Drivers/STM32G4xx_HAL_Driver/Src/stm32g4xx_hal_pcd.c ****   /* Prevent unused argument(s) compilation warning */
 270:Drivers/STM32G4xx_HAL_Driver/Src/stm32g4xx_hal_pcd.c ****   UNUSED(hpcd);
 271:Drivers/STM32G4xx_HAL_Driver/Src/stm32g4xx_hal_pcd.c **** 
 272:Drivers/STM32G4xx_HAL_Driver/Src/stm32g4xx_hal_pcd.c ****   /* NOTE : This function should not be modified, when the callback is needed,
 273:Drivers/STM32G4xx_HAL_Driver/Src/stm32g4xx_hal_pcd.c ****             the HAL_PCD_MspDeInit could be implemented in the user file
 274:Drivers/STM32G4xx_HAL_Driver/Src/stm32g4xx_hal_pcd.c ****    */
 275:Drivers/STM32G4xx_HAL_Driver/Src/stm32g4xx_hal_pcd.c **** }
 420              		.loc 1 275 1
 421 0008 00BF     		nop
 422 000a 0C37     		adds	r7, r7, #12
 423              	.LCFI19:
 424              		.cfi_def_cfa_offset 4
 425 000c BD46     		mov	sp, r7
 426              	.LCFI20:
 427              		.cfi_def_cfa_register 13
 428              		@ sp needed
 429 000e 5DF8047B 		ldr	r7, [sp], #4
 430              	.LCFI21:
 431              		.cfi_restore 7
 432              		.cfi_def_cfa_offset 0
 433 0012 7047     		bx	lr
 434              		.cfi_endproc
 435              	.LFE328:
 437              		.section	.text.HAL_PCD_Start,"ax",%progbits
 438              		.align	1
 439              		.global	HAL_PCD_Start
 440              		.syntax unified
 441              		.thumb
 442              		.thumb_func
 443              		.fpu fpv4-sp-d16
 445              	HAL_PCD_Start:
 446              	.LFB329:
 276:Drivers/STM32G4xx_HAL_Driver/Src/stm32g4xx_hal_pcd.c **** 
 277:Drivers/STM32G4xx_HAL_Driver/Src/stm32g4xx_hal_pcd.c **** #if (USE_HAL_PCD_REGISTER_CALLBACKS == 1U)
 278:Drivers/STM32G4xx_HAL_Driver/Src/stm32g4xx_hal_pcd.c **** /**
 279:Drivers/STM32G4xx_HAL_Driver/Src/stm32g4xx_hal_pcd.c ****   * @brief  Register a User USB PCD Callback
 280:Drivers/STM32G4xx_HAL_Driver/Src/stm32g4xx_hal_pcd.c ****   *         To be used instead of the weak predefined callback
 281:Drivers/STM32G4xx_HAL_Driver/Src/stm32g4xx_hal_pcd.c ****   * @param  hpcd USB PCD handle
 282:Drivers/STM32G4xx_HAL_Driver/Src/stm32g4xx_hal_pcd.c ****   * @param  CallbackID ID of the callback to be registered
 283:Drivers/STM32G4xx_HAL_Driver/Src/stm32g4xx_hal_pcd.c ****   *         This parameter can be one of the following values:
 284:Drivers/STM32G4xx_HAL_Driver/Src/stm32g4xx_hal_pcd.c ****   *          @arg @ref HAL_PCD_SOF_CB_ID USB PCD SOF callback ID
 285:Drivers/STM32G4xx_HAL_Driver/Src/stm32g4xx_hal_pcd.c ****   *          @arg @ref HAL_PCD_SETUPSTAGE_CB_ID USB PCD Setup callback ID
 286:Drivers/STM32G4xx_HAL_Driver/Src/stm32g4xx_hal_pcd.c ****   *          @arg @ref HAL_PCD_RESET_CB_ID USB PCD Reset callback ID
 287:Drivers/STM32G4xx_HAL_Driver/Src/stm32g4xx_hal_pcd.c ****   *          @arg @ref HAL_PCD_SUSPEND_CB_ID USB PCD Suspend callback ID
 288:Drivers/STM32G4xx_HAL_Driver/Src/stm32g4xx_hal_pcd.c ****   *          @arg @ref HAL_PCD_RESUME_CB_ID USB PCD Resume callback ID
 289:Drivers/STM32G4xx_HAL_Driver/Src/stm32g4xx_hal_pcd.c ****   *          @arg @ref HAL_PCD_CONNECT_CB_ID USB PCD Connect callback ID
 290:Drivers/STM32G4xx_HAL_Driver/Src/stm32g4xx_hal_pcd.c ****   *          @arg @ref HAL_PCD_DISCONNECT_CB_ID OTG PCD Disconnect callback ID
 291:Drivers/STM32G4xx_HAL_Driver/Src/stm32g4xx_hal_pcd.c ****   *          @arg @ref HAL_PCD_MSPINIT_CB_ID MspDeInit callback ID
 292:Drivers/STM32G4xx_HAL_Driver/Src/stm32g4xx_hal_pcd.c ****   *          @arg @ref HAL_PCD_MSPDEINIT_CB_ID MspDeInit callback ID
 293:Drivers/STM32G4xx_HAL_Driver/Src/stm32g4xx_hal_pcd.c ****   * @param  pCallback pointer to the Callback function
 294:Drivers/STM32G4xx_HAL_Driver/Src/stm32g4xx_hal_pcd.c ****   * @retval HAL status
 295:Drivers/STM32G4xx_HAL_Driver/Src/stm32g4xx_hal_pcd.c ****   */
 296:Drivers/STM32G4xx_HAL_Driver/Src/stm32g4xx_hal_pcd.c **** HAL_StatusTypeDef HAL_PCD_RegisterCallback(PCD_HandleTypeDef *hpcd, HAL_PCD_CallbackIDTypeDef Callb
ARM GAS  /tmp/cc4MD8jd.s 			page 14


 297:Drivers/STM32G4xx_HAL_Driver/Src/stm32g4xx_hal_pcd.c **** {
 298:Drivers/STM32G4xx_HAL_Driver/Src/stm32g4xx_hal_pcd.c ****   HAL_StatusTypeDef status = HAL_OK;
 299:Drivers/STM32G4xx_HAL_Driver/Src/stm32g4xx_hal_pcd.c **** 
 300:Drivers/STM32G4xx_HAL_Driver/Src/stm32g4xx_hal_pcd.c ****   if (pCallback == NULL)
 301:Drivers/STM32G4xx_HAL_Driver/Src/stm32g4xx_hal_pcd.c ****   {
 302:Drivers/STM32G4xx_HAL_Driver/Src/stm32g4xx_hal_pcd.c ****     /* Update the error code */
 303:Drivers/STM32G4xx_HAL_Driver/Src/stm32g4xx_hal_pcd.c ****     hpcd->ErrorCode |= HAL_PCD_ERROR_INVALID_CALLBACK;
 304:Drivers/STM32G4xx_HAL_Driver/Src/stm32g4xx_hal_pcd.c ****     return HAL_ERROR;
 305:Drivers/STM32G4xx_HAL_Driver/Src/stm32g4xx_hal_pcd.c ****   }
 306:Drivers/STM32G4xx_HAL_Driver/Src/stm32g4xx_hal_pcd.c ****   /* Process locked */
 307:Drivers/STM32G4xx_HAL_Driver/Src/stm32g4xx_hal_pcd.c ****   __HAL_LOCK(hpcd);
 308:Drivers/STM32G4xx_HAL_Driver/Src/stm32g4xx_hal_pcd.c **** 
 309:Drivers/STM32G4xx_HAL_Driver/Src/stm32g4xx_hal_pcd.c ****   if (hpcd->State == HAL_PCD_STATE_READY)
 310:Drivers/STM32G4xx_HAL_Driver/Src/stm32g4xx_hal_pcd.c ****   {
 311:Drivers/STM32G4xx_HAL_Driver/Src/stm32g4xx_hal_pcd.c ****     switch (CallbackID)
 312:Drivers/STM32G4xx_HAL_Driver/Src/stm32g4xx_hal_pcd.c ****     {
 313:Drivers/STM32G4xx_HAL_Driver/Src/stm32g4xx_hal_pcd.c ****       case HAL_PCD_SOF_CB_ID :
 314:Drivers/STM32G4xx_HAL_Driver/Src/stm32g4xx_hal_pcd.c ****         hpcd->SOFCallback = pCallback;
 315:Drivers/STM32G4xx_HAL_Driver/Src/stm32g4xx_hal_pcd.c ****         break;
 316:Drivers/STM32G4xx_HAL_Driver/Src/stm32g4xx_hal_pcd.c **** 
 317:Drivers/STM32G4xx_HAL_Driver/Src/stm32g4xx_hal_pcd.c ****       case HAL_PCD_SETUPSTAGE_CB_ID :
 318:Drivers/STM32G4xx_HAL_Driver/Src/stm32g4xx_hal_pcd.c ****         hpcd->SetupStageCallback = pCallback;
 319:Drivers/STM32G4xx_HAL_Driver/Src/stm32g4xx_hal_pcd.c ****         break;
 320:Drivers/STM32G4xx_HAL_Driver/Src/stm32g4xx_hal_pcd.c **** 
 321:Drivers/STM32G4xx_HAL_Driver/Src/stm32g4xx_hal_pcd.c ****       case HAL_PCD_RESET_CB_ID :
 322:Drivers/STM32G4xx_HAL_Driver/Src/stm32g4xx_hal_pcd.c ****         hpcd->ResetCallback = pCallback;
 323:Drivers/STM32G4xx_HAL_Driver/Src/stm32g4xx_hal_pcd.c ****         break;
 324:Drivers/STM32G4xx_HAL_Driver/Src/stm32g4xx_hal_pcd.c **** 
 325:Drivers/STM32G4xx_HAL_Driver/Src/stm32g4xx_hal_pcd.c ****       case HAL_PCD_SUSPEND_CB_ID :
 326:Drivers/STM32G4xx_HAL_Driver/Src/stm32g4xx_hal_pcd.c ****         hpcd->SuspendCallback = pCallback;
 327:Drivers/STM32G4xx_HAL_Driver/Src/stm32g4xx_hal_pcd.c ****         break;
 328:Drivers/STM32G4xx_HAL_Driver/Src/stm32g4xx_hal_pcd.c **** 
 329:Drivers/STM32G4xx_HAL_Driver/Src/stm32g4xx_hal_pcd.c ****       case HAL_PCD_RESUME_CB_ID :
 330:Drivers/STM32G4xx_HAL_Driver/Src/stm32g4xx_hal_pcd.c ****         hpcd->ResumeCallback = pCallback;
 331:Drivers/STM32G4xx_HAL_Driver/Src/stm32g4xx_hal_pcd.c ****         break;
 332:Drivers/STM32G4xx_HAL_Driver/Src/stm32g4xx_hal_pcd.c **** 
 333:Drivers/STM32G4xx_HAL_Driver/Src/stm32g4xx_hal_pcd.c ****       case HAL_PCD_CONNECT_CB_ID :
 334:Drivers/STM32G4xx_HAL_Driver/Src/stm32g4xx_hal_pcd.c ****         hpcd->ConnectCallback = pCallback;
 335:Drivers/STM32G4xx_HAL_Driver/Src/stm32g4xx_hal_pcd.c ****         break;
 336:Drivers/STM32G4xx_HAL_Driver/Src/stm32g4xx_hal_pcd.c **** 
 337:Drivers/STM32G4xx_HAL_Driver/Src/stm32g4xx_hal_pcd.c ****       case HAL_PCD_DISCONNECT_CB_ID :
 338:Drivers/STM32G4xx_HAL_Driver/Src/stm32g4xx_hal_pcd.c ****         hpcd->DisconnectCallback = pCallback;
 339:Drivers/STM32G4xx_HAL_Driver/Src/stm32g4xx_hal_pcd.c ****         break;
 340:Drivers/STM32G4xx_HAL_Driver/Src/stm32g4xx_hal_pcd.c **** 
 341:Drivers/STM32G4xx_HAL_Driver/Src/stm32g4xx_hal_pcd.c ****       case HAL_PCD_MSPINIT_CB_ID :
 342:Drivers/STM32G4xx_HAL_Driver/Src/stm32g4xx_hal_pcd.c ****         hpcd->MspInitCallback = pCallback;
 343:Drivers/STM32G4xx_HAL_Driver/Src/stm32g4xx_hal_pcd.c ****         break;
 344:Drivers/STM32G4xx_HAL_Driver/Src/stm32g4xx_hal_pcd.c **** 
 345:Drivers/STM32G4xx_HAL_Driver/Src/stm32g4xx_hal_pcd.c ****       case HAL_PCD_MSPDEINIT_CB_ID :
 346:Drivers/STM32G4xx_HAL_Driver/Src/stm32g4xx_hal_pcd.c ****         hpcd->MspDeInitCallback = pCallback;
 347:Drivers/STM32G4xx_HAL_Driver/Src/stm32g4xx_hal_pcd.c ****         break;
 348:Drivers/STM32G4xx_HAL_Driver/Src/stm32g4xx_hal_pcd.c **** 
 349:Drivers/STM32G4xx_HAL_Driver/Src/stm32g4xx_hal_pcd.c ****       default :
 350:Drivers/STM32G4xx_HAL_Driver/Src/stm32g4xx_hal_pcd.c ****         /* Update the error code */
 351:Drivers/STM32G4xx_HAL_Driver/Src/stm32g4xx_hal_pcd.c ****         hpcd->ErrorCode |= HAL_PCD_ERROR_INVALID_CALLBACK;
 352:Drivers/STM32G4xx_HAL_Driver/Src/stm32g4xx_hal_pcd.c ****         /* Return error status */
 353:Drivers/STM32G4xx_HAL_Driver/Src/stm32g4xx_hal_pcd.c ****         status =  HAL_ERROR;
ARM GAS  /tmp/cc4MD8jd.s 			page 15


 354:Drivers/STM32G4xx_HAL_Driver/Src/stm32g4xx_hal_pcd.c ****         break;
 355:Drivers/STM32G4xx_HAL_Driver/Src/stm32g4xx_hal_pcd.c ****     }
 356:Drivers/STM32G4xx_HAL_Driver/Src/stm32g4xx_hal_pcd.c ****   }
 357:Drivers/STM32G4xx_HAL_Driver/Src/stm32g4xx_hal_pcd.c ****   else if (hpcd->State == HAL_PCD_STATE_RESET)
 358:Drivers/STM32G4xx_HAL_Driver/Src/stm32g4xx_hal_pcd.c ****   {
 359:Drivers/STM32G4xx_HAL_Driver/Src/stm32g4xx_hal_pcd.c ****     switch (CallbackID)
 360:Drivers/STM32G4xx_HAL_Driver/Src/stm32g4xx_hal_pcd.c ****     {
 361:Drivers/STM32G4xx_HAL_Driver/Src/stm32g4xx_hal_pcd.c ****       case HAL_PCD_MSPINIT_CB_ID :
 362:Drivers/STM32G4xx_HAL_Driver/Src/stm32g4xx_hal_pcd.c ****         hpcd->MspInitCallback = pCallback;
 363:Drivers/STM32G4xx_HAL_Driver/Src/stm32g4xx_hal_pcd.c ****         break;
 364:Drivers/STM32G4xx_HAL_Driver/Src/stm32g4xx_hal_pcd.c **** 
 365:Drivers/STM32G4xx_HAL_Driver/Src/stm32g4xx_hal_pcd.c ****       case HAL_PCD_MSPDEINIT_CB_ID :
 366:Drivers/STM32G4xx_HAL_Driver/Src/stm32g4xx_hal_pcd.c ****         hpcd->MspDeInitCallback = pCallback;
 367:Drivers/STM32G4xx_HAL_Driver/Src/stm32g4xx_hal_pcd.c ****         break;
 368:Drivers/STM32G4xx_HAL_Driver/Src/stm32g4xx_hal_pcd.c **** 
 369:Drivers/STM32G4xx_HAL_Driver/Src/stm32g4xx_hal_pcd.c ****       default :
 370:Drivers/STM32G4xx_HAL_Driver/Src/stm32g4xx_hal_pcd.c ****         /* Update the error code */
 371:Drivers/STM32G4xx_HAL_Driver/Src/stm32g4xx_hal_pcd.c ****         hpcd->ErrorCode |= HAL_PCD_ERROR_INVALID_CALLBACK;
 372:Drivers/STM32G4xx_HAL_Driver/Src/stm32g4xx_hal_pcd.c ****         /* Return error status */
 373:Drivers/STM32G4xx_HAL_Driver/Src/stm32g4xx_hal_pcd.c ****         status =  HAL_ERROR;
 374:Drivers/STM32G4xx_HAL_Driver/Src/stm32g4xx_hal_pcd.c ****         break;
 375:Drivers/STM32G4xx_HAL_Driver/Src/stm32g4xx_hal_pcd.c ****     }
 376:Drivers/STM32G4xx_HAL_Driver/Src/stm32g4xx_hal_pcd.c ****   }
 377:Drivers/STM32G4xx_HAL_Driver/Src/stm32g4xx_hal_pcd.c ****   else
 378:Drivers/STM32G4xx_HAL_Driver/Src/stm32g4xx_hal_pcd.c ****   {
 379:Drivers/STM32G4xx_HAL_Driver/Src/stm32g4xx_hal_pcd.c ****     /* Update the error code */
 380:Drivers/STM32G4xx_HAL_Driver/Src/stm32g4xx_hal_pcd.c ****     hpcd->ErrorCode |= HAL_PCD_ERROR_INVALID_CALLBACK;
 381:Drivers/STM32G4xx_HAL_Driver/Src/stm32g4xx_hal_pcd.c ****     /* Return error status */
 382:Drivers/STM32G4xx_HAL_Driver/Src/stm32g4xx_hal_pcd.c ****     status =  HAL_ERROR;
 383:Drivers/STM32G4xx_HAL_Driver/Src/stm32g4xx_hal_pcd.c ****   }
 384:Drivers/STM32G4xx_HAL_Driver/Src/stm32g4xx_hal_pcd.c **** 
 385:Drivers/STM32G4xx_HAL_Driver/Src/stm32g4xx_hal_pcd.c ****   /* Release Lock */
 386:Drivers/STM32G4xx_HAL_Driver/Src/stm32g4xx_hal_pcd.c ****   __HAL_UNLOCK(hpcd);
 387:Drivers/STM32G4xx_HAL_Driver/Src/stm32g4xx_hal_pcd.c ****   return status;
 388:Drivers/STM32G4xx_HAL_Driver/Src/stm32g4xx_hal_pcd.c **** }
 389:Drivers/STM32G4xx_HAL_Driver/Src/stm32g4xx_hal_pcd.c **** 
 390:Drivers/STM32G4xx_HAL_Driver/Src/stm32g4xx_hal_pcd.c **** /**
 391:Drivers/STM32G4xx_HAL_Driver/Src/stm32g4xx_hal_pcd.c ****   * @brief  Unregister an USB PCD Callback
 392:Drivers/STM32G4xx_HAL_Driver/Src/stm32g4xx_hal_pcd.c ****   *         USB PCD callabck is redirected to the weak predefined callback
 393:Drivers/STM32G4xx_HAL_Driver/Src/stm32g4xx_hal_pcd.c ****   * @param  hpcd USB PCD handle
 394:Drivers/STM32G4xx_HAL_Driver/Src/stm32g4xx_hal_pcd.c ****   * @param  CallbackID ID of the callback to be unregistered
 395:Drivers/STM32G4xx_HAL_Driver/Src/stm32g4xx_hal_pcd.c ****   *         This parameter can be one of the following values:
 396:Drivers/STM32G4xx_HAL_Driver/Src/stm32g4xx_hal_pcd.c ****   *          @arg @ref HAL_PCD_SOF_CB_ID USB PCD SOF callback ID
 397:Drivers/STM32G4xx_HAL_Driver/Src/stm32g4xx_hal_pcd.c ****   *          @arg @ref HAL_PCD_SETUPSTAGE_CB_ID USB PCD Setup callback ID
 398:Drivers/STM32G4xx_HAL_Driver/Src/stm32g4xx_hal_pcd.c ****   *          @arg @ref HAL_PCD_RESET_CB_ID USB PCD Reset callback ID
 399:Drivers/STM32G4xx_HAL_Driver/Src/stm32g4xx_hal_pcd.c ****   *          @arg @ref HAL_PCD_SUSPEND_CB_ID USB PCD Suspend callback ID
 400:Drivers/STM32G4xx_HAL_Driver/Src/stm32g4xx_hal_pcd.c ****   *          @arg @ref HAL_PCD_RESUME_CB_ID USB PCD Resume callback ID
 401:Drivers/STM32G4xx_HAL_Driver/Src/stm32g4xx_hal_pcd.c ****   *          @arg @ref HAL_PCD_CONNECT_CB_ID USB PCD Connect callback ID
 402:Drivers/STM32G4xx_HAL_Driver/Src/stm32g4xx_hal_pcd.c ****   *          @arg @ref HAL_PCD_DISCONNECT_CB_ID OTG PCD Disconnect callback ID
 403:Drivers/STM32G4xx_HAL_Driver/Src/stm32g4xx_hal_pcd.c ****   *          @arg @ref HAL_PCD_MSPINIT_CB_ID MspDeInit callback ID
 404:Drivers/STM32G4xx_HAL_Driver/Src/stm32g4xx_hal_pcd.c ****   *          @arg @ref HAL_PCD_MSPDEINIT_CB_ID MspDeInit callback ID
 405:Drivers/STM32G4xx_HAL_Driver/Src/stm32g4xx_hal_pcd.c ****   * @retval HAL status
 406:Drivers/STM32G4xx_HAL_Driver/Src/stm32g4xx_hal_pcd.c ****   */
 407:Drivers/STM32G4xx_HAL_Driver/Src/stm32g4xx_hal_pcd.c **** HAL_StatusTypeDef HAL_PCD_UnRegisterCallback(PCD_HandleTypeDef *hpcd, HAL_PCD_CallbackIDTypeDef Cal
 408:Drivers/STM32G4xx_HAL_Driver/Src/stm32g4xx_hal_pcd.c **** {
 409:Drivers/STM32G4xx_HAL_Driver/Src/stm32g4xx_hal_pcd.c ****   HAL_StatusTypeDef status = HAL_OK;
 410:Drivers/STM32G4xx_HAL_Driver/Src/stm32g4xx_hal_pcd.c **** 
ARM GAS  /tmp/cc4MD8jd.s 			page 16


 411:Drivers/STM32G4xx_HAL_Driver/Src/stm32g4xx_hal_pcd.c ****   /* Process locked */
 412:Drivers/STM32G4xx_HAL_Driver/Src/stm32g4xx_hal_pcd.c ****   __HAL_LOCK(hpcd);
 413:Drivers/STM32G4xx_HAL_Driver/Src/stm32g4xx_hal_pcd.c **** 
 414:Drivers/STM32G4xx_HAL_Driver/Src/stm32g4xx_hal_pcd.c ****   /* Setup Legacy weak Callbacks  */
 415:Drivers/STM32G4xx_HAL_Driver/Src/stm32g4xx_hal_pcd.c ****   if (hpcd->State == HAL_PCD_STATE_READY)
 416:Drivers/STM32G4xx_HAL_Driver/Src/stm32g4xx_hal_pcd.c ****   {
 417:Drivers/STM32G4xx_HAL_Driver/Src/stm32g4xx_hal_pcd.c ****     switch (CallbackID)
 418:Drivers/STM32G4xx_HAL_Driver/Src/stm32g4xx_hal_pcd.c ****     {
 419:Drivers/STM32G4xx_HAL_Driver/Src/stm32g4xx_hal_pcd.c ****       case HAL_PCD_SOF_CB_ID :
 420:Drivers/STM32G4xx_HAL_Driver/Src/stm32g4xx_hal_pcd.c ****         hpcd->SOFCallback = HAL_PCD_SOFCallback;
 421:Drivers/STM32G4xx_HAL_Driver/Src/stm32g4xx_hal_pcd.c ****         break;
 422:Drivers/STM32G4xx_HAL_Driver/Src/stm32g4xx_hal_pcd.c **** 
 423:Drivers/STM32G4xx_HAL_Driver/Src/stm32g4xx_hal_pcd.c ****       case HAL_PCD_SETUPSTAGE_CB_ID :
 424:Drivers/STM32G4xx_HAL_Driver/Src/stm32g4xx_hal_pcd.c ****         hpcd->SetupStageCallback = HAL_PCD_SetupStageCallback;
 425:Drivers/STM32G4xx_HAL_Driver/Src/stm32g4xx_hal_pcd.c ****         break;
 426:Drivers/STM32G4xx_HAL_Driver/Src/stm32g4xx_hal_pcd.c **** 
 427:Drivers/STM32G4xx_HAL_Driver/Src/stm32g4xx_hal_pcd.c ****       case HAL_PCD_RESET_CB_ID :
 428:Drivers/STM32G4xx_HAL_Driver/Src/stm32g4xx_hal_pcd.c ****         hpcd->ResetCallback = HAL_PCD_ResetCallback;
 429:Drivers/STM32G4xx_HAL_Driver/Src/stm32g4xx_hal_pcd.c ****         break;
 430:Drivers/STM32G4xx_HAL_Driver/Src/stm32g4xx_hal_pcd.c **** 
 431:Drivers/STM32G4xx_HAL_Driver/Src/stm32g4xx_hal_pcd.c ****       case HAL_PCD_SUSPEND_CB_ID :
 432:Drivers/STM32G4xx_HAL_Driver/Src/stm32g4xx_hal_pcd.c ****         hpcd->SuspendCallback = HAL_PCD_SuspendCallback;
 433:Drivers/STM32G4xx_HAL_Driver/Src/stm32g4xx_hal_pcd.c ****         break;
 434:Drivers/STM32G4xx_HAL_Driver/Src/stm32g4xx_hal_pcd.c **** 
 435:Drivers/STM32G4xx_HAL_Driver/Src/stm32g4xx_hal_pcd.c ****       case HAL_PCD_RESUME_CB_ID :
 436:Drivers/STM32G4xx_HAL_Driver/Src/stm32g4xx_hal_pcd.c ****         hpcd->ResumeCallback = HAL_PCD_ResumeCallback;
 437:Drivers/STM32G4xx_HAL_Driver/Src/stm32g4xx_hal_pcd.c ****         break;
 438:Drivers/STM32G4xx_HAL_Driver/Src/stm32g4xx_hal_pcd.c **** 
 439:Drivers/STM32G4xx_HAL_Driver/Src/stm32g4xx_hal_pcd.c ****       case HAL_PCD_CONNECT_CB_ID :
 440:Drivers/STM32G4xx_HAL_Driver/Src/stm32g4xx_hal_pcd.c ****         hpcd->ConnectCallback = HAL_PCD_ConnectCallback;
 441:Drivers/STM32G4xx_HAL_Driver/Src/stm32g4xx_hal_pcd.c ****         break;
 442:Drivers/STM32G4xx_HAL_Driver/Src/stm32g4xx_hal_pcd.c **** 
 443:Drivers/STM32G4xx_HAL_Driver/Src/stm32g4xx_hal_pcd.c ****       case HAL_PCD_DISCONNECT_CB_ID :
 444:Drivers/STM32G4xx_HAL_Driver/Src/stm32g4xx_hal_pcd.c ****         hpcd->DisconnectCallback = HAL_PCD_DisconnectCallback;
 445:Drivers/STM32G4xx_HAL_Driver/Src/stm32g4xx_hal_pcd.c ****         break;
 446:Drivers/STM32G4xx_HAL_Driver/Src/stm32g4xx_hal_pcd.c **** 
 447:Drivers/STM32G4xx_HAL_Driver/Src/stm32g4xx_hal_pcd.c ****       case HAL_PCD_MSPINIT_CB_ID :
 448:Drivers/STM32G4xx_HAL_Driver/Src/stm32g4xx_hal_pcd.c ****         hpcd->MspInitCallback = HAL_PCD_MspInit;
 449:Drivers/STM32G4xx_HAL_Driver/Src/stm32g4xx_hal_pcd.c ****         break;
 450:Drivers/STM32G4xx_HAL_Driver/Src/stm32g4xx_hal_pcd.c **** 
 451:Drivers/STM32G4xx_HAL_Driver/Src/stm32g4xx_hal_pcd.c ****       case HAL_PCD_MSPDEINIT_CB_ID :
 452:Drivers/STM32G4xx_HAL_Driver/Src/stm32g4xx_hal_pcd.c ****         hpcd->MspDeInitCallback = HAL_PCD_MspDeInit;
 453:Drivers/STM32G4xx_HAL_Driver/Src/stm32g4xx_hal_pcd.c ****         break;
 454:Drivers/STM32G4xx_HAL_Driver/Src/stm32g4xx_hal_pcd.c **** 
 455:Drivers/STM32G4xx_HAL_Driver/Src/stm32g4xx_hal_pcd.c ****       default :
 456:Drivers/STM32G4xx_HAL_Driver/Src/stm32g4xx_hal_pcd.c ****         /* Update the error code */
 457:Drivers/STM32G4xx_HAL_Driver/Src/stm32g4xx_hal_pcd.c ****         hpcd->ErrorCode |= HAL_PCD_ERROR_INVALID_CALLBACK;
 458:Drivers/STM32G4xx_HAL_Driver/Src/stm32g4xx_hal_pcd.c **** 
 459:Drivers/STM32G4xx_HAL_Driver/Src/stm32g4xx_hal_pcd.c ****         /* Return error status */
 460:Drivers/STM32G4xx_HAL_Driver/Src/stm32g4xx_hal_pcd.c ****         status =  HAL_ERROR;
 461:Drivers/STM32G4xx_HAL_Driver/Src/stm32g4xx_hal_pcd.c ****         break;
 462:Drivers/STM32G4xx_HAL_Driver/Src/stm32g4xx_hal_pcd.c ****     }
 463:Drivers/STM32G4xx_HAL_Driver/Src/stm32g4xx_hal_pcd.c ****   }
 464:Drivers/STM32G4xx_HAL_Driver/Src/stm32g4xx_hal_pcd.c ****   else if (hpcd->State == HAL_PCD_STATE_RESET)
 465:Drivers/STM32G4xx_HAL_Driver/Src/stm32g4xx_hal_pcd.c ****   {
 466:Drivers/STM32G4xx_HAL_Driver/Src/stm32g4xx_hal_pcd.c ****     switch (CallbackID)
 467:Drivers/STM32G4xx_HAL_Driver/Src/stm32g4xx_hal_pcd.c ****     {
ARM GAS  /tmp/cc4MD8jd.s 			page 17


 468:Drivers/STM32G4xx_HAL_Driver/Src/stm32g4xx_hal_pcd.c ****       case HAL_PCD_MSPINIT_CB_ID :
 469:Drivers/STM32G4xx_HAL_Driver/Src/stm32g4xx_hal_pcd.c ****         hpcd->MspInitCallback = HAL_PCD_MspInit;
 470:Drivers/STM32G4xx_HAL_Driver/Src/stm32g4xx_hal_pcd.c ****         break;
 471:Drivers/STM32G4xx_HAL_Driver/Src/stm32g4xx_hal_pcd.c **** 
 472:Drivers/STM32G4xx_HAL_Driver/Src/stm32g4xx_hal_pcd.c ****       case HAL_PCD_MSPDEINIT_CB_ID :
 473:Drivers/STM32G4xx_HAL_Driver/Src/stm32g4xx_hal_pcd.c ****         hpcd->MspDeInitCallback = HAL_PCD_MspDeInit;
 474:Drivers/STM32G4xx_HAL_Driver/Src/stm32g4xx_hal_pcd.c ****         break;
 475:Drivers/STM32G4xx_HAL_Driver/Src/stm32g4xx_hal_pcd.c **** 
 476:Drivers/STM32G4xx_HAL_Driver/Src/stm32g4xx_hal_pcd.c ****       default :
 477:Drivers/STM32G4xx_HAL_Driver/Src/stm32g4xx_hal_pcd.c ****         /* Update the error code */
 478:Drivers/STM32G4xx_HAL_Driver/Src/stm32g4xx_hal_pcd.c ****         hpcd->ErrorCode |= HAL_PCD_ERROR_INVALID_CALLBACK;
 479:Drivers/STM32G4xx_HAL_Driver/Src/stm32g4xx_hal_pcd.c **** 
 480:Drivers/STM32G4xx_HAL_Driver/Src/stm32g4xx_hal_pcd.c ****         /* Return error status */
 481:Drivers/STM32G4xx_HAL_Driver/Src/stm32g4xx_hal_pcd.c ****         status =  HAL_ERROR;
 482:Drivers/STM32G4xx_HAL_Driver/Src/stm32g4xx_hal_pcd.c ****         break;
 483:Drivers/STM32G4xx_HAL_Driver/Src/stm32g4xx_hal_pcd.c ****     }
 484:Drivers/STM32G4xx_HAL_Driver/Src/stm32g4xx_hal_pcd.c ****   }
 485:Drivers/STM32G4xx_HAL_Driver/Src/stm32g4xx_hal_pcd.c ****   else
 486:Drivers/STM32G4xx_HAL_Driver/Src/stm32g4xx_hal_pcd.c ****   {
 487:Drivers/STM32G4xx_HAL_Driver/Src/stm32g4xx_hal_pcd.c ****     /* Update the error code */
 488:Drivers/STM32G4xx_HAL_Driver/Src/stm32g4xx_hal_pcd.c ****     hpcd->ErrorCode |= HAL_PCD_ERROR_INVALID_CALLBACK;
 489:Drivers/STM32G4xx_HAL_Driver/Src/stm32g4xx_hal_pcd.c **** 
 490:Drivers/STM32G4xx_HAL_Driver/Src/stm32g4xx_hal_pcd.c ****     /* Return error status */
 491:Drivers/STM32G4xx_HAL_Driver/Src/stm32g4xx_hal_pcd.c ****     status =  HAL_ERROR;
 492:Drivers/STM32G4xx_HAL_Driver/Src/stm32g4xx_hal_pcd.c ****   }
 493:Drivers/STM32G4xx_HAL_Driver/Src/stm32g4xx_hal_pcd.c **** 
 494:Drivers/STM32G4xx_HAL_Driver/Src/stm32g4xx_hal_pcd.c ****   /* Release Lock */
 495:Drivers/STM32G4xx_HAL_Driver/Src/stm32g4xx_hal_pcd.c ****   __HAL_UNLOCK(hpcd);
 496:Drivers/STM32G4xx_HAL_Driver/Src/stm32g4xx_hal_pcd.c ****   return status;
 497:Drivers/STM32G4xx_HAL_Driver/Src/stm32g4xx_hal_pcd.c **** }
 498:Drivers/STM32G4xx_HAL_Driver/Src/stm32g4xx_hal_pcd.c **** 
 499:Drivers/STM32G4xx_HAL_Driver/Src/stm32g4xx_hal_pcd.c **** /**
 500:Drivers/STM32G4xx_HAL_Driver/Src/stm32g4xx_hal_pcd.c ****   * @brief  Register USB PCD Data OUT Stage Callback
 501:Drivers/STM32G4xx_HAL_Driver/Src/stm32g4xx_hal_pcd.c ****   *         To be used instead of the weak HAL_PCD_DataOutStageCallback() predefined callback
 502:Drivers/STM32G4xx_HAL_Driver/Src/stm32g4xx_hal_pcd.c ****   * @param  hpcd PCD handle
 503:Drivers/STM32G4xx_HAL_Driver/Src/stm32g4xx_hal_pcd.c ****   * @param  pCallback pointer to the USB PCD Data OUT Stage Callback function
 504:Drivers/STM32G4xx_HAL_Driver/Src/stm32g4xx_hal_pcd.c ****   * @retval HAL status
 505:Drivers/STM32G4xx_HAL_Driver/Src/stm32g4xx_hal_pcd.c ****   */
 506:Drivers/STM32G4xx_HAL_Driver/Src/stm32g4xx_hal_pcd.c **** HAL_StatusTypeDef HAL_PCD_RegisterDataOutStageCallback(PCD_HandleTypeDef *hpcd, pPCD_DataOutStageCa
 507:Drivers/STM32G4xx_HAL_Driver/Src/stm32g4xx_hal_pcd.c **** {
 508:Drivers/STM32G4xx_HAL_Driver/Src/stm32g4xx_hal_pcd.c ****   HAL_StatusTypeDef status = HAL_OK;
 509:Drivers/STM32G4xx_HAL_Driver/Src/stm32g4xx_hal_pcd.c **** 
 510:Drivers/STM32G4xx_HAL_Driver/Src/stm32g4xx_hal_pcd.c ****   if (pCallback == NULL)
 511:Drivers/STM32G4xx_HAL_Driver/Src/stm32g4xx_hal_pcd.c ****   {
 512:Drivers/STM32G4xx_HAL_Driver/Src/stm32g4xx_hal_pcd.c ****     /* Update the error code */
 513:Drivers/STM32G4xx_HAL_Driver/Src/stm32g4xx_hal_pcd.c ****     hpcd->ErrorCode |= HAL_PCD_ERROR_INVALID_CALLBACK;
 514:Drivers/STM32G4xx_HAL_Driver/Src/stm32g4xx_hal_pcd.c **** 
 515:Drivers/STM32G4xx_HAL_Driver/Src/stm32g4xx_hal_pcd.c ****     return HAL_ERROR;
 516:Drivers/STM32G4xx_HAL_Driver/Src/stm32g4xx_hal_pcd.c ****   }
 517:Drivers/STM32G4xx_HAL_Driver/Src/stm32g4xx_hal_pcd.c **** 
 518:Drivers/STM32G4xx_HAL_Driver/Src/stm32g4xx_hal_pcd.c ****   /* Process locked */
 519:Drivers/STM32G4xx_HAL_Driver/Src/stm32g4xx_hal_pcd.c ****   __HAL_LOCK(hpcd);
 520:Drivers/STM32G4xx_HAL_Driver/Src/stm32g4xx_hal_pcd.c **** 
 521:Drivers/STM32G4xx_HAL_Driver/Src/stm32g4xx_hal_pcd.c ****   if (hpcd->State == HAL_PCD_STATE_READY)
 522:Drivers/STM32G4xx_HAL_Driver/Src/stm32g4xx_hal_pcd.c ****   {
 523:Drivers/STM32G4xx_HAL_Driver/Src/stm32g4xx_hal_pcd.c ****     hpcd->DataOutStageCallback = pCallback;
 524:Drivers/STM32G4xx_HAL_Driver/Src/stm32g4xx_hal_pcd.c ****   }
ARM GAS  /tmp/cc4MD8jd.s 			page 18


 525:Drivers/STM32G4xx_HAL_Driver/Src/stm32g4xx_hal_pcd.c ****   else
 526:Drivers/STM32G4xx_HAL_Driver/Src/stm32g4xx_hal_pcd.c ****   {
 527:Drivers/STM32G4xx_HAL_Driver/Src/stm32g4xx_hal_pcd.c ****     /* Update the error code */
 528:Drivers/STM32G4xx_HAL_Driver/Src/stm32g4xx_hal_pcd.c ****     hpcd->ErrorCode |= HAL_PCD_ERROR_INVALID_CALLBACK;
 529:Drivers/STM32G4xx_HAL_Driver/Src/stm32g4xx_hal_pcd.c **** 
 530:Drivers/STM32G4xx_HAL_Driver/Src/stm32g4xx_hal_pcd.c ****     /* Return error status */
 531:Drivers/STM32G4xx_HAL_Driver/Src/stm32g4xx_hal_pcd.c ****     status =  HAL_ERROR;
 532:Drivers/STM32G4xx_HAL_Driver/Src/stm32g4xx_hal_pcd.c ****   }
 533:Drivers/STM32G4xx_HAL_Driver/Src/stm32g4xx_hal_pcd.c **** 
 534:Drivers/STM32G4xx_HAL_Driver/Src/stm32g4xx_hal_pcd.c ****   /* Release Lock */
 535:Drivers/STM32G4xx_HAL_Driver/Src/stm32g4xx_hal_pcd.c ****   __HAL_UNLOCK(hpcd);
 536:Drivers/STM32G4xx_HAL_Driver/Src/stm32g4xx_hal_pcd.c **** 
 537:Drivers/STM32G4xx_HAL_Driver/Src/stm32g4xx_hal_pcd.c ****   return status;
 538:Drivers/STM32G4xx_HAL_Driver/Src/stm32g4xx_hal_pcd.c **** }
 539:Drivers/STM32G4xx_HAL_Driver/Src/stm32g4xx_hal_pcd.c **** 
 540:Drivers/STM32G4xx_HAL_Driver/Src/stm32g4xx_hal_pcd.c **** /**
 541:Drivers/STM32G4xx_HAL_Driver/Src/stm32g4xx_hal_pcd.c ****   * @brief  UnRegister the USB PCD Data OUT Stage Callback
 542:Drivers/STM32G4xx_HAL_Driver/Src/stm32g4xx_hal_pcd.c ****   *         USB PCD Data OUT Stage Callback is redirected to the weak HAL_PCD_DataOutStageCallback(
 543:Drivers/STM32G4xx_HAL_Driver/Src/stm32g4xx_hal_pcd.c ****   * @param  hpcd PCD handle
 544:Drivers/STM32G4xx_HAL_Driver/Src/stm32g4xx_hal_pcd.c ****   * @retval HAL status
 545:Drivers/STM32G4xx_HAL_Driver/Src/stm32g4xx_hal_pcd.c ****   */
 546:Drivers/STM32G4xx_HAL_Driver/Src/stm32g4xx_hal_pcd.c **** HAL_StatusTypeDef HAL_PCD_UnRegisterDataOutStageCallback(PCD_HandleTypeDef *hpcd)
 547:Drivers/STM32G4xx_HAL_Driver/Src/stm32g4xx_hal_pcd.c **** {
 548:Drivers/STM32G4xx_HAL_Driver/Src/stm32g4xx_hal_pcd.c ****   HAL_StatusTypeDef status = HAL_OK;
 549:Drivers/STM32G4xx_HAL_Driver/Src/stm32g4xx_hal_pcd.c **** 
 550:Drivers/STM32G4xx_HAL_Driver/Src/stm32g4xx_hal_pcd.c ****   /* Process locked */
 551:Drivers/STM32G4xx_HAL_Driver/Src/stm32g4xx_hal_pcd.c ****   __HAL_LOCK(hpcd);
 552:Drivers/STM32G4xx_HAL_Driver/Src/stm32g4xx_hal_pcd.c **** 
 553:Drivers/STM32G4xx_HAL_Driver/Src/stm32g4xx_hal_pcd.c ****   if (hpcd->State == HAL_PCD_STATE_READY)
 554:Drivers/STM32G4xx_HAL_Driver/Src/stm32g4xx_hal_pcd.c ****   {
 555:Drivers/STM32G4xx_HAL_Driver/Src/stm32g4xx_hal_pcd.c ****     hpcd->DataOutStageCallback = HAL_PCD_DataOutStageCallback; /* Legacy weak DataOutStageCallback 
 556:Drivers/STM32G4xx_HAL_Driver/Src/stm32g4xx_hal_pcd.c ****   }
 557:Drivers/STM32G4xx_HAL_Driver/Src/stm32g4xx_hal_pcd.c ****   else
 558:Drivers/STM32G4xx_HAL_Driver/Src/stm32g4xx_hal_pcd.c ****   {
 559:Drivers/STM32G4xx_HAL_Driver/Src/stm32g4xx_hal_pcd.c ****     /* Update the error code */
 560:Drivers/STM32G4xx_HAL_Driver/Src/stm32g4xx_hal_pcd.c ****     hpcd->ErrorCode |= HAL_PCD_ERROR_INVALID_CALLBACK;
 561:Drivers/STM32G4xx_HAL_Driver/Src/stm32g4xx_hal_pcd.c **** 
 562:Drivers/STM32G4xx_HAL_Driver/Src/stm32g4xx_hal_pcd.c ****     /* Return error status */
 563:Drivers/STM32G4xx_HAL_Driver/Src/stm32g4xx_hal_pcd.c ****     status =  HAL_ERROR;
 564:Drivers/STM32G4xx_HAL_Driver/Src/stm32g4xx_hal_pcd.c ****   }
 565:Drivers/STM32G4xx_HAL_Driver/Src/stm32g4xx_hal_pcd.c **** 
 566:Drivers/STM32G4xx_HAL_Driver/Src/stm32g4xx_hal_pcd.c ****   /* Release Lock */
 567:Drivers/STM32G4xx_HAL_Driver/Src/stm32g4xx_hal_pcd.c ****   __HAL_UNLOCK(hpcd);
 568:Drivers/STM32G4xx_HAL_Driver/Src/stm32g4xx_hal_pcd.c **** 
 569:Drivers/STM32G4xx_HAL_Driver/Src/stm32g4xx_hal_pcd.c ****   return status;
 570:Drivers/STM32G4xx_HAL_Driver/Src/stm32g4xx_hal_pcd.c **** }
 571:Drivers/STM32G4xx_HAL_Driver/Src/stm32g4xx_hal_pcd.c **** 
 572:Drivers/STM32G4xx_HAL_Driver/Src/stm32g4xx_hal_pcd.c **** /**
 573:Drivers/STM32G4xx_HAL_Driver/Src/stm32g4xx_hal_pcd.c ****   * @brief  Register USB PCD Data IN Stage Callback
 574:Drivers/STM32G4xx_HAL_Driver/Src/stm32g4xx_hal_pcd.c ****   *         To be used instead of the weak HAL_PCD_DataInStageCallback() predefined callback
 575:Drivers/STM32G4xx_HAL_Driver/Src/stm32g4xx_hal_pcd.c ****   * @param  hpcd PCD handle
 576:Drivers/STM32G4xx_HAL_Driver/Src/stm32g4xx_hal_pcd.c ****   * @param  pCallback pointer to the USB PCD Data IN Stage Callback function
 577:Drivers/STM32G4xx_HAL_Driver/Src/stm32g4xx_hal_pcd.c ****   * @retval HAL status
 578:Drivers/STM32G4xx_HAL_Driver/Src/stm32g4xx_hal_pcd.c ****   */
 579:Drivers/STM32G4xx_HAL_Driver/Src/stm32g4xx_hal_pcd.c **** HAL_StatusTypeDef HAL_PCD_RegisterDataInStageCallback(PCD_HandleTypeDef *hpcd, pPCD_DataInStageCall
 580:Drivers/STM32G4xx_HAL_Driver/Src/stm32g4xx_hal_pcd.c **** {
 581:Drivers/STM32G4xx_HAL_Driver/Src/stm32g4xx_hal_pcd.c ****   HAL_StatusTypeDef status = HAL_OK;
ARM GAS  /tmp/cc4MD8jd.s 			page 19


 582:Drivers/STM32G4xx_HAL_Driver/Src/stm32g4xx_hal_pcd.c **** 
 583:Drivers/STM32G4xx_HAL_Driver/Src/stm32g4xx_hal_pcd.c ****   if (pCallback == NULL)
 584:Drivers/STM32G4xx_HAL_Driver/Src/stm32g4xx_hal_pcd.c ****   {
 585:Drivers/STM32G4xx_HAL_Driver/Src/stm32g4xx_hal_pcd.c ****     /* Update the error code */
 586:Drivers/STM32G4xx_HAL_Driver/Src/stm32g4xx_hal_pcd.c ****     hpcd->ErrorCode |= HAL_PCD_ERROR_INVALID_CALLBACK;
 587:Drivers/STM32G4xx_HAL_Driver/Src/stm32g4xx_hal_pcd.c **** 
 588:Drivers/STM32G4xx_HAL_Driver/Src/stm32g4xx_hal_pcd.c ****     return HAL_ERROR;
 589:Drivers/STM32G4xx_HAL_Driver/Src/stm32g4xx_hal_pcd.c ****   }
 590:Drivers/STM32G4xx_HAL_Driver/Src/stm32g4xx_hal_pcd.c **** 
 591:Drivers/STM32G4xx_HAL_Driver/Src/stm32g4xx_hal_pcd.c ****   /* Process locked */
 592:Drivers/STM32G4xx_HAL_Driver/Src/stm32g4xx_hal_pcd.c ****   __HAL_LOCK(hpcd);
 593:Drivers/STM32G4xx_HAL_Driver/Src/stm32g4xx_hal_pcd.c **** 
 594:Drivers/STM32G4xx_HAL_Driver/Src/stm32g4xx_hal_pcd.c ****   if (hpcd->State == HAL_PCD_STATE_READY)
 595:Drivers/STM32G4xx_HAL_Driver/Src/stm32g4xx_hal_pcd.c ****   {
 596:Drivers/STM32G4xx_HAL_Driver/Src/stm32g4xx_hal_pcd.c ****     hpcd->DataInStageCallback = pCallback;
 597:Drivers/STM32G4xx_HAL_Driver/Src/stm32g4xx_hal_pcd.c ****   }
 598:Drivers/STM32G4xx_HAL_Driver/Src/stm32g4xx_hal_pcd.c ****   else
 599:Drivers/STM32G4xx_HAL_Driver/Src/stm32g4xx_hal_pcd.c ****   {
 600:Drivers/STM32G4xx_HAL_Driver/Src/stm32g4xx_hal_pcd.c ****     /* Update the error code */
 601:Drivers/STM32G4xx_HAL_Driver/Src/stm32g4xx_hal_pcd.c ****     hpcd->ErrorCode |= HAL_PCD_ERROR_INVALID_CALLBACK;
 602:Drivers/STM32G4xx_HAL_Driver/Src/stm32g4xx_hal_pcd.c **** 
 603:Drivers/STM32G4xx_HAL_Driver/Src/stm32g4xx_hal_pcd.c ****     /* Return error status */
 604:Drivers/STM32G4xx_HAL_Driver/Src/stm32g4xx_hal_pcd.c ****     status =  HAL_ERROR;
 605:Drivers/STM32G4xx_HAL_Driver/Src/stm32g4xx_hal_pcd.c ****   }
 606:Drivers/STM32G4xx_HAL_Driver/Src/stm32g4xx_hal_pcd.c **** 
 607:Drivers/STM32G4xx_HAL_Driver/Src/stm32g4xx_hal_pcd.c ****   /* Release Lock */
 608:Drivers/STM32G4xx_HAL_Driver/Src/stm32g4xx_hal_pcd.c ****   __HAL_UNLOCK(hpcd);
 609:Drivers/STM32G4xx_HAL_Driver/Src/stm32g4xx_hal_pcd.c **** 
 610:Drivers/STM32G4xx_HAL_Driver/Src/stm32g4xx_hal_pcd.c ****   return status;
 611:Drivers/STM32G4xx_HAL_Driver/Src/stm32g4xx_hal_pcd.c **** }
 612:Drivers/STM32G4xx_HAL_Driver/Src/stm32g4xx_hal_pcd.c **** 
 613:Drivers/STM32G4xx_HAL_Driver/Src/stm32g4xx_hal_pcd.c **** /**
 614:Drivers/STM32G4xx_HAL_Driver/Src/stm32g4xx_hal_pcd.c ****   * @brief  UnRegister the USB PCD Data IN Stage Callback
 615:Drivers/STM32G4xx_HAL_Driver/Src/stm32g4xx_hal_pcd.c ****   *         USB PCD Data OUT Stage Callback is redirected to the weak HAL_PCD_DataInStageCallback()
 616:Drivers/STM32G4xx_HAL_Driver/Src/stm32g4xx_hal_pcd.c ****   * @param  hpcd PCD handle
 617:Drivers/STM32G4xx_HAL_Driver/Src/stm32g4xx_hal_pcd.c ****   * @retval HAL status
 618:Drivers/STM32G4xx_HAL_Driver/Src/stm32g4xx_hal_pcd.c ****   */
 619:Drivers/STM32G4xx_HAL_Driver/Src/stm32g4xx_hal_pcd.c **** HAL_StatusTypeDef HAL_PCD_UnRegisterDataInStageCallback(PCD_HandleTypeDef *hpcd)
 620:Drivers/STM32G4xx_HAL_Driver/Src/stm32g4xx_hal_pcd.c **** {
 621:Drivers/STM32G4xx_HAL_Driver/Src/stm32g4xx_hal_pcd.c ****   HAL_StatusTypeDef status = HAL_OK;
 622:Drivers/STM32G4xx_HAL_Driver/Src/stm32g4xx_hal_pcd.c **** 
 623:Drivers/STM32G4xx_HAL_Driver/Src/stm32g4xx_hal_pcd.c ****   /* Process locked */
 624:Drivers/STM32G4xx_HAL_Driver/Src/stm32g4xx_hal_pcd.c ****   __HAL_LOCK(hpcd);
 625:Drivers/STM32G4xx_HAL_Driver/Src/stm32g4xx_hal_pcd.c **** 
 626:Drivers/STM32G4xx_HAL_Driver/Src/stm32g4xx_hal_pcd.c ****   if (hpcd->State == HAL_PCD_STATE_READY)
 627:Drivers/STM32G4xx_HAL_Driver/Src/stm32g4xx_hal_pcd.c ****   {
 628:Drivers/STM32G4xx_HAL_Driver/Src/stm32g4xx_hal_pcd.c ****     hpcd->DataInStageCallback = HAL_PCD_DataInStageCallback; /* Legacy weak DataInStageCallback  */
 629:Drivers/STM32G4xx_HAL_Driver/Src/stm32g4xx_hal_pcd.c ****   }
 630:Drivers/STM32G4xx_HAL_Driver/Src/stm32g4xx_hal_pcd.c ****   else
 631:Drivers/STM32G4xx_HAL_Driver/Src/stm32g4xx_hal_pcd.c ****   {
 632:Drivers/STM32G4xx_HAL_Driver/Src/stm32g4xx_hal_pcd.c ****     /* Update the error code */
 633:Drivers/STM32G4xx_HAL_Driver/Src/stm32g4xx_hal_pcd.c ****     hpcd->ErrorCode |= HAL_PCD_ERROR_INVALID_CALLBACK;
 634:Drivers/STM32G4xx_HAL_Driver/Src/stm32g4xx_hal_pcd.c **** 
 635:Drivers/STM32G4xx_HAL_Driver/Src/stm32g4xx_hal_pcd.c ****     /* Return error status */
 636:Drivers/STM32G4xx_HAL_Driver/Src/stm32g4xx_hal_pcd.c ****     status =  HAL_ERROR;
 637:Drivers/STM32G4xx_HAL_Driver/Src/stm32g4xx_hal_pcd.c ****   }
 638:Drivers/STM32G4xx_HAL_Driver/Src/stm32g4xx_hal_pcd.c **** 
ARM GAS  /tmp/cc4MD8jd.s 			page 20


 639:Drivers/STM32G4xx_HAL_Driver/Src/stm32g4xx_hal_pcd.c ****   /* Release Lock */
 640:Drivers/STM32G4xx_HAL_Driver/Src/stm32g4xx_hal_pcd.c ****   __HAL_UNLOCK(hpcd);
 641:Drivers/STM32G4xx_HAL_Driver/Src/stm32g4xx_hal_pcd.c **** 
 642:Drivers/STM32G4xx_HAL_Driver/Src/stm32g4xx_hal_pcd.c ****   return status;
 643:Drivers/STM32G4xx_HAL_Driver/Src/stm32g4xx_hal_pcd.c **** }
 644:Drivers/STM32G4xx_HAL_Driver/Src/stm32g4xx_hal_pcd.c **** 
 645:Drivers/STM32G4xx_HAL_Driver/Src/stm32g4xx_hal_pcd.c **** /**
 646:Drivers/STM32G4xx_HAL_Driver/Src/stm32g4xx_hal_pcd.c ****   * @brief  Register USB PCD Iso OUT incomplete Callback
 647:Drivers/STM32G4xx_HAL_Driver/Src/stm32g4xx_hal_pcd.c ****   *         To be used instead of the weak HAL_PCD_ISOOUTIncompleteCallback() predefined callback
 648:Drivers/STM32G4xx_HAL_Driver/Src/stm32g4xx_hal_pcd.c ****   * @param  hpcd PCD handle
 649:Drivers/STM32G4xx_HAL_Driver/Src/stm32g4xx_hal_pcd.c ****   * @param  pCallback pointer to the USB PCD Iso OUT incomplete Callback function
 650:Drivers/STM32G4xx_HAL_Driver/Src/stm32g4xx_hal_pcd.c ****   * @retval HAL status
 651:Drivers/STM32G4xx_HAL_Driver/Src/stm32g4xx_hal_pcd.c ****   */
 652:Drivers/STM32G4xx_HAL_Driver/Src/stm32g4xx_hal_pcd.c **** HAL_StatusTypeDef HAL_PCD_RegisterIsoOutIncpltCallback(PCD_HandleTypeDef *hpcd, pPCD_IsoOutIncpltCa
 653:Drivers/STM32G4xx_HAL_Driver/Src/stm32g4xx_hal_pcd.c **** {
 654:Drivers/STM32G4xx_HAL_Driver/Src/stm32g4xx_hal_pcd.c ****   HAL_StatusTypeDef status = HAL_OK;
 655:Drivers/STM32G4xx_HAL_Driver/Src/stm32g4xx_hal_pcd.c **** 
 656:Drivers/STM32G4xx_HAL_Driver/Src/stm32g4xx_hal_pcd.c ****   if (pCallback == NULL)
 657:Drivers/STM32G4xx_HAL_Driver/Src/stm32g4xx_hal_pcd.c ****   {
 658:Drivers/STM32G4xx_HAL_Driver/Src/stm32g4xx_hal_pcd.c ****     /* Update the error code */
 659:Drivers/STM32G4xx_HAL_Driver/Src/stm32g4xx_hal_pcd.c ****     hpcd->ErrorCode |= HAL_PCD_ERROR_INVALID_CALLBACK;
 660:Drivers/STM32G4xx_HAL_Driver/Src/stm32g4xx_hal_pcd.c **** 
 661:Drivers/STM32G4xx_HAL_Driver/Src/stm32g4xx_hal_pcd.c ****     return HAL_ERROR;
 662:Drivers/STM32G4xx_HAL_Driver/Src/stm32g4xx_hal_pcd.c ****   }
 663:Drivers/STM32G4xx_HAL_Driver/Src/stm32g4xx_hal_pcd.c **** 
 664:Drivers/STM32G4xx_HAL_Driver/Src/stm32g4xx_hal_pcd.c ****   /* Process locked */
 665:Drivers/STM32G4xx_HAL_Driver/Src/stm32g4xx_hal_pcd.c ****   __HAL_LOCK(hpcd);
 666:Drivers/STM32G4xx_HAL_Driver/Src/stm32g4xx_hal_pcd.c **** 
 667:Drivers/STM32G4xx_HAL_Driver/Src/stm32g4xx_hal_pcd.c ****   if (hpcd->State == HAL_PCD_STATE_READY)
 668:Drivers/STM32G4xx_HAL_Driver/Src/stm32g4xx_hal_pcd.c ****   {
 669:Drivers/STM32G4xx_HAL_Driver/Src/stm32g4xx_hal_pcd.c ****     hpcd->ISOOUTIncompleteCallback = pCallback;
 670:Drivers/STM32G4xx_HAL_Driver/Src/stm32g4xx_hal_pcd.c ****   }
 671:Drivers/STM32G4xx_HAL_Driver/Src/stm32g4xx_hal_pcd.c ****   else
 672:Drivers/STM32G4xx_HAL_Driver/Src/stm32g4xx_hal_pcd.c ****   {
 673:Drivers/STM32G4xx_HAL_Driver/Src/stm32g4xx_hal_pcd.c ****     /* Update the error code */
 674:Drivers/STM32G4xx_HAL_Driver/Src/stm32g4xx_hal_pcd.c ****     hpcd->ErrorCode |= HAL_PCD_ERROR_INVALID_CALLBACK;
 675:Drivers/STM32G4xx_HAL_Driver/Src/stm32g4xx_hal_pcd.c **** 
 676:Drivers/STM32G4xx_HAL_Driver/Src/stm32g4xx_hal_pcd.c ****     /* Return error status */
 677:Drivers/STM32G4xx_HAL_Driver/Src/stm32g4xx_hal_pcd.c ****     status =  HAL_ERROR;
 678:Drivers/STM32G4xx_HAL_Driver/Src/stm32g4xx_hal_pcd.c ****   }
 679:Drivers/STM32G4xx_HAL_Driver/Src/stm32g4xx_hal_pcd.c **** 
 680:Drivers/STM32G4xx_HAL_Driver/Src/stm32g4xx_hal_pcd.c ****   /* Release Lock */
 681:Drivers/STM32G4xx_HAL_Driver/Src/stm32g4xx_hal_pcd.c ****   __HAL_UNLOCK(hpcd);
 682:Drivers/STM32G4xx_HAL_Driver/Src/stm32g4xx_hal_pcd.c **** 
 683:Drivers/STM32G4xx_HAL_Driver/Src/stm32g4xx_hal_pcd.c ****   return status;
 684:Drivers/STM32G4xx_HAL_Driver/Src/stm32g4xx_hal_pcd.c **** }
 685:Drivers/STM32G4xx_HAL_Driver/Src/stm32g4xx_hal_pcd.c **** 
 686:Drivers/STM32G4xx_HAL_Driver/Src/stm32g4xx_hal_pcd.c **** /**
 687:Drivers/STM32G4xx_HAL_Driver/Src/stm32g4xx_hal_pcd.c ****   * @brief  UnRegister the USB PCD Iso OUT incomplete Callback
 688:Drivers/STM32G4xx_HAL_Driver/Src/stm32g4xx_hal_pcd.c ****   *         USB PCD Iso OUT incomplete Callback is redirected to the weak HAL_PCD_ISOOUTIncompleteC
 689:Drivers/STM32G4xx_HAL_Driver/Src/stm32g4xx_hal_pcd.c ****   * @param  hpcd PCD handle
 690:Drivers/STM32G4xx_HAL_Driver/Src/stm32g4xx_hal_pcd.c ****   * @retval HAL status
 691:Drivers/STM32G4xx_HAL_Driver/Src/stm32g4xx_hal_pcd.c ****   */
 692:Drivers/STM32G4xx_HAL_Driver/Src/stm32g4xx_hal_pcd.c **** HAL_StatusTypeDef HAL_PCD_UnRegisterIsoOutIncpltCallback(PCD_HandleTypeDef *hpcd)
 693:Drivers/STM32G4xx_HAL_Driver/Src/stm32g4xx_hal_pcd.c **** {
 694:Drivers/STM32G4xx_HAL_Driver/Src/stm32g4xx_hal_pcd.c ****   HAL_StatusTypeDef status = HAL_OK;
 695:Drivers/STM32G4xx_HAL_Driver/Src/stm32g4xx_hal_pcd.c **** 
ARM GAS  /tmp/cc4MD8jd.s 			page 21


 696:Drivers/STM32G4xx_HAL_Driver/Src/stm32g4xx_hal_pcd.c ****   /* Process locked */
 697:Drivers/STM32G4xx_HAL_Driver/Src/stm32g4xx_hal_pcd.c ****   __HAL_LOCK(hpcd);
 698:Drivers/STM32G4xx_HAL_Driver/Src/stm32g4xx_hal_pcd.c **** 
 699:Drivers/STM32G4xx_HAL_Driver/Src/stm32g4xx_hal_pcd.c ****   if (hpcd->State == HAL_PCD_STATE_READY)
 700:Drivers/STM32G4xx_HAL_Driver/Src/stm32g4xx_hal_pcd.c ****   {
 701:Drivers/STM32G4xx_HAL_Driver/Src/stm32g4xx_hal_pcd.c ****     hpcd->ISOOUTIncompleteCallback = HAL_PCD_ISOOUTIncompleteCallback; /* Legacy weak ISOOUTIncompl
 702:Drivers/STM32G4xx_HAL_Driver/Src/stm32g4xx_hal_pcd.c ****   }
 703:Drivers/STM32G4xx_HAL_Driver/Src/stm32g4xx_hal_pcd.c ****   else
 704:Drivers/STM32G4xx_HAL_Driver/Src/stm32g4xx_hal_pcd.c ****   {
 705:Drivers/STM32G4xx_HAL_Driver/Src/stm32g4xx_hal_pcd.c ****     /* Update the error code */
 706:Drivers/STM32G4xx_HAL_Driver/Src/stm32g4xx_hal_pcd.c ****     hpcd->ErrorCode |= HAL_PCD_ERROR_INVALID_CALLBACK;
 707:Drivers/STM32G4xx_HAL_Driver/Src/stm32g4xx_hal_pcd.c **** 
 708:Drivers/STM32G4xx_HAL_Driver/Src/stm32g4xx_hal_pcd.c ****     /* Return error status */
 709:Drivers/STM32G4xx_HAL_Driver/Src/stm32g4xx_hal_pcd.c ****     status =  HAL_ERROR;
 710:Drivers/STM32G4xx_HAL_Driver/Src/stm32g4xx_hal_pcd.c ****   }
 711:Drivers/STM32G4xx_HAL_Driver/Src/stm32g4xx_hal_pcd.c **** 
 712:Drivers/STM32G4xx_HAL_Driver/Src/stm32g4xx_hal_pcd.c ****   /* Release Lock */
 713:Drivers/STM32G4xx_HAL_Driver/Src/stm32g4xx_hal_pcd.c ****   __HAL_UNLOCK(hpcd);
 714:Drivers/STM32G4xx_HAL_Driver/Src/stm32g4xx_hal_pcd.c **** 
 715:Drivers/STM32G4xx_HAL_Driver/Src/stm32g4xx_hal_pcd.c ****   return status;
 716:Drivers/STM32G4xx_HAL_Driver/Src/stm32g4xx_hal_pcd.c **** }
 717:Drivers/STM32G4xx_HAL_Driver/Src/stm32g4xx_hal_pcd.c **** 
 718:Drivers/STM32G4xx_HAL_Driver/Src/stm32g4xx_hal_pcd.c **** /**
 719:Drivers/STM32G4xx_HAL_Driver/Src/stm32g4xx_hal_pcd.c ****   * @brief  Register USB PCD Iso IN incomplete Callback
 720:Drivers/STM32G4xx_HAL_Driver/Src/stm32g4xx_hal_pcd.c ****   *         To be used instead of the weak HAL_PCD_ISOINIncompleteCallback() predefined callback
 721:Drivers/STM32G4xx_HAL_Driver/Src/stm32g4xx_hal_pcd.c ****   * @param  hpcd PCD handle
 722:Drivers/STM32G4xx_HAL_Driver/Src/stm32g4xx_hal_pcd.c ****   * @param  pCallback pointer to the USB PCD Iso IN incomplete Callback function
 723:Drivers/STM32G4xx_HAL_Driver/Src/stm32g4xx_hal_pcd.c ****   * @retval HAL status
 724:Drivers/STM32G4xx_HAL_Driver/Src/stm32g4xx_hal_pcd.c ****   */
 725:Drivers/STM32G4xx_HAL_Driver/Src/stm32g4xx_hal_pcd.c **** HAL_StatusTypeDef HAL_PCD_RegisterIsoInIncpltCallback(PCD_HandleTypeDef *hpcd, pPCD_IsoInIncpltCall
 726:Drivers/STM32G4xx_HAL_Driver/Src/stm32g4xx_hal_pcd.c **** {
 727:Drivers/STM32G4xx_HAL_Driver/Src/stm32g4xx_hal_pcd.c ****   HAL_StatusTypeDef status = HAL_OK;
 728:Drivers/STM32G4xx_HAL_Driver/Src/stm32g4xx_hal_pcd.c **** 
 729:Drivers/STM32G4xx_HAL_Driver/Src/stm32g4xx_hal_pcd.c ****   if (pCallback == NULL)
 730:Drivers/STM32G4xx_HAL_Driver/Src/stm32g4xx_hal_pcd.c ****   {
 731:Drivers/STM32G4xx_HAL_Driver/Src/stm32g4xx_hal_pcd.c ****     /* Update the error code */
 732:Drivers/STM32G4xx_HAL_Driver/Src/stm32g4xx_hal_pcd.c ****     hpcd->ErrorCode |= HAL_PCD_ERROR_INVALID_CALLBACK;
 733:Drivers/STM32G4xx_HAL_Driver/Src/stm32g4xx_hal_pcd.c **** 
 734:Drivers/STM32G4xx_HAL_Driver/Src/stm32g4xx_hal_pcd.c ****     return HAL_ERROR;
 735:Drivers/STM32G4xx_HAL_Driver/Src/stm32g4xx_hal_pcd.c ****   }
 736:Drivers/STM32G4xx_HAL_Driver/Src/stm32g4xx_hal_pcd.c **** 
 737:Drivers/STM32G4xx_HAL_Driver/Src/stm32g4xx_hal_pcd.c ****   /* Process locked */
 738:Drivers/STM32G4xx_HAL_Driver/Src/stm32g4xx_hal_pcd.c ****   __HAL_LOCK(hpcd);
 739:Drivers/STM32G4xx_HAL_Driver/Src/stm32g4xx_hal_pcd.c **** 
 740:Drivers/STM32G4xx_HAL_Driver/Src/stm32g4xx_hal_pcd.c ****   if (hpcd->State == HAL_PCD_STATE_READY)
 741:Drivers/STM32G4xx_HAL_Driver/Src/stm32g4xx_hal_pcd.c ****   {
 742:Drivers/STM32G4xx_HAL_Driver/Src/stm32g4xx_hal_pcd.c ****     hpcd->ISOINIncompleteCallback = pCallback;
 743:Drivers/STM32G4xx_HAL_Driver/Src/stm32g4xx_hal_pcd.c ****   }
 744:Drivers/STM32G4xx_HAL_Driver/Src/stm32g4xx_hal_pcd.c ****   else
 745:Drivers/STM32G4xx_HAL_Driver/Src/stm32g4xx_hal_pcd.c ****   {
 746:Drivers/STM32G4xx_HAL_Driver/Src/stm32g4xx_hal_pcd.c ****     /* Update the error code */
 747:Drivers/STM32G4xx_HAL_Driver/Src/stm32g4xx_hal_pcd.c ****     hpcd->ErrorCode |= HAL_PCD_ERROR_INVALID_CALLBACK;
 748:Drivers/STM32G4xx_HAL_Driver/Src/stm32g4xx_hal_pcd.c **** 
 749:Drivers/STM32G4xx_HAL_Driver/Src/stm32g4xx_hal_pcd.c ****     /* Return error status */
 750:Drivers/STM32G4xx_HAL_Driver/Src/stm32g4xx_hal_pcd.c ****     status =  HAL_ERROR;
 751:Drivers/STM32G4xx_HAL_Driver/Src/stm32g4xx_hal_pcd.c ****   }
 752:Drivers/STM32G4xx_HAL_Driver/Src/stm32g4xx_hal_pcd.c **** 
ARM GAS  /tmp/cc4MD8jd.s 			page 22


 753:Drivers/STM32G4xx_HAL_Driver/Src/stm32g4xx_hal_pcd.c ****   /* Release Lock */
 754:Drivers/STM32G4xx_HAL_Driver/Src/stm32g4xx_hal_pcd.c ****   __HAL_UNLOCK(hpcd);
 755:Drivers/STM32G4xx_HAL_Driver/Src/stm32g4xx_hal_pcd.c **** 
 756:Drivers/STM32G4xx_HAL_Driver/Src/stm32g4xx_hal_pcd.c ****   return status;
 757:Drivers/STM32G4xx_HAL_Driver/Src/stm32g4xx_hal_pcd.c **** }
 758:Drivers/STM32G4xx_HAL_Driver/Src/stm32g4xx_hal_pcd.c **** 
 759:Drivers/STM32G4xx_HAL_Driver/Src/stm32g4xx_hal_pcd.c **** /**
 760:Drivers/STM32G4xx_HAL_Driver/Src/stm32g4xx_hal_pcd.c ****   * @brief  UnRegister the USB PCD Iso IN incomplete Callback
 761:Drivers/STM32G4xx_HAL_Driver/Src/stm32g4xx_hal_pcd.c ****   *         USB PCD Iso IN incomplete Callback is redirected to the weak HAL_PCD_ISOINIncompleteCal
 762:Drivers/STM32G4xx_HAL_Driver/Src/stm32g4xx_hal_pcd.c ****   * @param  hpcd PCD handle
 763:Drivers/STM32G4xx_HAL_Driver/Src/stm32g4xx_hal_pcd.c ****   * @retval HAL status
 764:Drivers/STM32G4xx_HAL_Driver/Src/stm32g4xx_hal_pcd.c ****   */
 765:Drivers/STM32G4xx_HAL_Driver/Src/stm32g4xx_hal_pcd.c **** HAL_StatusTypeDef HAL_PCD_UnRegisterIsoInIncpltCallback(PCD_HandleTypeDef *hpcd)
 766:Drivers/STM32G4xx_HAL_Driver/Src/stm32g4xx_hal_pcd.c **** {
 767:Drivers/STM32G4xx_HAL_Driver/Src/stm32g4xx_hal_pcd.c ****   HAL_StatusTypeDef status = HAL_OK;
 768:Drivers/STM32G4xx_HAL_Driver/Src/stm32g4xx_hal_pcd.c **** 
 769:Drivers/STM32G4xx_HAL_Driver/Src/stm32g4xx_hal_pcd.c ****   /* Process locked */
 770:Drivers/STM32G4xx_HAL_Driver/Src/stm32g4xx_hal_pcd.c ****   __HAL_LOCK(hpcd);
 771:Drivers/STM32G4xx_HAL_Driver/Src/stm32g4xx_hal_pcd.c **** 
 772:Drivers/STM32G4xx_HAL_Driver/Src/stm32g4xx_hal_pcd.c ****   if (hpcd->State == HAL_PCD_STATE_READY)
 773:Drivers/STM32G4xx_HAL_Driver/Src/stm32g4xx_hal_pcd.c ****   {
 774:Drivers/STM32G4xx_HAL_Driver/Src/stm32g4xx_hal_pcd.c ****     hpcd->ISOINIncompleteCallback = HAL_PCD_ISOINIncompleteCallback; /* Legacy weak ISOINIncomplete
 775:Drivers/STM32G4xx_HAL_Driver/Src/stm32g4xx_hal_pcd.c ****   }
 776:Drivers/STM32G4xx_HAL_Driver/Src/stm32g4xx_hal_pcd.c ****   else
 777:Drivers/STM32G4xx_HAL_Driver/Src/stm32g4xx_hal_pcd.c ****   {
 778:Drivers/STM32G4xx_HAL_Driver/Src/stm32g4xx_hal_pcd.c ****     /* Update the error code */
 779:Drivers/STM32G4xx_HAL_Driver/Src/stm32g4xx_hal_pcd.c ****     hpcd->ErrorCode |= HAL_PCD_ERROR_INVALID_CALLBACK;
 780:Drivers/STM32G4xx_HAL_Driver/Src/stm32g4xx_hal_pcd.c **** 
 781:Drivers/STM32G4xx_HAL_Driver/Src/stm32g4xx_hal_pcd.c ****     /* Return error status */
 782:Drivers/STM32G4xx_HAL_Driver/Src/stm32g4xx_hal_pcd.c ****     status =  HAL_ERROR;
 783:Drivers/STM32G4xx_HAL_Driver/Src/stm32g4xx_hal_pcd.c ****   }
 784:Drivers/STM32G4xx_HAL_Driver/Src/stm32g4xx_hal_pcd.c **** 
 785:Drivers/STM32G4xx_HAL_Driver/Src/stm32g4xx_hal_pcd.c ****   /* Release Lock */
 786:Drivers/STM32G4xx_HAL_Driver/Src/stm32g4xx_hal_pcd.c ****   __HAL_UNLOCK(hpcd);
 787:Drivers/STM32G4xx_HAL_Driver/Src/stm32g4xx_hal_pcd.c **** 
 788:Drivers/STM32G4xx_HAL_Driver/Src/stm32g4xx_hal_pcd.c ****   return status;
 789:Drivers/STM32G4xx_HAL_Driver/Src/stm32g4xx_hal_pcd.c **** }
 790:Drivers/STM32G4xx_HAL_Driver/Src/stm32g4xx_hal_pcd.c **** 
 791:Drivers/STM32G4xx_HAL_Driver/Src/stm32g4xx_hal_pcd.c **** /**
 792:Drivers/STM32G4xx_HAL_Driver/Src/stm32g4xx_hal_pcd.c ****   * @brief  Register USB PCD BCD Callback
 793:Drivers/STM32G4xx_HAL_Driver/Src/stm32g4xx_hal_pcd.c ****   *         To be used instead of the weak HAL_PCDEx_BCD_Callback() predefined callback
 794:Drivers/STM32G4xx_HAL_Driver/Src/stm32g4xx_hal_pcd.c ****   * @param  hpcd PCD handle
 795:Drivers/STM32G4xx_HAL_Driver/Src/stm32g4xx_hal_pcd.c ****   * @param  pCallback pointer to the USB PCD BCD Callback function
 796:Drivers/STM32G4xx_HAL_Driver/Src/stm32g4xx_hal_pcd.c ****   * @retval HAL status
 797:Drivers/STM32G4xx_HAL_Driver/Src/stm32g4xx_hal_pcd.c ****   */
 798:Drivers/STM32G4xx_HAL_Driver/Src/stm32g4xx_hal_pcd.c **** HAL_StatusTypeDef HAL_PCD_RegisterBcdCallback(PCD_HandleTypeDef *hpcd, pPCD_BcdCallbackTypeDef pCal
 799:Drivers/STM32G4xx_HAL_Driver/Src/stm32g4xx_hal_pcd.c **** {
 800:Drivers/STM32G4xx_HAL_Driver/Src/stm32g4xx_hal_pcd.c ****   HAL_StatusTypeDef status = HAL_OK;
 801:Drivers/STM32G4xx_HAL_Driver/Src/stm32g4xx_hal_pcd.c **** 
 802:Drivers/STM32G4xx_HAL_Driver/Src/stm32g4xx_hal_pcd.c ****   if (pCallback == NULL)
 803:Drivers/STM32G4xx_HAL_Driver/Src/stm32g4xx_hal_pcd.c ****   {
 804:Drivers/STM32G4xx_HAL_Driver/Src/stm32g4xx_hal_pcd.c ****     /* Update the error code */
 805:Drivers/STM32G4xx_HAL_Driver/Src/stm32g4xx_hal_pcd.c ****     hpcd->ErrorCode |= HAL_PCD_ERROR_INVALID_CALLBACK;
 806:Drivers/STM32G4xx_HAL_Driver/Src/stm32g4xx_hal_pcd.c **** 
 807:Drivers/STM32G4xx_HAL_Driver/Src/stm32g4xx_hal_pcd.c ****     return HAL_ERROR;
 808:Drivers/STM32G4xx_HAL_Driver/Src/stm32g4xx_hal_pcd.c ****   }
 809:Drivers/STM32G4xx_HAL_Driver/Src/stm32g4xx_hal_pcd.c **** 
ARM GAS  /tmp/cc4MD8jd.s 			page 23


 810:Drivers/STM32G4xx_HAL_Driver/Src/stm32g4xx_hal_pcd.c ****   /* Process locked */
 811:Drivers/STM32G4xx_HAL_Driver/Src/stm32g4xx_hal_pcd.c ****   __HAL_LOCK(hpcd);
 812:Drivers/STM32G4xx_HAL_Driver/Src/stm32g4xx_hal_pcd.c **** 
 813:Drivers/STM32G4xx_HAL_Driver/Src/stm32g4xx_hal_pcd.c ****   if (hpcd->State == HAL_PCD_STATE_READY)
 814:Drivers/STM32G4xx_HAL_Driver/Src/stm32g4xx_hal_pcd.c ****   {
 815:Drivers/STM32G4xx_HAL_Driver/Src/stm32g4xx_hal_pcd.c ****     hpcd->BCDCallback = pCallback;
 816:Drivers/STM32G4xx_HAL_Driver/Src/stm32g4xx_hal_pcd.c ****   }
 817:Drivers/STM32G4xx_HAL_Driver/Src/stm32g4xx_hal_pcd.c ****   else
 818:Drivers/STM32G4xx_HAL_Driver/Src/stm32g4xx_hal_pcd.c ****   {
 819:Drivers/STM32G4xx_HAL_Driver/Src/stm32g4xx_hal_pcd.c ****     /* Update the error code */
 820:Drivers/STM32G4xx_HAL_Driver/Src/stm32g4xx_hal_pcd.c ****     hpcd->ErrorCode |= HAL_PCD_ERROR_INVALID_CALLBACK;
 821:Drivers/STM32G4xx_HAL_Driver/Src/stm32g4xx_hal_pcd.c **** 
 822:Drivers/STM32G4xx_HAL_Driver/Src/stm32g4xx_hal_pcd.c ****     /* Return error status */
 823:Drivers/STM32G4xx_HAL_Driver/Src/stm32g4xx_hal_pcd.c ****     status =  HAL_ERROR;
 824:Drivers/STM32G4xx_HAL_Driver/Src/stm32g4xx_hal_pcd.c ****   }
 825:Drivers/STM32G4xx_HAL_Driver/Src/stm32g4xx_hal_pcd.c **** 
 826:Drivers/STM32G4xx_HAL_Driver/Src/stm32g4xx_hal_pcd.c ****   /* Release Lock */
 827:Drivers/STM32G4xx_HAL_Driver/Src/stm32g4xx_hal_pcd.c ****   __HAL_UNLOCK(hpcd);
 828:Drivers/STM32G4xx_HAL_Driver/Src/stm32g4xx_hal_pcd.c **** 
 829:Drivers/STM32G4xx_HAL_Driver/Src/stm32g4xx_hal_pcd.c ****   return status;
 830:Drivers/STM32G4xx_HAL_Driver/Src/stm32g4xx_hal_pcd.c **** }
 831:Drivers/STM32G4xx_HAL_Driver/Src/stm32g4xx_hal_pcd.c **** 
 832:Drivers/STM32G4xx_HAL_Driver/Src/stm32g4xx_hal_pcd.c **** /**
 833:Drivers/STM32G4xx_HAL_Driver/Src/stm32g4xx_hal_pcd.c ****   * @brief  UnRegister the USB PCD BCD Callback
 834:Drivers/STM32G4xx_HAL_Driver/Src/stm32g4xx_hal_pcd.c ****   *         USB BCD Callback is redirected to the weak HAL_PCDEx_BCD_Callback() predefined callback
 835:Drivers/STM32G4xx_HAL_Driver/Src/stm32g4xx_hal_pcd.c ****   * @param  hpcd PCD handle
 836:Drivers/STM32G4xx_HAL_Driver/Src/stm32g4xx_hal_pcd.c ****   * @retval HAL status
 837:Drivers/STM32G4xx_HAL_Driver/Src/stm32g4xx_hal_pcd.c ****   */
 838:Drivers/STM32G4xx_HAL_Driver/Src/stm32g4xx_hal_pcd.c **** HAL_StatusTypeDef HAL_PCD_UnRegisterBcdCallback(PCD_HandleTypeDef *hpcd)
 839:Drivers/STM32G4xx_HAL_Driver/Src/stm32g4xx_hal_pcd.c **** {
 840:Drivers/STM32G4xx_HAL_Driver/Src/stm32g4xx_hal_pcd.c ****   HAL_StatusTypeDef status = HAL_OK;
 841:Drivers/STM32G4xx_HAL_Driver/Src/stm32g4xx_hal_pcd.c **** 
 842:Drivers/STM32G4xx_HAL_Driver/Src/stm32g4xx_hal_pcd.c ****   /* Process locked */
 843:Drivers/STM32G4xx_HAL_Driver/Src/stm32g4xx_hal_pcd.c ****   __HAL_LOCK(hpcd);
 844:Drivers/STM32G4xx_HAL_Driver/Src/stm32g4xx_hal_pcd.c **** 
 845:Drivers/STM32G4xx_HAL_Driver/Src/stm32g4xx_hal_pcd.c ****   if (hpcd->State == HAL_PCD_STATE_READY)
 846:Drivers/STM32G4xx_HAL_Driver/Src/stm32g4xx_hal_pcd.c ****   {
 847:Drivers/STM32G4xx_HAL_Driver/Src/stm32g4xx_hal_pcd.c ****     hpcd->BCDCallback = HAL_PCDEx_BCD_Callback; /* Legacy weak HAL_PCDEx_BCD_Callback  */
 848:Drivers/STM32G4xx_HAL_Driver/Src/stm32g4xx_hal_pcd.c ****   }
 849:Drivers/STM32G4xx_HAL_Driver/Src/stm32g4xx_hal_pcd.c ****   else
 850:Drivers/STM32G4xx_HAL_Driver/Src/stm32g4xx_hal_pcd.c ****   {
 851:Drivers/STM32G4xx_HAL_Driver/Src/stm32g4xx_hal_pcd.c ****     /* Update the error code */
 852:Drivers/STM32G4xx_HAL_Driver/Src/stm32g4xx_hal_pcd.c ****     hpcd->ErrorCode |= HAL_PCD_ERROR_INVALID_CALLBACK;
 853:Drivers/STM32G4xx_HAL_Driver/Src/stm32g4xx_hal_pcd.c **** 
 854:Drivers/STM32G4xx_HAL_Driver/Src/stm32g4xx_hal_pcd.c ****     /* Return error status */
 855:Drivers/STM32G4xx_HAL_Driver/Src/stm32g4xx_hal_pcd.c ****     status =  HAL_ERROR;
 856:Drivers/STM32G4xx_HAL_Driver/Src/stm32g4xx_hal_pcd.c ****   }
 857:Drivers/STM32G4xx_HAL_Driver/Src/stm32g4xx_hal_pcd.c **** 
 858:Drivers/STM32G4xx_HAL_Driver/Src/stm32g4xx_hal_pcd.c ****   /* Release Lock */
 859:Drivers/STM32G4xx_HAL_Driver/Src/stm32g4xx_hal_pcd.c ****   __HAL_UNLOCK(hpcd);
 860:Drivers/STM32G4xx_HAL_Driver/Src/stm32g4xx_hal_pcd.c **** 
 861:Drivers/STM32G4xx_HAL_Driver/Src/stm32g4xx_hal_pcd.c ****   return status;
 862:Drivers/STM32G4xx_HAL_Driver/Src/stm32g4xx_hal_pcd.c **** }
 863:Drivers/STM32G4xx_HAL_Driver/Src/stm32g4xx_hal_pcd.c **** 
 864:Drivers/STM32G4xx_HAL_Driver/Src/stm32g4xx_hal_pcd.c **** /**
 865:Drivers/STM32G4xx_HAL_Driver/Src/stm32g4xx_hal_pcd.c ****   * @brief  Register USB PCD LPM Callback
 866:Drivers/STM32G4xx_HAL_Driver/Src/stm32g4xx_hal_pcd.c ****   *         To be used instead of the weak HAL_PCDEx_LPM_Callback() predefined callback
ARM GAS  /tmp/cc4MD8jd.s 			page 24


 867:Drivers/STM32G4xx_HAL_Driver/Src/stm32g4xx_hal_pcd.c ****   * @param  hpcd PCD handle
 868:Drivers/STM32G4xx_HAL_Driver/Src/stm32g4xx_hal_pcd.c ****   * @param  pCallback pointer to the USB PCD LPM Callback function
 869:Drivers/STM32G4xx_HAL_Driver/Src/stm32g4xx_hal_pcd.c ****   * @retval HAL status
 870:Drivers/STM32G4xx_HAL_Driver/Src/stm32g4xx_hal_pcd.c ****   */
 871:Drivers/STM32G4xx_HAL_Driver/Src/stm32g4xx_hal_pcd.c **** HAL_StatusTypeDef HAL_PCD_RegisterLpmCallback(PCD_HandleTypeDef *hpcd, pPCD_LpmCallbackTypeDef pCal
 872:Drivers/STM32G4xx_HAL_Driver/Src/stm32g4xx_hal_pcd.c **** {
 873:Drivers/STM32G4xx_HAL_Driver/Src/stm32g4xx_hal_pcd.c ****   HAL_StatusTypeDef status = HAL_OK;
 874:Drivers/STM32G4xx_HAL_Driver/Src/stm32g4xx_hal_pcd.c **** 
 875:Drivers/STM32G4xx_HAL_Driver/Src/stm32g4xx_hal_pcd.c ****   if (pCallback == NULL)
 876:Drivers/STM32G4xx_HAL_Driver/Src/stm32g4xx_hal_pcd.c ****   {
 877:Drivers/STM32G4xx_HAL_Driver/Src/stm32g4xx_hal_pcd.c ****     /* Update the error code */
 878:Drivers/STM32G4xx_HAL_Driver/Src/stm32g4xx_hal_pcd.c ****     hpcd->ErrorCode |= HAL_PCD_ERROR_INVALID_CALLBACK;
 879:Drivers/STM32G4xx_HAL_Driver/Src/stm32g4xx_hal_pcd.c **** 
 880:Drivers/STM32G4xx_HAL_Driver/Src/stm32g4xx_hal_pcd.c ****     return HAL_ERROR;
 881:Drivers/STM32G4xx_HAL_Driver/Src/stm32g4xx_hal_pcd.c ****   }
 882:Drivers/STM32G4xx_HAL_Driver/Src/stm32g4xx_hal_pcd.c **** 
 883:Drivers/STM32G4xx_HAL_Driver/Src/stm32g4xx_hal_pcd.c ****   /* Process locked */
 884:Drivers/STM32G4xx_HAL_Driver/Src/stm32g4xx_hal_pcd.c ****   __HAL_LOCK(hpcd);
 885:Drivers/STM32G4xx_HAL_Driver/Src/stm32g4xx_hal_pcd.c **** 
 886:Drivers/STM32G4xx_HAL_Driver/Src/stm32g4xx_hal_pcd.c ****   if (hpcd->State == HAL_PCD_STATE_READY)
 887:Drivers/STM32G4xx_HAL_Driver/Src/stm32g4xx_hal_pcd.c ****   {
 888:Drivers/STM32G4xx_HAL_Driver/Src/stm32g4xx_hal_pcd.c ****     hpcd->LPMCallback = pCallback;
 889:Drivers/STM32G4xx_HAL_Driver/Src/stm32g4xx_hal_pcd.c ****   }
 890:Drivers/STM32G4xx_HAL_Driver/Src/stm32g4xx_hal_pcd.c ****   else
 891:Drivers/STM32G4xx_HAL_Driver/Src/stm32g4xx_hal_pcd.c ****   {
 892:Drivers/STM32G4xx_HAL_Driver/Src/stm32g4xx_hal_pcd.c ****     /* Update the error code */
 893:Drivers/STM32G4xx_HAL_Driver/Src/stm32g4xx_hal_pcd.c ****     hpcd->ErrorCode |= HAL_PCD_ERROR_INVALID_CALLBACK;
 894:Drivers/STM32G4xx_HAL_Driver/Src/stm32g4xx_hal_pcd.c **** 
 895:Drivers/STM32G4xx_HAL_Driver/Src/stm32g4xx_hal_pcd.c ****     /* Return error status */
 896:Drivers/STM32G4xx_HAL_Driver/Src/stm32g4xx_hal_pcd.c ****     status =  HAL_ERROR;
 897:Drivers/STM32G4xx_HAL_Driver/Src/stm32g4xx_hal_pcd.c ****   }
 898:Drivers/STM32G4xx_HAL_Driver/Src/stm32g4xx_hal_pcd.c **** 
 899:Drivers/STM32G4xx_HAL_Driver/Src/stm32g4xx_hal_pcd.c ****   /* Release Lock */
 900:Drivers/STM32G4xx_HAL_Driver/Src/stm32g4xx_hal_pcd.c ****   __HAL_UNLOCK(hpcd);
 901:Drivers/STM32G4xx_HAL_Driver/Src/stm32g4xx_hal_pcd.c **** 
 902:Drivers/STM32G4xx_HAL_Driver/Src/stm32g4xx_hal_pcd.c ****   return status;
 903:Drivers/STM32G4xx_HAL_Driver/Src/stm32g4xx_hal_pcd.c **** }
 904:Drivers/STM32G4xx_HAL_Driver/Src/stm32g4xx_hal_pcd.c **** 
 905:Drivers/STM32G4xx_HAL_Driver/Src/stm32g4xx_hal_pcd.c **** /**
 906:Drivers/STM32G4xx_HAL_Driver/Src/stm32g4xx_hal_pcd.c ****   * @brief  UnRegister the USB PCD LPM Callback
 907:Drivers/STM32G4xx_HAL_Driver/Src/stm32g4xx_hal_pcd.c ****   *         USB LPM Callback is redirected to the weak HAL_PCDEx_LPM_Callback() predefined callback
 908:Drivers/STM32G4xx_HAL_Driver/Src/stm32g4xx_hal_pcd.c ****   * @param  hpcd PCD handle
 909:Drivers/STM32G4xx_HAL_Driver/Src/stm32g4xx_hal_pcd.c ****   * @retval HAL status
 910:Drivers/STM32G4xx_HAL_Driver/Src/stm32g4xx_hal_pcd.c ****   */
 911:Drivers/STM32G4xx_HAL_Driver/Src/stm32g4xx_hal_pcd.c **** HAL_StatusTypeDef HAL_PCD_UnRegisterLpmCallback(PCD_HandleTypeDef *hpcd)
 912:Drivers/STM32G4xx_HAL_Driver/Src/stm32g4xx_hal_pcd.c **** {
 913:Drivers/STM32G4xx_HAL_Driver/Src/stm32g4xx_hal_pcd.c ****   HAL_StatusTypeDef status = HAL_OK;
 914:Drivers/STM32G4xx_HAL_Driver/Src/stm32g4xx_hal_pcd.c **** 
 915:Drivers/STM32G4xx_HAL_Driver/Src/stm32g4xx_hal_pcd.c ****   /* Process locked */
 916:Drivers/STM32G4xx_HAL_Driver/Src/stm32g4xx_hal_pcd.c ****   __HAL_LOCK(hpcd);
 917:Drivers/STM32G4xx_HAL_Driver/Src/stm32g4xx_hal_pcd.c **** 
 918:Drivers/STM32G4xx_HAL_Driver/Src/stm32g4xx_hal_pcd.c ****   if (hpcd->State == HAL_PCD_STATE_READY)
 919:Drivers/STM32G4xx_HAL_Driver/Src/stm32g4xx_hal_pcd.c ****   {
 920:Drivers/STM32G4xx_HAL_Driver/Src/stm32g4xx_hal_pcd.c ****     hpcd->LPMCallback = HAL_PCDEx_LPM_Callback; /* Legacy weak HAL_PCDEx_LPM_Callback  */
 921:Drivers/STM32G4xx_HAL_Driver/Src/stm32g4xx_hal_pcd.c ****   }
 922:Drivers/STM32G4xx_HAL_Driver/Src/stm32g4xx_hal_pcd.c ****   else
 923:Drivers/STM32G4xx_HAL_Driver/Src/stm32g4xx_hal_pcd.c ****   {
ARM GAS  /tmp/cc4MD8jd.s 			page 25


 924:Drivers/STM32G4xx_HAL_Driver/Src/stm32g4xx_hal_pcd.c ****     /* Update the error code */
 925:Drivers/STM32G4xx_HAL_Driver/Src/stm32g4xx_hal_pcd.c ****     hpcd->ErrorCode |= HAL_PCD_ERROR_INVALID_CALLBACK;
 926:Drivers/STM32G4xx_HAL_Driver/Src/stm32g4xx_hal_pcd.c **** 
 927:Drivers/STM32G4xx_HAL_Driver/Src/stm32g4xx_hal_pcd.c ****     /* Return error status */
 928:Drivers/STM32G4xx_HAL_Driver/Src/stm32g4xx_hal_pcd.c ****     status =  HAL_ERROR;
 929:Drivers/STM32G4xx_HAL_Driver/Src/stm32g4xx_hal_pcd.c ****   }
 930:Drivers/STM32G4xx_HAL_Driver/Src/stm32g4xx_hal_pcd.c **** 
 931:Drivers/STM32G4xx_HAL_Driver/Src/stm32g4xx_hal_pcd.c ****   /* Release Lock */
 932:Drivers/STM32G4xx_HAL_Driver/Src/stm32g4xx_hal_pcd.c ****   __HAL_UNLOCK(hpcd);
 933:Drivers/STM32G4xx_HAL_Driver/Src/stm32g4xx_hal_pcd.c **** 
 934:Drivers/STM32G4xx_HAL_Driver/Src/stm32g4xx_hal_pcd.c ****   return status;
 935:Drivers/STM32G4xx_HAL_Driver/Src/stm32g4xx_hal_pcd.c **** }
 936:Drivers/STM32G4xx_HAL_Driver/Src/stm32g4xx_hal_pcd.c **** #endif /* USE_HAL_PCD_REGISTER_CALLBACKS */
 937:Drivers/STM32G4xx_HAL_Driver/Src/stm32g4xx_hal_pcd.c **** 
 938:Drivers/STM32G4xx_HAL_Driver/Src/stm32g4xx_hal_pcd.c **** /**
 939:Drivers/STM32G4xx_HAL_Driver/Src/stm32g4xx_hal_pcd.c ****   * @}
 940:Drivers/STM32G4xx_HAL_Driver/Src/stm32g4xx_hal_pcd.c ****   */
 941:Drivers/STM32G4xx_HAL_Driver/Src/stm32g4xx_hal_pcd.c **** 
 942:Drivers/STM32G4xx_HAL_Driver/Src/stm32g4xx_hal_pcd.c **** /** @defgroup PCD_Exported_Functions_Group2 Input and Output operation functions
 943:Drivers/STM32G4xx_HAL_Driver/Src/stm32g4xx_hal_pcd.c ****  *  @brief   Data transfers functions
 944:Drivers/STM32G4xx_HAL_Driver/Src/stm32g4xx_hal_pcd.c ****  *
 945:Drivers/STM32G4xx_HAL_Driver/Src/stm32g4xx_hal_pcd.c **** @verbatim
 946:Drivers/STM32G4xx_HAL_Driver/Src/stm32g4xx_hal_pcd.c ****  ===============================================================================
 947:Drivers/STM32G4xx_HAL_Driver/Src/stm32g4xx_hal_pcd.c ****                       ##### IO operation functions #####
 948:Drivers/STM32G4xx_HAL_Driver/Src/stm32g4xx_hal_pcd.c ****  ===============================================================================
 949:Drivers/STM32G4xx_HAL_Driver/Src/stm32g4xx_hal_pcd.c ****     [..]
 950:Drivers/STM32G4xx_HAL_Driver/Src/stm32g4xx_hal_pcd.c ****     This subsection provides a set of functions allowing to manage the PCD data
 951:Drivers/STM32G4xx_HAL_Driver/Src/stm32g4xx_hal_pcd.c ****     transfers.
 952:Drivers/STM32G4xx_HAL_Driver/Src/stm32g4xx_hal_pcd.c **** 
 953:Drivers/STM32G4xx_HAL_Driver/Src/stm32g4xx_hal_pcd.c **** @endverbatim
 954:Drivers/STM32G4xx_HAL_Driver/Src/stm32g4xx_hal_pcd.c ****   * @{
 955:Drivers/STM32G4xx_HAL_Driver/Src/stm32g4xx_hal_pcd.c ****   */
 956:Drivers/STM32G4xx_HAL_Driver/Src/stm32g4xx_hal_pcd.c **** 
 957:Drivers/STM32G4xx_HAL_Driver/Src/stm32g4xx_hal_pcd.c **** /**
 958:Drivers/STM32G4xx_HAL_Driver/Src/stm32g4xx_hal_pcd.c ****   * @brief  Start the USB device
 959:Drivers/STM32G4xx_HAL_Driver/Src/stm32g4xx_hal_pcd.c ****   * @param  hpcd PCD handle
 960:Drivers/STM32G4xx_HAL_Driver/Src/stm32g4xx_hal_pcd.c ****   * @retval HAL status
 961:Drivers/STM32G4xx_HAL_Driver/Src/stm32g4xx_hal_pcd.c ****   */
 962:Drivers/STM32G4xx_HAL_Driver/Src/stm32g4xx_hal_pcd.c **** HAL_StatusTypeDef HAL_PCD_Start(PCD_HandleTypeDef *hpcd)
 963:Drivers/STM32G4xx_HAL_Driver/Src/stm32g4xx_hal_pcd.c **** {
 447              		.loc 1 963 1
 448              		.cfi_startproc
 449              		@ args = 0, pretend = 0, frame = 8
 450              		@ frame_needed = 1, uses_anonymous_args = 0
 451 0000 80B5     		push	{r7, lr}
 452              	.LCFI22:
 453              		.cfi_def_cfa_offset 8
 454              		.cfi_offset 7, -8
 455              		.cfi_offset 14, -4
 456 0002 82B0     		sub	sp, sp, #8
 457              	.LCFI23:
 458              		.cfi_def_cfa_offset 16
 459 0004 00AF     		add	r7, sp, #0
 460              	.LCFI24:
 461              		.cfi_def_cfa_register 7
 462 0006 7860     		str	r0, [r7, #4]
 964:Drivers/STM32G4xx_HAL_Driver/Src/stm32g4xx_hal_pcd.c ****   __HAL_LOCK(hpcd);
ARM GAS  /tmp/cc4MD8jd.s 			page 26


 463              		.loc 1 964 3
 464 0008 7B68     		ldr	r3, [r7, #4]
 465 000a 93F82832 		ldrb	r3, [r3, #552]	@ zero_extendqisi2
 466 000e 012B     		cmp	r3, #1
 467 0010 01D1     		bne	.L16
 468              		.loc 1 964 3 is_stmt 0 discriminator 1
 469 0012 0223     		movs	r3, #2
 470 0014 12E0     		b	.L17
 471              	.L16:
 472              		.loc 1 964 3 discriminator 2
 473 0016 7B68     		ldr	r3, [r7, #4]
 474 0018 0122     		movs	r2, #1
 475 001a 83F82822 		strb	r2, [r3, #552]
 965:Drivers/STM32G4xx_HAL_Driver/Src/stm32g4xx_hal_pcd.c ****   (void)USB_DevConnect(hpcd->Instance);
 476              		.loc 1 965 28 is_stmt 1 discriminator 2
 477 001e 7B68     		ldr	r3, [r7, #4]
 478 0020 1B68     		ldr	r3, [r3]
 479              		.loc 1 965 9 discriminator 2
 480 0022 1846     		mov	r0, r3
 481 0024 FFF7FEFF 		bl	USB_DevConnect
 966:Drivers/STM32G4xx_HAL_Driver/Src/stm32g4xx_hal_pcd.c ****   __HAL_PCD_ENABLE(hpcd);
 482              		.loc 1 966 3 discriminator 2
 483 0028 7B68     		ldr	r3, [r7, #4]
 484 002a 1B68     		ldr	r3, [r3]
 485 002c 1846     		mov	r0, r3
 486 002e FFF7FEFF 		bl	USB_EnableGlobalInt
 967:Drivers/STM32G4xx_HAL_Driver/Src/stm32g4xx_hal_pcd.c ****   __HAL_UNLOCK(hpcd);
 487              		.loc 1 967 3 discriminator 2
 488 0032 7B68     		ldr	r3, [r7, #4]
 489 0034 0022     		movs	r2, #0
 490 0036 83F82822 		strb	r2, [r3, #552]
 968:Drivers/STM32G4xx_HAL_Driver/Src/stm32g4xx_hal_pcd.c ****   return HAL_OK;
 491              		.loc 1 968 10 discriminator 2
 492 003a 0023     		movs	r3, #0
 493              	.L17:
 969:Drivers/STM32G4xx_HAL_Driver/Src/stm32g4xx_hal_pcd.c **** }
 494              		.loc 1 969 1
 495 003c 1846     		mov	r0, r3
 496 003e 0837     		adds	r7, r7, #8
 497              	.LCFI25:
 498              		.cfi_def_cfa_offset 8
 499 0040 BD46     		mov	sp, r7
 500              	.LCFI26:
 501              		.cfi_def_cfa_register 13
 502              		@ sp needed
 503 0042 80BD     		pop	{r7, pc}
 504              		.cfi_endproc
 505              	.LFE329:
 507              		.section	.text.HAL_PCD_Stop,"ax",%progbits
 508              		.align	1
 509              		.global	HAL_PCD_Stop
 510              		.syntax unified
 511              		.thumb
 512              		.thumb_func
 513              		.fpu fpv4-sp-d16
 515              	HAL_PCD_Stop:
 516              	.LFB330:
ARM GAS  /tmp/cc4MD8jd.s 			page 27


 970:Drivers/STM32G4xx_HAL_Driver/Src/stm32g4xx_hal_pcd.c **** 
 971:Drivers/STM32G4xx_HAL_Driver/Src/stm32g4xx_hal_pcd.c **** /**
 972:Drivers/STM32G4xx_HAL_Driver/Src/stm32g4xx_hal_pcd.c ****   * @brief  Stop the USB device.
 973:Drivers/STM32G4xx_HAL_Driver/Src/stm32g4xx_hal_pcd.c ****   * @param  hpcd PCD handle
 974:Drivers/STM32G4xx_HAL_Driver/Src/stm32g4xx_hal_pcd.c ****   * @retval HAL status
 975:Drivers/STM32G4xx_HAL_Driver/Src/stm32g4xx_hal_pcd.c ****   */
 976:Drivers/STM32G4xx_HAL_Driver/Src/stm32g4xx_hal_pcd.c **** HAL_StatusTypeDef HAL_PCD_Stop(PCD_HandleTypeDef *hpcd)
 977:Drivers/STM32G4xx_HAL_Driver/Src/stm32g4xx_hal_pcd.c **** {
 517              		.loc 1 977 1
 518              		.cfi_startproc
 519              		@ args = 0, pretend = 0, frame = 8
 520              		@ frame_needed = 1, uses_anonymous_args = 0
 521 0000 80B5     		push	{r7, lr}
 522              	.LCFI27:
 523              		.cfi_def_cfa_offset 8
 524              		.cfi_offset 7, -8
 525              		.cfi_offset 14, -4
 526 0002 82B0     		sub	sp, sp, #8
 527              	.LCFI28:
 528              		.cfi_def_cfa_offset 16
 529 0004 00AF     		add	r7, sp, #0
 530              	.LCFI29:
 531              		.cfi_def_cfa_register 7
 532 0006 7860     		str	r0, [r7, #4]
 978:Drivers/STM32G4xx_HAL_Driver/Src/stm32g4xx_hal_pcd.c ****   __HAL_LOCK(hpcd);
 533              		.loc 1 978 3
 534 0008 7B68     		ldr	r3, [r7, #4]
 535 000a 93F82832 		ldrb	r3, [r3, #552]	@ zero_extendqisi2
 536 000e 012B     		cmp	r3, #1
 537 0010 01D1     		bne	.L19
 538              		.loc 1 978 3 is_stmt 0 discriminator 1
 539 0012 0223     		movs	r3, #2
 540 0014 12E0     		b	.L20
 541              	.L19:
 542              		.loc 1 978 3 discriminator 2
 543 0016 7B68     		ldr	r3, [r7, #4]
 544 0018 0122     		movs	r2, #1
 545 001a 83F82822 		strb	r2, [r3, #552]
 979:Drivers/STM32G4xx_HAL_Driver/Src/stm32g4xx_hal_pcd.c ****   __HAL_PCD_DISABLE(hpcd);
 546              		.loc 1 979 3 is_stmt 1 discriminator 2
 547 001e 7B68     		ldr	r3, [r7, #4]
 548 0020 1B68     		ldr	r3, [r3]
 549 0022 1846     		mov	r0, r3
 550 0024 FFF7FEFF 		bl	USB_DisableGlobalInt
 980:Drivers/STM32G4xx_HAL_Driver/Src/stm32g4xx_hal_pcd.c **** 
 981:Drivers/STM32G4xx_HAL_Driver/Src/stm32g4xx_hal_pcd.c ****   (void)USB_StopDevice(hpcd->Instance);
 551              		.loc 1 981 28 discriminator 2
 552 0028 7B68     		ldr	r3, [r7, #4]
 553 002a 1B68     		ldr	r3, [r3]
 554              		.loc 1 981 9 discriminator 2
 555 002c 1846     		mov	r0, r3
 556 002e FFF7FEFF 		bl	USB_StopDevice
 982:Drivers/STM32G4xx_HAL_Driver/Src/stm32g4xx_hal_pcd.c **** 
 983:Drivers/STM32G4xx_HAL_Driver/Src/stm32g4xx_hal_pcd.c ****   __HAL_UNLOCK(hpcd);
 557              		.loc 1 983 3 discriminator 2
 558 0032 7B68     		ldr	r3, [r7, #4]
 559 0034 0022     		movs	r2, #0
ARM GAS  /tmp/cc4MD8jd.s 			page 28


 560 0036 83F82822 		strb	r2, [r3, #552]
 984:Drivers/STM32G4xx_HAL_Driver/Src/stm32g4xx_hal_pcd.c **** 
 985:Drivers/STM32G4xx_HAL_Driver/Src/stm32g4xx_hal_pcd.c ****   return HAL_OK;
 561              		.loc 1 985 10 discriminator 2
 562 003a 0023     		movs	r3, #0
 563              	.L20:
 986:Drivers/STM32G4xx_HAL_Driver/Src/stm32g4xx_hal_pcd.c **** }
 564              		.loc 1 986 1
 565 003c 1846     		mov	r0, r3
 566 003e 0837     		adds	r7, r7, #8
 567              	.LCFI30:
 568              		.cfi_def_cfa_offset 8
 569 0040 BD46     		mov	sp, r7
 570              	.LCFI31:
 571              		.cfi_def_cfa_register 13
 572              		@ sp needed
 573 0042 80BD     		pop	{r7, pc}
 574              		.cfi_endproc
 575              	.LFE330:
 577              		.section	.text.HAL_PCD_IRQHandler,"ax",%progbits
 578              		.align	1
 579              		.global	HAL_PCD_IRQHandler
 580              		.syntax unified
 581              		.thumb
 582              		.thumb_func
 583              		.fpu fpv4-sp-d16
 585              	HAL_PCD_IRQHandler:
 586              	.LFB334:
 987:Drivers/STM32G4xx_HAL_Driver/Src/stm32g4xx_hal_pcd.c **** 
 988:Drivers/STM32G4xx_HAL_Driver/Src/stm32g4xx_hal_pcd.c **** #include "usbd_def.h"
 989:Drivers/STM32G4xx_HAL_Driver/Src/stm32g4xx_hal_pcd.c **** /**
 990:Drivers/STM32G4xx_HAL_Driver/Src/stm32g4xx_hal_pcd.c ****   * @brief  This function handles PCD interrupt request.
 991:Drivers/STM32G4xx_HAL_Driver/Src/stm32g4xx_hal_pcd.c ****   * @param  hpcd PCD handle
 992:Drivers/STM32G4xx_HAL_Driver/Src/stm32g4xx_hal_pcd.c ****   * @retval HAL status
 993:Drivers/STM32G4xx_HAL_Driver/Src/stm32g4xx_hal_pcd.c ****   */
 994:Drivers/STM32G4xx_HAL_Driver/Src/stm32g4xx_hal_pcd.c **** void HAL_PCD_IRQHandler(PCD_HandleTypeDef *hpcd)
 995:Drivers/STM32G4xx_HAL_Driver/Src/stm32g4xx_hal_pcd.c **** {
 587              		.loc 1 995 1
 588              		.cfi_startproc
 589              		@ args = 0, pretend = 0, frame = 8
 590              		@ frame_needed = 1, uses_anonymous_args = 0
 591 0000 80B5     		push	{r7, lr}
 592              	.LCFI32:
 593              		.cfi_def_cfa_offset 8
 594              		.cfi_offset 7, -8
 595              		.cfi_offset 14, -4
 596 0002 82B0     		sub	sp, sp, #8
 597              	.LCFI33:
 598              		.cfi_def_cfa_offset 16
 599 0004 00AF     		add	r7, sp, #0
 600              	.LCFI34:
 601              		.cfi_def_cfa_register 7
 602 0006 7860     		str	r0, [r7, #4]
 996:Drivers/STM32G4xx_HAL_Driver/Src/stm32g4xx_hal_pcd.c ****   if (__HAL_PCD_GET_FLAG(hpcd, USB_ISTR_CTR))
 603              		.loc 1 996 7
 604 0008 7B68     		ldr	r3, [r7, #4]
 605 000a 1B68     		ldr	r3, [r3]
ARM GAS  /tmp/cc4MD8jd.s 			page 29


 606 000c 1846     		mov	r0, r3
 607 000e FFF7FEFF 		bl	USB_ReadInterrupts
 608 0012 0346     		mov	r3, r0
 609 0014 03F40043 		and	r3, r3, #32768
 610              		.loc 1 996 6
 611 0018 B3F5004F 		cmp	r3, #32768
 612 001c 02D1     		bne	.L22
 997:Drivers/STM32G4xx_HAL_Driver/Src/stm32g4xx_hal_pcd.c ****   {
 998:Drivers/STM32G4xx_HAL_Driver/Src/stm32g4xx_hal_pcd.c ****     /* servicing of the endpoint correct transfer interrupt */
 999:Drivers/STM32G4xx_HAL_Driver/Src/stm32g4xx_hal_pcd.c ****     /* clear of the CTR flag into the sub */
1000:Drivers/STM32G4xx_HAL_Driver/Src/stm32g4xx_hal_pcd.c ****     (void)PCD_EP_ISR_Handler(hpcd);
 613              		.loc 1 1000 11
 614 001e 7868     		ldr	r0, [r7, #4]
 615 0020 FFF7FEFF 		bl	PCD_EP_ISR_Handler
 616              	.L22:
1001:Drivers/STM32G4xx_HAL_Driver/Src/stm32g4xx_hal_pcd.c ****   }
1002:Drivers/STM32G4xx_HAL_Driver/Src/stm32g4xx_hal_pcd.c **** 
1003:Drivers/STM32G4xx_HAL_Driver/Src/stm32g4xx_hal_pcd.c ****   if (__HAL_PCD_GET_FLAG(hpcd, USB_ISTR_RESET))
 617              		.loc 1 1003 7
 618 0024 7B68     		ldr	r3, [r7, #4]
 619 0026 1B68     		ldr	r3, [r3]
 620 0028 1846     		mov	r0, r3
 621 002a FFF7FEFF 		bl	USB_ReadInterrupts
 622 002e 0346     		mov	r3, r0
 623 0030 03F48063 		and	r3, r3, #1024
 624              		.loc 1 1003 6
 625 0034 B3F5806F 		cmp	r3, #1024
 626 0038 12D1     		bne	.L23
1004:Drivers/STM32G4xx_HAL_Driver/Src/stm32g4xx_hal_pcd.c ****   {
1005:Drivers/STM32G4xx_HAL_Driver/Src/stm32g4xx_hal_pcd.c ****     __HAL_PCD_CLEAR_FLAG(hpcd, USB_ISTR_RESET);
 627              		.loc 1 1005 5
 628 003a 7B68     		ldr	r3, [r7, #4]
 629 003c 1B68     		ldr	r3, [r3]
 630 003e B3F84430 		ldrh	r3, [r3, #68]	@ movhi
 631 0042 9AB2     		uxth	r2, r3
 632 0044 7B68     		ldr	r3, [r7, #4]
 633 0046 1B68     		ldr	r3, [r3]
 634 0048 22F48062 		bic	r2, r2, #1024
 635 004c 92B2     		uxth	r2, r2
 636 004e A3F84420 		strh	r2, [r3, #68]	@ movhi
1006:Drivers/STM32G4xx_HAL_Driver/Src/stm32g4xx_hal_pcd.c **** 
1007:Drivers/STM32G4xx_HAL_Driver/Src/stm32g4xx_hal_pcd.c **** #if (USE_HAL_PCD_REGISTER_CALLBACKS == 1U)
1008:Drivers/STM32G4xx_HAL_Driver/Src/stm32g4xx_hal_pcd.c ****     hpcd->ResetCallback(hpcd);
1009:Drivers/STM32G4xx_HAL_Driver/Src/stm32g4xx_hal_pcd.c **** #else
1010:Drivers/STM32G4xx_HAL_Driver/Src/stm32g4xx_hal_pcd.c ****     HAL_PCD_ResetCallback(hpcd);
 637              		.loc 1 1010 5
 638 0052 7868     		ldr	r0, [r7, #4]
 639 0054 FFF7FEFF 		bl	HAL_PCD_ResetCallback
1011:Drivers/STM32G4xx_HAL_Driver/Src/stm32g4xx_hal_pcd.c **** #endif /* USE_HAL_PCD_REGISTER_CALLBACKS */
1012:Drivers/STM32G4xx_HAL_Driver/Src/stm32g4xx_hal_pcd.c **** 
1013:Drivers/STM32G4xx_HAL_Driver/Src/stm32g4xx_hal_pcd.c ****     (void)HAL_PCD_SetAddress(hpcd, 0U);
 640              		.loc 1 1013 11
 641 0058 0021     		movs	r1, #0
 642 005a 7868     		ldr	r0, [r7, #4]
 643 005c FFF7FEFF 		bl	HAL_PCD_SetAddress
 644              	.L23:
1014:Drivers/STM32G4xx_HAL_Driver/Src/stm32g4xx_hal_pcd.c ****   }
ARM GAS  /tmp/cc4MD8jd.s 			page 30


1015:Drivers/STM32G4xx_HAL_Driver/Src/stm32g4xx_hal_pcd.c **** 
1016:Drivers/STM32G4xx_HAL_Driver/Src/stm32g4xx_hal_pcd.c ****   if (__HAL_PCD_GET_FLAG(hpcd, USB_ISTR_PMAOVR))
 645              		.loc 1 1016 7
 646 0060 7B68     		ldr	r3, [r7, #4]
 647 0062 1B68     		ldr	r3, [r3]
 648 0064 1846     		mov	r0, r3
 649 0066 FFF7FEFF 		bl	USB_ReadInterrupts
 650 006a 0346     		mov	r3, r0
 651 006c 03F48043 		and	r3, r3, #16384
 652              		.loc 1 1016 6
 653 0070 B3F5804F 		cmp	r3, #16384
 654 0074 0BD1     		bne	.L24
1017:Drivers/STM32G4xx_HAL_Driver/Src/stm32g4xx_hal_pcd.c ****   {
1018:Drivers/STM32G4xx_HAL_Driver/Src/stm32g4xx_hal_pcd.c ****     __HAL_PCD_CLEAR_FLAG(hpcd, USB_ISTR_PMAOVR);
 655              		.loc 1 1018 5
 656 0076 7B68     		ldr	r3, [r7, #4]
 657 0078 1B68     		ldr	r3, [r3]
 658 007a B3F84430 		ldrh	r3, [r3, #68]	@ movhi
 659 007e 9AB2     		uxth	r2, r3
 660 0080 7B68     		ldr	r3, [r7, #4]
 661 0082 1B68     		ldr	r3, [r3]
 662 0084 22F48042 		bic	r2, r2, #16384
 663 0088 92B2     		uxth	r2, r2
 664 008a A3F84420 		strh	r2, [r3, #68]	@ movhi
 665              	.L24:
1019:Drivers/STM32G4xx_HAL_Driver/Src/stm32g4xx_hal_pcd.c ****   }
1020:Drivers/STM32G4xx_HAL_Driver/Src/stm32g4xx_hal_pcd.c **** 
1021:Drivers/STM32G4xx_HAL_Driver/Src/stm32g4xx_hal_pcd.c ****   if (__HAL_PCD_GET_FLAG(hpcd, USB_ISTR_ERR))
 666              		.loc 1 1021 7
 667 008e 7B68     		ldr	r3, [r7, #4]
 668 0090 1B68     		ldr	r3, [r3]
 669 0092 1846     		mov	r0, r3
 670 0094 FFF7FEFF 		bl	USB_ReadInterrupts
 671 0098 0346     		mov	r3, r0
 672 009a 03F40053 		and	r3, r3, #8192
 673              		.loc 1 1021 6
 674 009e B3F5005F 		cmp	r3, #8192
 675 00a2 0BD1     		bne	.L25
1022:Drivers/STM32G4xx_HAL_Driver/Src/stm32g4xx_hal_pcd.c ****   {
1023:Drivers/STM32G4xx_HAL_Driver/Src/stm32g4xx_hal_pcd.c ****     __HAL_PCD_CLEAR_FLAG(hpcd, USB_ISTR_ERR);
 676              		.loc 1 1023 5
 677 00a4 7B68     		ldr	r3, [r7, #4]
 678 00a6 1B68     		ldr	r3, [r3]
 679 00a8 B3F84430 		ldrh	r3, [r3, #68]	@ movhi
 680 00ac 9AB2     		uxth	r2, r3
 681 00ae 7B68     		ldr	r3, [r7, #4]
 682 00b0 1B68     		ldr	r3, [r3]
 683 00b2 22F40052 		bic	r2, r2, #8192
 684 00b6 92B2     		uxth	r2, r2
 685 00b8 A3F84420 		strh	r2, [r3, #68]	@ movhi
 686              	.L25:
1024:Drivers/STM32G4xx_HAL_Driver/Src/stm32g4xx_hal_pcd.c ****   }
1025:Drivers/STM32G4xx_HAL_Driver/Src/stm32g4xx_hal_pcd.c **** 
1026:Drivers/STM32G4xx_HAL_Driver/Src/stm32g4xx_hal_pcd.c ****   if (__HAL_PCD_GET_FLAG(hpcd, USB_ISTR_WKUP))
 687              		.loc 1 1026 7
 688 00bc 7B68     		ldr	r3, [r7, #4]
 689 00be 1B68     		ldr	r3, [r3]
ARM GAS  /tmp/cc4MD8jd.s 			page 31


 690 00c0 1846     		mov	r0, r3
 691 00c2 FFF7FEFF 		bl	USB_ReadInterrupts
 692 00c6 0346     		mov	r3, r0
 693 00c8 03F48053 		and	r3, r3, #4096
 694              		.loc 1 1026 6
 695 00cc B3F5805F 		cmp	r3, #4096
 696 00d0 33D1     		bne	.L26
1027:Drivers/STM32G4xx_HAL_Driver/Src/stm32g4xx_hal_pcd.c ****   {
1028:Drivers/STM32G4xx_HAL_Driver/Src/stm32g4xx_hal_pcd.c ****     hpcd->Instance->CNTR &= (uint16_t) ~(USB_CNTR_LPMODE);
 697              		.loc 1 1028 9
 698 00d2 7B68     		ldr	r3, [r7, #4]
 699 00d4 1B68     		ldr	r3, [r3]
 700              		.loc 1 1028 26
 701 00d6 B3F84030 		ldrh	r3, [r3, #64]	@ movhi
 702 00da 9AB2     		uxth	r2, r3
 703              		.loc 1 1028 9
 704 00dc 7B68     		ldr	r3, [r7, #4]
 705 00de 1B68     		ldr	r3, [r3]
 706              		.loc 1 1028 26
 707 00e0 22F00402 		bic	r2, r2, #4
 708 00e4 92B2     		uxth	r2, r2
 709 00e6 A3F84020 		strh	r2, [r3, #64]	@ movhi
1029:Drivers/STM32G4xx_HAL_Driver/Src/stm32g4xx_hal_pcd.c ****     hpcd->Instance->CNTR &= (uint16_t) ~(USB_CNTR_FSUSP);
 710              		.loc 1 1029 9
 711 00ea 7B68     		ldr	r3, [r7, #4]
 712 00ec 1B68     		ldr	r3, [r3]
 713              		.loc 1 1029 26
 714 00ee B3F84030 		ldrh	r3, [r3, #64]	@ movhi
 715 00f2 9AB2     		uxth	r2, r3
 716              		.loc 1 1029 9
 717 00f4 7B68     		ldr	r3, [r7, #4]
 718 00f6 1B68     		ldr	r3, [r3]
 719              		.loc 1 1029 26
 720 00f8 22F00802 		bic	r2, r2, #8
 721 00fc 92B2     		uxth	r2, r2
 722 00fe A3F84020 		strh	r2, [r3, #64]	@ movhi
1030:Drivers/STM32G4xx_HAL_Driver/Src/stm32g4xx_hal_pcd.c **** 
1031:Drivers/STM32G4xx_HAL_Driver/Src/stm32g4xx_hal_pcd.c ****     if (hpcd->LPM_State == LPM_L1)
 723              		.loc 1 1031 13
 724 0102 7B68     		ldr	r3, [r7, #4]
 725 0104 93F86032 		ldrb	r3, [r3, #608]	@ zero_extendqisi2
 726              		.loc 1 1031 8
 727 0108 012B     		cmp	r3, #1
 728 010a 07D1     		bne	.L27
1032:Drivers/STM32G4xx_HAL_Driver/Src/stm32g4xx_hal_pcd.c ****     {
1033:Drivers/STM32G4xx_HAL_Driver/Src/stm32g4xx_hal_pcd.c ****       hpcd->LPM_State = LPM_L0;
 729              		.loc 1 1033 23
 730 010c 7B68     		ldr	r3, [r7, #4]
 731 010e 0022     		movs	r2, #0
 732 0110 83F86022 		strb	r2, [r3, #608]
1034:Drivers/STM32G4xx_HAL_Driver/Src/stm32g4xx_hal_pcd.c **** #if (USE_HAL_PCD_REGISTER_CALLBACKS == 1U)
1035:Drivers/STM32G4xx_HAL_Driver/Src/stm32g4xx_hal_pcd.c ****       hpcd->LPMCallback(hpcd, PCD_LPM_L0_ACTIVE);
1036:Drivers/STM32G4xx_HAL_Driver/Src/stm32g4xx_hal_pcd.c **** #else
1037:Drivers/STM32G4xx_HAL_Driver/Src/stm32g4xx_hal_pcd.c ****       HAL_PCDEx_LPM_Callback(hpcd, PCD_LPM_L0_ACTIVE);
 733              		.loc 1 1037 7
 734 0114 0021     		movs	r1, #0
 735 0116 7868     		ldr	r0, [r7, #4]
ARM GAS  /tmp/cc4MD8jd.s 			page 32


 736 0118 FFF7FEFF 		bl	HAL_PCDEx_LPM_Callback
 737              	.L27:
1038:Drivers/STM32G4xx_HAL_Driver/Src/stm32g4xx_hal_pcd.c **** #endif /* USE_HAL_PCD_REGISTER_CALLBACKS */
1039:Drivers/STM32G4xx_HAL_Driver/Src/stm32g4xx_hal_pcd.c ****     }
1040:Drivers/STM32G4xx_HAL_Driver/Src/stm32g4xx_hal_pcd.c **** 
1041:Drivers/STM32G4xx_HAL_Driver/Src/stm32g4xx_hal_pcd.c **** #if (USE_HAL_PCD_REGISTER_CALLBACKS == 1U)
1042:Drivers/STM32G4xx_HAL_Driver/Src/stm32g4xx_hal_pcd.c ****     hpcd->ResumeCallback(hpcd);
1043:Drivers/STM32G4xx_HAL_Driver/Src/stm32g4xx_hal_pcd.c **** #else
1044:Drivers/STM32G4xx_HAL_Driver/Src/stm32g4xx_hal_pcd.c ****     HAL_PCD_ResumeCallback(hpcd);
 738              		.loc 1 1044 5
 739 011c 7868     		ldr	r0, [r7, #4]
 740 011e FFF7FEFF 		bl	HAL_PCD_ResumeCallback
1045:Drivers/STM32G4xx_HAL_Driver/Src/stm32g4xx_hal_pcd.c **** #endif /* USE_HAL_PCD_REGISTER_CALLBACKS */
1046:Drivers/STM32G4xx_HAL_Driver/Src/stm32g4xx_hal_pcd.c **** 
1047:Drivers/STM32G4xx_HAL_Driver/Src/stm32g4xx_hal_pcd.c ****     __HAL_PCD_CLEAR_FLAG(hpcd, USB_ISTR_WKUP);
 741              		.loc 1 1047 5
 742 0122 7B68     		ldr	r3, [r7, #4]
 743 0124 1B68     		ldr	r3, [r3]
 744 0126 B3F84430 		ldrh	r3, [r3, #68]	@ movhi
 745 012a 9AB2     		uxth	r2, r3
 746 012c 7B68     		ldr	r3, [r7, #4]
 747 012e 1B68     		ldr	r3, [r3]
 748 0130 22F48052 		bic	r2, r2, #4096
 749 0134 92B2     		uxth	r2, r2
 750 0136 A3F84420 		strh	r2, [r3, #68]	@ movhi
 751              	.L26:
1048:Drivers/STM32G4xx_HAL_Driver/Src/stm32g4xx_hal_pcd.c ****   }
1049:Drivers/STM32G4xx_HAL_Driver/Src/stm32g4xx_hal_pcd.c **** 
1050:Drivers/STM32G4xx_HAL_Driver/Src/stm32g4xx_hal_pcd.c ****   if (__HAL_PCD_GET_FLAG(hpcd, USB_ISTR_SUSP))
 752              		.loc 1 1050 7
 753 013a 7B68     		ldr	r3, [r7, #4]
 754 013c 1B68     		ldr	r3, [r3]
 755 013e 1846     		mov	r0, r3
 756 0140 FFF7FEFF 		bl	USB_ReadInterrupts
 757 0144 0346     		mov	r3, r0
 758 0146 03F40063 		and	r3, r3, #2048
 759              		.loc 1 1050 6
 760 014a B3F5006F 		cmp	r3, #2048
 761 014e 31D1     		bne	.L28
1051:Drivers/STM32G4xx_HAL_Driver/Src/stm32g4xx_hal_pcd.c ****   {
1052:Drivers/STM32G4xx_HAL_Driver/Src/stm32g4xx_hal_pcd.c ****     /* Force low-power mode in the macrocell */
1053:Drivers/STM32G4xx_HAL_Driver/Src/stm32g4xx_hal_pcd.c ****     hpcd->Instance->CNTR |= USB_CNTR_FSUSP;
 762              		.loc 1 1053 9
 763 0150 7B68     		ldr	r3, [r7, #4]
 764 0152 1B68     		ldr	r3, [r3]
 765              		.loc 1 1053 26
 766 0154 B3F84030 		ldrh	r3, [r3, #64]	@ movhi
 767 0158 9AB2     		uxth	r2, r3
 768              		.loc 1 1053 9
 769 015a 7B68     		ldr	r3, [r7, #4]
 770 015c 1B68     		ldr	r3, [r3]
 771              		.loc 1 1053 26
 772 015e 42F00802 		orr	r2, r2, #8
 773 0162 92B2     		uxth	r2, r2
 774 0164 A3F84020 		strh	r2, [r3, #64]	@ movhi
1054:Drivers/STM32G4xx_HAL_Driver/Src/stm32g4xx_hal_pcd.c **** 
1055:Drivers/STM32G4xx_HAL_Driver/Src/stm32g4xx_hal_pcd.c ****     /* clear of the ISTR bit must be done after setting of CNTR_FSUSP */
ARM GAS  /tmp/cc4MD8jd.s 			page 33


1056:Drivers/STM32G4xx_HAL_Driver/Src/stm32g4xx_hal_pcd.c ****     __HAL_PCD_CLEAR_FLAG(hpcd, USB_ISTR_SUSP);
 775              		.loc 1 1056 5
 776 0168 7B68     		ldr	r3, [r7, #4]
 777 016a 1B68     		ldr	r3, [r3]
 778 016c B3F84430 		ldrh	r3, [r3, #68]	@ movhi
 779 0170 9AB2     		uxth	r2, r3
 780 0172 7B68     		ldr	r3, [r7, #4]
 781 0174 1B68     		ldr	r3, [r3]
 782 0176 22F40062 		bic	r2, r2, #2048
 783 017a 92B2     		uxth	r2, r2
 784 017c A3F84420 		strh	r2, [r3, #68]	@ movhi
1057:Drivers/STM32G4xx_HAL_Driver/Src/stm32g4xx_hal_pcd.c **** 
1058:Drivers/STM32G4xx_HAL_Driver/Src/stm32g4xx_hal_pcd.c ****     hpcd->Instance->CNTR |= USB_CNTR_LPMODE;
 785              		.loc 1 1058 9
 786 0180 7B68     		ldr	r3, [r7, #4]
 787 0182 1B68     		ldr	r3, [r3]
 788              		.loc 1 1058 26
 789 0184 B3F84030 		ldrh	r3, [r3, #64]	@ movhi
 790 0188 9AB2     		uxth	r2, r3
 791              		.loc 1 1058 9
 792 018a 7B68     		ldr	r3, [r7, #4]
 793 018c 1B68     		ldr	r3, [r3]
 794              		.loc 1 1058 26
 795 018e 42F00402 		orr	r2, r2, #4
 796 0192 92B2     		uxth	r2, r2
 797 0194 A3F84020 		strh	r2, [r3, #64]	@ movhi
1059:Drivers/STM32G4xx_HAL_Driver/Src/stm32g4xx_hal_pcd.c **** 
1060:Drivers/STM32G4xx_HAL_Driver/Src/stm32g4xx_hal_pcd.c ****     if (__HAL_PCD_GET_FLAG(hpcd, USB_ISTR_WKUP) == 0U)
 798              		.loc 1 1060 9
 799 0198 7B68     		ldr	r3, [r7, #4]
 800 019a 1B68     		ldr	r3, [r3]
 801 019c 1846     		mov	r0, r3
 802 019e FFF7FEFF 		bl	USB_ReadInterrupts
 803 01a2 0346     		mov	r3, r0
 804 01a4 03F48053 		and	r3, r3, #4096
 805              		.loc 1 1060 8
 806 01a8 B3F5805F 		cmp	r3, #4096
 807 01ac 02D0     		beq	.L28
1061:Drivers/STM32G4xx_HAL_Driver/Src/stm32g4xx_hal_pcd.c ****     {
1062:Drivers/STM32G4xx_HAL_Driver/Src/stm32g4xx_hal_pcd.c **** #if (USE_HAL_PCD_REGISTER_CALLBACKS == 1U)
1063:Drivers/STM32G4xx_HAL_Driver/Src/stm32g4xx_hal_pcd.c ****       hpcd->SuspendCallback(hpcd);
1064:Drivers/STM32G4xx_HAL_Driver/Src/stm32g4xx_hal_pcd.c **** #else
1065:Drivers/STM32G4xx_HAL_Driver/Src/stm32g4xx_hal_pcd.c ****       HAL_PCD_SuspendCallback(hpcd);
 808              		.loc 1 1065 7
 809 01ae 7868     		ldr	r0, [r7, #4]
 810 01b0 FFF7FEFF 		bl	HAL_PCD_SuspendCallback
 811              	.L28:
1066:Drivers/STM32G4xx_HAL_Driver/Src/stm32g4xx_hal_pcd.c **** #endif /* USE_HAL_PCD_REGISTER_CALLBACKS */
1067:Drivers/STM32G4xx_HAL_Driver/Src/stm32g4xx_hal_pcd.c ****     }
1068:Drivers/STM32G4xx_HAL_Driver/Src/stm32g4xx_hal_pcd.c ****   }
1069:Drivers/STM32G4xx_HAL_Driver/Src/stm32g4xx_hal_pcd.c **** 
1070:Drivers/STM32G4xx_HAL_Driver/Src/stm32g4xx_hal_pcd.c ****   /* Handle LPM Interrupt */
1071:Drivers/STM32G4xx_HAL_Driver/Src/stm32g4xx_hal_pcd.c ****   if (__HAL_PCD_GET_FLAG(hpcd, USB_ISTR_L1REQ))
 812              		.loc 1 1071 7
 813 01b4 7B68     		ldr	r3, [r7, #4]
 814 01b6 1B68     		ldr	r3, [r3]
 815 01b8 1846     		mov	r0, r3
ARM GAS  /tmp/cc4MD8jd.s 			page 34


 816 01ba FFF7FEFF 		bl	USB_ReadInterrupts
 817 01be 0346     		mov	r3, r0
 818 01c0 03F08003 		and	r3, r3, #128
 819              		.loc 1 1071 6
 820 01c4 802B     		cmp	r3, #128
 821 01c6 3FD1     		bne	.L29
1072:Drivers/STM32G4xx_HAL_Driver/Src/stm32g4xx_hal_pcd.c ****   {
1073:Drivers/STM32G4xx_HAL_Driver/Src/stm32g4xx_hal_pcd.c ****     __HAL_PCD_CLEAR_FLAG(hpcd, USB_ISTR_L1REQ);
 822              		.loc 1 1073 5
 823 01c8 7B68     		ldr	r3, [r7, #4]
 824 01ca 1B68     		ldr	r3, [r3]
 825 01cc B3F84430 		ldrh	r3, [r3, #68]	@ movhi
 826 01d0 9AB2     		uxth	r2, r3
 827 01d2 7B68     		ldr	r3, [r7, #4]
 828 01d4 1B68     		ldr	r3, [r3]
 829 01d6 22F08002 		bic	r2, r2, #128
 830 01da 92B2     		uxth	r2, r2
 831 01dc A3F84420 		strh	r2, [r3, #68]	@ movhi
1074:Drivers/STM32G4xx_HAL_Driver/Src/stm32g4xx_hal_pcd.c ****     if (hpcd->LPM_State == LPM_L0)
 832              		.loc 1 1074 13
 833 01e0 7B68     		ldr	r3, [r7, #4]
 834 01e2 93F86032 		ldrb	r3, [r3, #608]	@ zero_extendqisi2
 835              		.loc 1 1074 8
 836 01e6 002B     		cmp	r3, #0
 837 01e8 2BD1     		bne	.L30
1075:Drivers/STM32G4xx_HAL_Driver/Src/stm32g4xx_hal_pcd.c ****     {
1076:Drivers/STM32G4xx_HAL_Driver/Src/stm32g4xx_hal_pcd.c ****       /* Force suspend and low-power mode before going to L1 state*/
1077:Drivers/STM32G4xx_HAL_Driver/Src/stm32g4xx_hal_pcd.c ****       hpcd->Instance->CNTR |= USB_CNTR_LPMODE;
 838              		.loc 1 1077 11
 839 01ea 7B68     		ldr	r3, [r7, #4]
 840 01ec 1B68     		ldr	r3, [r3]
 841              		.loc 1 1077 28
 842 01ee B3F84030 		ldrh	r3, [r3, #64]	@ movhi
 843 01f2 9AB2     		uxth	r2, r3
 844              		.loc 1 1077 11
 845 01f4 7B68     		ldr	r3, [r7, #4]
 846 01f6 1B68     		ldr	r3, [r3]
 847              		.loc 1 1077 28
 848 01f8 42F00402 		orr	r2, r2, #4
 849 01fc 92B2     		uxth	r2, r2
 850 01fe A3F84020 		strh	r2, [r3, #64]	@ movhi
1078:Drivers/STM32G4xx_HAL_Driver/Src/stm32g4xx_hal_pcd.c ****       hpcd->Instance->CNTR |= USB_CNTR_FSUSP;
 851              		.loc 1 1078 11
 852 0202 7B68     		ldr	r3, [r7, #4]
 853 0204 1B68     		ldr	r3, [r3]
 854              		.loc 1 1078 28
 855 0206 B3F84030 		ldrh	r3, [r3, #64]	@ movhi
 856 020a 9AB2     		uxth	r2, r3
 857              		.loc 1 1078 11
 858 020c 7B68     		ldr	r3, [r7, #4]
 859 020e 1B68     		ldr	r3, [r3]
 860              		.loc 1 1078 28
 861 0210 42F00802 		orr	r2, r2, #8
 862 0214 92B2     		uxth	r2, r2
 863 0216 A3F84020 		strh	r2, [r3, #64]	@ movhi
1079:Drivers/STM32G4xx_HAL_Driver/Src/stm32g4xx_hal_pcd.c **** 
1080:Drivers/STM32G4xx_HAL_Driver/Src/stm32g4xx_hal_pcd.c ****       hpcd->LPM_State = LPM_L1;
ARM GAS  /tmp/cc4MD8jd.s 			page 35


 864              		.loc 1 1080 23
 865 021a 7B68     		ldr	r3, [r7, #4]
 866 021c 0122     		movs	r2, #1
 867 021e 83F86022 		strb	r2, [r3, #608]
1081:Drivers/STM32G4xx_HAL_Driver/Src/stm32g4xx_hal_pcd.c ****       hpcd->BESL = ((uint32_t)hpcd->Instance->LPMCSR & USB_LPMCSR_BESL) >> 2;
 868              		.loc 1 1081 35
 869 0222 7B68     		ldr	r3, [r7, #4]
 870 0224 1B68     		ldr	r3, [r3]
 871              		.loc 1 1081 45
 872 0226 B3F85430 		ldrh	r3, [r3, #84]	@ movhi
 873 022a 9BB2     		uxth	r3, r3
 874              		.loc 1 1081 73
 875 022c 9B08     		lsrs	r3, r3, #2
 876 022e 03F03C02 		and	r2, r3, #60
 877              		.loc 1 1081 18
 878 0232 7B68     		ldr	r3, [r7, #4]
 879 0234 C3F86422 		str	r2, [r3, #612]
1082:Drivers/STM32G4xx_HAL_Driver/Src/stm32g4xx_hal_pcd.c **** #if (USE_HAL_PCD_REGISTER_CALLBACKS == 1U)
1083:Drivers/STM32G4xx_HAL_Driver/Src/stm32g4xx_hal_pcd.c ****       hpcd->LPMCallback(hpcd, PCD_LPM_L1_ACTIVE);
1084:Drivers/STM32G4xx_HAL_Driver/Src/stm32g4xx_hal_pcd.c **** #else
1085:Drivers/STM32G4xx_HAL_Driver/Src/stm32g4xx_hal_pcd.c ****       HAL_PCDEx_LPM_Callback(hpcd, PCD_LPM_L1_ACTIVE);
 880              		.loc 1 1085 7
 881 0238 0121     		movs	r1, #1
 882 023a 7868     		ldr	r0, [r7, #4]
 883 023c FFF7FEFF 		bl	HAL_PCDEx_LPM_Callback
 884 0240 02E0     		b	.L29
 885              	.L30:
1086:Drivers/STM32G4xx_HAL_Driver/Src/stm32g4xx_hal_pcd.c **** #endif /* USE_HAL_PCD_REGISTER_CALLBACKS */
1087:Drivers/STM32G4xx_HAL_Driver/Src/stm32g4xx_hal_pcd.c ****     }
1088:Drivers/STM32G4xx_HAL_Driver/Src/stm32g4xx_hal_pcd.c ****     else
1089:Drivers/STM32G4xx_HAL_Driver/Src/stm32g4xx_hal_pcd.c ****     {
1090:Drivers/STM32G4xx_HAL_Driver/Src/stm32g4xx_hal_pcd.c **** #if (USE_HAL_PCD_REGISTER_CALLBACKS == 1U)
1091:Drivers/STM32G4xx_HAL_Driver/Src/stm32g4xx_hal_pcd.c ****       hpcd->SuspendCallback(hpcd);
1092:Drivers/STM32G4xx_HAL_Driver/Src/stm32g4xx_hal_pcd.c **** #else
1093:Drivers/STM32G4xx_HAL_Driver/Src/stm32g4xx_hal_pcd.c ****       HAL_PCD_SuspendCallback(hpcd);
 886              		.loc 1 1093 7
 887 0242 7868     		ldr	r0, [r7, #4]
 888 0244 FFF7FEFF 		bl	HAL_PCD_SuspendCallback
 889              	.L29:
1094:Drivers/STM32G4xx_HAL_Driver/Src/stm32g4xx_hal_pcd.c **** #endif /* USE_HAL_PCD_REGISTER_CALLBACKS */
1095:Drivers/STM32G4xx_HAL_Driver/Src/stm32g4xx_hal_pcd.c ****     }
1096:Drivers/STM32G4xx_HAL_Driver/Src/stm32g4xx_hal_pcd.c ****   }
1097:Drivers/STM32G4xx_HAL_Driver/Src/stm32g4xx_hal_pcd.c **** 
1098:Drivers/STM32G4xx_HAL_Driver/Src/stm32g4xx_hal_pcd.c ****   if (__HAL_PCD_GET_FLAG(hpcd, USB_ISTR_SOF))
 890              		.loc 1 1098 7
 891 0248 7B68     		ldr	r3, [r7, #4]
 892 024a 1B68     		ldr	r3, [r3]
 893 024c 1846     		mov	r0, r3
 894 024e FFF7FEFF 		bl	USB_ReadInterrupts
 895 0252 0346     		mov	r3, r0
 896 0254 03F40073 		and	r3, r3, #512
 897              		.loc 1 1098 6
 898 0258 B3F5007F 		cmp	r3, #512
 899 025c 0ED1     		bne	.L31
1099:Drivers/STM32G4xx_HAL_Driver/Src/stm32g4xx_hal_pcd.c ****   {
1100:Drivers/STM32G4xx_HAL_Driver/Src/stm32g4xx_hal_pcd.c ****     __HAL_PCD_CLEAR_FLAG(hpcd, USB_ISTR_SOF);
 900              		.loc 1 1100 5
ARM GAS  /tmp/cc4MD8jd.s 			page 36


 901 025e 7B68     		ldr	r3, [r7, #4]
 902 0260 1B68     		ldr	r3, [r3]
 903 0262 B3F84430 		ldrh	r3, [r3, #68]	@ movhi
 904 0266 9AB2     		uxth	r2, r3
 905 0268 7B68     		ldr	r3, [r7, #4]
 906 026a 1B68     		ldr	r3, [r3]
 907 026c 22F40072 		bic	r2, r2, #512
 908 0270 92B2     		uxth	r2, r2
 909 0272 A3F84420 		strh	r2, [r3, #68]	@ movhi
1101:Drivers/STM32G4xx_HAL_Driver/Src/stm32g4xx_hal_pcd.c **** 
1102:Drivers/STM32G4xx_HAL_Driver/Src/stm32g4xx_hal_pcd.c **** #if (USE_HAL_PCD_REGISTER_CALLBACKS == 1U)
1103:Drivers/STM32G4xx_HAL_Driver/Src/stm32g4xx_hal_pcd.c ****     hpcd->SOFCallback(hpcd);
1104:Drivers/STM32G4xx_HAL_Driver/Src/stm32g4xx_hal_pcd.c **** #else
1105:Drivers/STM32G4xx_HAL_Driver/Src/stm32g4xx_hal_pcd.c ****     HAL_PCD_SOFCallback(hpcd);
 910              		.loc 1 1105 5
 911 0276 7868     		ldr	r0, [r7, #4]
 912 0278 FFF7FEFF 		bl	HAL_PCD_SOFCallback
 913              	.L31:
1106:Drivers/STM32G4xx_HAL_Driver/Src/stm32g4xx_hal_pcd.c **** #endif /* USE_HAL_PCD_REGISTER_CALLBACKS */
1107:Drivers/STM32G4xx_HAL_Driver/Src/stm32g4xx_hal_pcd.c ****   }
1108:Drivers/STM32G4xx_HAL_Driver/Src/stm32g4xx_hal_pcd.c **** 
1109:Drivers/STM32G4xx_HAL_Driver/Src/stm32g4xx_hal_pcd.c ****   if (__HAL_PCD_GET_FLAG(hpcd, USB_ISTR_ESOF))
 914              		.loc 1 1109 7
 915 027c 7B68     		ldr	r3, [r7, #4]
 916 027e 1B68     		ldr	r3, [r3]
 917 0280 1846     		mov	r0, r3
 918 0282 FFF7FEFF 		bl	USB_ReadInterrupts
 919 0286 0346     		mov	r3, r0
 920 0288 03F48073 		and	r3, r3, #256
 921              		.loc 1 1109 6
 922 028c B3F5807F 		cmp	r3, #256
 923 0290 0BD1     		bne	.L33
1110:Drivers/STM32G4xx_HAL_Driver/Src/stm32g4xx_hal_pcd.c ****   {
1111:Drivers/STM32G4xx_HAL_Driver/Src/stm32g4xx_hal_pcd.c ****     /* clear ESOF flag in ISTR */
1112:Drivers/STM32G4xx_HAL_Driver/Src/stm32g4xx_hal_pcd.c ****     __HAL_PCD_CLEAR_FLAG(hpcd, USB_ISTR_ESOF);
 924              		.loc 1 1112 5
 925 0292 7B68     		ldr	r3, [r7, #4]
 926 0294 1B68     		ldr	r3, [r3]
 927 0296 B3F84430 		ldrh	r3, [r3, #68]	@ movhi
 928 029a 9AB2     		uxth	r2, r3
 929 029c 7B68     		ldr	r3, [r7, #4]
 930 029e 1B68     		ldr	r3, [r3]
 931 02a0 22F48072 		bic	r2, r2, #256
 932 02a4 92B2     		uxth	r2, r2
 933 02a6 A3F84420 		strh	r2, [r3, #68]	@ movhi
 934              	.L33:
1113:Drivers/STM32G4xx_HAL_Driver/Src/stm32g4xx_hal_pcd.c ****   }
1114:Drivers/STM32G4xx_HAL_Driver/Src/stm32g4xx_hal_pcd.c **** }
 935              		.loc 1 1114 1
 936 02aa 00BF     		nop
 937 02ac 0837     		adds	r7, r7, #8
 938              	.LCFI35:
 939              		.cfi_def_cfa_offset 8
 940 02ae BD46     		mov	sp, r7
 941              	.LCFI36:
 942              		.cfi_def_cfa_register 13
 943              		@ sp needed
ARM GAS  /tmp/cc4MD8jd.s 			page 37


 944 02b0 80BD     		pop	{r7, pc}
 945              		.cfi_endproc
 946              	.LFE334:
 948              		.section	.text.HAL_PCD_DataOutStageCallback,"ax",%progbits
 949              		.align	1
 950              		.weak	HAL_PCD_DataOutStageCallback
 951              		.syntax unified
 952              		.thumb
 953              		.thumb_func
 954              		.fpu fpv4-sp-d16
 956              	HAL_PCD_DataOutStageCallback:
 957              	.LFB335:
1115:Drivers/STM32G4xx_HAL_Driver/Src/stm32g4xx_hal_pcd.c **** 
1116:Drivers/STM32G4xx_HAL_Driver/Src/stm32g4xx_hal_pcd.c **** 
1117:Drivers/STM32G4xx_HAL_Driver/Src/stm32g4xx_hal_pcd.c **** /**
1118:Drivers/STM32G4xx_HAL_Driver/Src/stm32g4xx_hal_pcd.c ****   * @brief  Data OUT stage callback.
1119:Drivers/STM32G4xx_HAL_Driver/Src/stm32g4xx_hal_pcd.c ****   * @param  hpcd PCD handle
1120:Drivers/STM32G4xx_HAL_Driver/Src/stm32g4xx_hal_pcd.c ****   * @param  epnum endpoint number
1121:Drivers/STM32G4xx_HAL_Driver/Src/stm32g4xx_hal_pcd.c ****   * @retval None
1122:Drivers/STM32G4xx_HAL_Driver/Src/stm32g4xx_hal_pcd.c ****   */
1123:Drivers/STM32G4xx_HAL_Driver/Src/stm32g4xx_hal_pcd.c **** __weak void HAL_PCD_DataOutStageCallback(PCD_HandleTypeDef *hpcd, uint8_t epnum)
1124:Drivers/STM32G4xx_HAL_Driver/Src/stm32g4xx_hal_pcd.c **** {
 958              		.loc 1 1124 1
 959              		.cfi_startproc
 960              		@ args = 0, pretend = 0, frame = 8
 961              		@ frame_needed = 1, uses_anonymous_args = 0
 962              		@ link register save eliminated.
 963 0000 80B4     		push	{r7}
 964              	.LCFI37:
 965              		.cfi_def_cfa_offset 4
 966              		.cfi_offset 7, -4
 967 0002 83B0     		sub	sp, sp, #12
 968              	.LCFI38:
 969              		.cfi_def_cfa_offset 16
 970 0004 00AF     		add	r7, sp, #0
 971              	.LCFI39:
 972              		.cfi_def_cfa_register 7
 973 0006 7860     		str	r0, [r7, #4]
 974 0008 0B46     		mov	r3, r1
 975 000a FB70     		strb	r3, [r7, #3]
1125:Drivers/STM32G4xx_HAL_Driver/Src/stm32g4xx_hal_pcd.c ****   /* Prevent unused argument(s) compilation warning */
1126:Drivers/STM32G4xx_HAL_Driver/Src/stm32g4xx_hal_pcd.c ****   UNUSED(hpcd);
1127:Drivers/STM32G4xx_HAL_Driver/Src/stm32g4xx_hal_pcd.c ****   UNUSED(epnum);
1128:Drivers/STM32G4xx_HAL_Driver/Src/stm32g4xx_hal_pcd.c **** 
1129:Drivers/STM32G4xx_HAL_Driver/Src/stm32g4xx_hal_pcd.c ****   /* NOTE : This function should not be modified, when the callback is needed,
1130:Drivers/STM32G4xx_HAL_Driver/Src/stm32g4xx_hal_pcd.c ****             the HAL_PCD_DataOutStageCallback could be implemented in the user file
1131:Drivers/STM32G4xx_HAL_Driver/Src/stm32g4xx_hal_pcd.c ****    */
1132:Drivers/STM32G4xx_HAL_Driver/Src/stm32g4xx_hal_pcd.c **** }
 976              		.loc 1 1132 1
 977 000c 00BF     		nop
 978 000e 0C37     		adds	r7, r7, #12
 979              	.LCFI40:
 980              		.cfi_def_cfa_offset 4
 981 0010 BD46     		mov	sp, r7
 982              	.LCFI41:
 983              		.cfi_def_cfa_register 13
 984              		@ sp needed
ARM GAS  /tmp/cc4MD8jd.s 			page 38


 985 0012 5DF8047B 		ldr	r7, [sp], #4
 986              	.LCFI42:
 987              		.cfi_restore 7
 988              		.cfi_def_cfa_offset 0
 989 0016 7047     		bx	lr
 990              		.cfi_endproc
 991              	.LFE335:
 993              		.section	.text.HAL_PCD_DataInStageCallback,"ax",%progbits
 994              		.align	1
 995              		.weak	HAL_PCD_DataInStageCallback
 996              		.syntax unified
 997              		.thumb
 998              		.thumb_func
 999              		.fpu fpv4-sp-d16
 1001              	HAL_PCD_DataInStageCallback:
 1002              	.LFB336:
1133:Drivers/STM32G4xx_HAL_Driver/Src/stm32g4xx_hal_pcd.c **** 
1134:Drivers/STM32G4xx_HAL_Driver/Src/stm32g4xx_hal_pcd.c **** /**
1135:Drivers/STM32G4xx_HAL_Driver/Src/stm32g4xx_hal_pcd.c ****   * @brief  Data IN stage callback
1136:Drivers/STM32G4xx_HAL_Driver/Src/stm32g4xx_hal_pcd.c ****   * @param  hpcd PCD handle
1137:Drivers/STM32G4xx_HAL_Driver/Src/stm32g4xx_hal_pcd.c ****   * @param  epnum endpoint number
1138:Drivers/STM32G4xx_HAL_Driver/Src/stm32g4xx_hal_pcd.c ****   * @retval None
1139:Drivers/STM32G4xx_HAL_Driver/Src/stm32g4xx_hal_pcd.c ****   */
1140:Drivers/STM32G4xx_HAL_Driver/Src/stm32g4xx_hal_pcd.c **** __weak void HAL_PCD_DataInStageCallback(PCD_HandleTypeDef *hpcd, uint8_t epnum)
1141:Drivers/STM32G4xx_HAL_Driver/Src/stm32g4xx_hal_pcd.c **** {
 1003              		.loc 1 1141 1
 1004              		.cfi_startproc
 1005              		@ args = 0, pretend = 0, frame = 8
 1006              		@ frame_needed = 1, uses_anonymous_args = 0
 1007              		@ link register save eliminated.
 1008 0000 80B4     		push	{r7}
 1009              	.LCFI43:
 1010              		.cfi_def_cfa_offset 4
 1011              		.cfi_offset 7, -4
 1012 0002 83B0     		sub	sp, sp, #12
 1013              	.LCFI44:
 1014              		.cfi_def_cfa_offset 16
 1015 0004 00AF     		add	r7, sp, #0
 1016              	.LCFI45:
 1017              		.cfi_def_cfa_register 7
 1018 0006 7860     		str	r0, [r7, #4]
 1019 0008 0B46     		mov	r3, r1
 1020 000a FB70     		strb	r3, [r7, #3]
1142:Drivers/STM32G4xx_HAL_Driver/Src/stm32g4xx_hal_pcd.c ****   /* Prevent unused argument(s) compilation warning */
1143:Drivers/STM32G4xx_HAL_Driver/Src/stm32g4xx_hal_pcd.c ****   UNUSED(hpcd);
1144:Drivers/STM32G4xx_HAL_Driver/Src/stm32g4xx_hal_pcd.c ****   UNUSED(epnum);
1145:Drivers/STM32G4xx_HAL_Driver/Src/stm32g4xx_hal_pcd.c **** 
1146:Drivers/STM32G4xx_HAL_Driver/Src/stm32g4xx_hal_pcd.c ****   /* NOTE : This function should not be modified, when the callback is needed,
1147:Drivers/STM32G4xx_HAL_Driver/Src/stm32g4xx_hal_pcd.c ****             the HAL_PCD_DataInStageCallback could be implemented in the user file
1148:Drivers/STM32G4xx_HAL_Driver/Src/stm32g4xx_hal_pcd.c ****    */
1149:Drivers/STM32G4xx_HAL_Driver/Src/stm32g4xx_hal_pcd.c **** }
 1021              		.loc 1 1149 1
 1022 000c 00BF     		nop
 1023 000e 0C37     		adds	r7, r7, #12
 1024              	.LCFI46:
 1025              		.cfi_def_cfa_offset 4
 1026 0010 BD46     		mov	sp, r7
ARM GAS  /tmp/cc4MD8jd.s 			page 39


 1027              	.LCFI47:
 1028              		.cfi_def_cfa_register 13
 1029              		@ sp needed
 1030 0012 5DF8047B 		ldr	r7, [sp], #4
 1031              	.LCFI48:
 1032              		.cfi_restore 7
 1033              		.cfi_def_cfa_offset 0
 1034 0016 7047     		bx	lr
 1035              		.cfi_endproc
 1036              	.LFE336:
 1038              		.section	.text.HAL_PCD_SetupStageCallback,"ax",%progbits
 1039              		.align	1
 1040              		.weak	HAL_PCD_SetupStageCallback
 1041              		.syntax unified
 1042              		.thumb
 1043              		.thumb_func
 1044              		.fpu fpv4-sp-d16
 1046              	HAL_PCD_SetupStageCallback:
 1047              	.LFB337:
1150:Drivers/STM32G4xx_HAL_Driver/Src/stm32g4xx_hal_pcd.c **** /**
1151:Drivers/STM32G4xx_HAL_Driver/Src/stm32g4xx_hal_pcd.c ****   * @brief  Setup stage callback
1152:Drivers/STM32G4xx_HAL_Driver/Src/stm32g4xx_hal_pcd.c ****   * @param  hpcd PCD handle
1153:Drivers/STM32G4xx_HAL_Driver/Src/stm32g4xx_hal_pcd.c ****   * @retval None
1154:Drivers/STM32G4xx_HAL_Driver/Src/stm32g4xx_hal_pcd.c ****   */
1155:Drivers/STM32G4xx_HAL_Driver/Src/stm32g4xx_hal_pcd.c **** __weak void HAL_PCD_SetupStageCallback(PCD_HandleTypeDef *hpcd)
1156:Drivers/STM32G4xx_HAL_Driver/Src/stm32g4xx_hal_pcd.c **** {
 1048              		.loc 1 1156 1
 1049              		.cfi_startproc
 1050              		@ args = 0, pretend = 0, frame = 8
 1051              		@ frame_needed = 1, uses_anonymous_args = 0
 1052              		@ link register save eliminated.
 1053 0000 80B4     		push	{r7}
 1054              	.LCFI49:
 1055              		.cfi_def_cfa_offset 4
 1056              		.cfi_offset 7, -4
 1057 0002 83B0     		sub	sp, sp, #12
 1058              	.LCFI50:
 1059              		.cfi_def_cfa_offset 16
 1060 0004 00AF     		add	r7, sp, #0
 1061              	.LCFI51:
 1062              		.cfi_def_cfa_register 7
 1063 0006 7860     		str	r0, [r7, #4]
1157:Drivers/STM32G4xx_HAL_Driver/Src/stm32g4xx_hal_pcd.c ****   /* Prevent unused argument(s) compilation warning */
1158:Drivers/STM32G4xx_HAL_Driver/Src/stm32g4xx_hal_pcd.c ****   UNUSED(hpcd);
1159:Drivers/STM32G4xx_HAL_Driver/Src/stm32g4xx_hal_pcd.c **** 
1160:Drivers/STM32G4xx_HAL_Driver/Src/stm32g4xx_hal_pcd.c ****   /* NOTE : This function should not be modified, when the callback is needed,
1161:Drivers/STM32G4xx_HAL_Driver/Src/stm32g4xx_hal_pcd.c ****             the HAL_PCD_SetupStageCallback could be implemented in the user file
1162:Drivers/STM32G4xx_HAL_Driver/Src/stm32g4xx_hal_pcd.c ****    */
1163:Drivers/STM32G4xx_HAL_Driver/Src/stm32g4xx_hal_pcd.c **** }
 1064              		.loc 1 1163 1
 1065 0008 00BF     		nop
 1066 000a 0C37     		adds	r7, r7, #12
 1067              	.LCFI52:
 1068              		.cfi_def_cfa_offset 4
 1069 000c BD46     		mov	sp, r7
 1070              	.LCFI53:
 1071              		.cfi_def_cfa_register 13
ARM GAS  /tmp/cc4MD8jd.s 			page 40


 1072              		@ sp needed
 1073 000e 5DF8047B 		ldr	r7, [sp], #4
 1074              	.LCFI54:
 1075              		.cfi_restore 7
 1076              		.cfi_def_cfa_offset 0
 1077 0012 7047     		bx	lr
 1078              		.cfi_endproc
 1079              	.LFE337:
 1081              		.section	.text.HAL_PCD_SOFCallback,"ax",%progbits
 1082              		.align	1
 1083              		.weak	HAL_PCD_SOFCallback
 1084              		.syntax unified
 1085              		.thumb
 1086              		.thumb_func
 1087              		.fpu fpv4-sp-d16
 1089              	HAL_PCD_SOFCallback:
 1090              	.LFB338:
1164:Drivers/STM32G4xx_HAL_Driver/Src/stm32g4xx_hal_pcd.c **** 
1165:Drivers/STM32G4xx_HAL_Driver/Src/stm32g4xx_hal_pcd.c **** /**
1166:Drivers/STM32G4xx_HAL_Driver/Src/stm32g4xx_hal_pcd.c ****   * @brief  USB Start Of Frame callback.
1167:Drivers/STM32G4xx_HAL_Driver/Src/stm32g4xx_hal_pcd.c ****   * @param  hpcd PCD handle
1168:Drivers/STM32G4xx_HAL_Driver/Src/stm32g4xx_hal_pcd.c ****   * @retval None
1169:Drivers/STM32G4xx_HAL_Driver/Src/stm32g4xx_hal_pcd.c ****   */
1170:Drivers/STM32G4xx_HAL_Driver/Src/stm32g4xx_hal_pcd.c **** __weak void HAL_PCD_SOFCallback(PCD_HandleTypeDef *hpcd)
1171:Drivers/STM32G4xx_HAL_Driver/Src/stm32g4xx_hal_pcd.c **** {
 1091              		.loc 1 1171 1
 1092              		.cfi_startproc
 1093              		@ args = 0, pretend = 0, frame = 8
 1094              		@ frame_needed = 1, uses_anonymous_args = 0
 1095              		@ link register save eliminated.
 1096 0000 80B4     		push	{r7}
 1097              	.LCFI55:
 1098              		.cfi_def_cfa_offset 4
 1099              		.cfi_offset 7, -4
 1100 0002 83B0     		sub	sp, sp, #12
 1101              	.LCFI56:
 1102              		.cfi_def_cfa_offset 16
 1103 0004 00AF     		add	r7, sp, #0
 1104              	.LCFI57:
 1105              		.cfi_def_cfa_register 7
 1106 0006 7860     		str	r0, [r7, #4]
1172:Drivers/STM32G4xx_HAL_Driver/Src/stm32g4xx_hal_pcd.c ****   /* Prevent unused argument(s) compilation warning */
1173:Drivers/STM32G4xx_HAL_Driver/Src/stm32g4xx_hal_pcd.c ****   UNUSED(hpcd);
1174:Drivers/STM32G4xx_HAL_Driver/Src/stm32g4xx_hal_pcd.c **** 
1175:Drivers/STM32G4xx_HAL_Driver/Src/stm32g4xx_hal_pcd.c ****   /* NOTE : This function should not be modified, when the callback is needed,
1176:Drivers/STM32G4xx_HAL_Driver/Src/stm32g4xx_hal_pcd.c ****             the HAL_PCD_SOFCallback could be implemented in the user file
1177:Drivers/STM32G4xx_HAL_Driver/Src/stm32g4xx_hal_pcd.c ****    */
1178:Drivers/STM32G4xx_HAL_Driver/Src/stm32g4xx_hal_pcd.c **** }
 1107              		.loc 1 1178 1
 1108 0008 00BF     		nop
 1109 000a 0C37     		adds	r7, r7, #12
 1110              	.LCFI58:
 1111              		.cfi_def_cfa_offset 4
 1112 000c BD46     		mov	sp, r7
 1113              	.LCFI59:
 1114              		.cfi_def_cfa_register 13
 1115              		@ sp needed
ARM GAS  /tmp/cc4MD8jd.s 			page 41


 1116 000e 5DF8047B 		ldr	r7, [sp], #4
 1117              	.LCFI60:
 1118              		.cfi_restore 7
 1119              		.cfi_def_cfa_offset 0
 1120 0012 7047     		bx	lr
 1121              		.cfi_endproc
 1122              	.LFE338:
 1124              		.section	.text.HAL_PCD_ResetCallback,"ax",%progbits
 1125              		.align	1
 1126              		.weak	HAL_PCD_ResetCallback
 1127              		.syntax unified
 1128              		.thumb
 1129              		.thumb_func
 1130              		.fpu fpv4-sp-d16
 1132              	HAL_PCD_ResetCallback:
 1133              	.LFB339:
1179:Drivers/STM32G4xx_HAL_Driver/Src/stm32g4xx_hal_pcd.c **** 
1180:Drivers/STM32G4xx_HAL_Driver/Src/stm32g4xx_hal_pcd.c **** /**
1181:Drivers/STM32G4xx_HAL_Driver/Src/stm32g4xx_hal_pcd.c ****   * @brief  USB Reset callback.
1182:Drivers/STM32G4xx_HAL_Driver/Src/stm32g4xx_hal_pcd.c ****   * @param  hpcd PCD handle
1183:Drivers/STM32G4xx_HAL_Driver/Src/stm32g4xx_hal_pcd.c ****   * @retval None
1184:Drivers/STM32G4xx_HAL_Driver/Src/stm32g4xx_hal_pcd.c ****   */
1185:Drivers/STM32G4xx_HAL_Driver/Src/stm32g4xx_hal_pcd.c **** __weak void HAL_PCD_ResetCallback(PCD_HandleTypeDef *hpcd)
1186:Drivers/STM32G4xx_HAL_Driver/Src/stm32g4xx_hal_pcd.c **** {
 1134              		.loc 1 1186 1
 1135              		.cfi_startproc
 1136              		@ args = 0, pretend = 0, frame = 8
 1137              		@ frame_needed = 1, uses_anonymous_args = 0
 1138              		@ link register save eliminated.
 1139 0000 80B4     		push	{r7}
 1140              	.LCFI61:
 1141              		.cfi_def_cfa_offset 4
 1142              		.cfi_offset 7, -4
 1143 0002 83B0     		sub	sp, sp, #12
 1144              	.LCFI62:
 1145              		.cfi_def_cfa_offset 16
 1146 0004 00AF     		add	r7, sp, #0
 1147              	.LCFI63:
 1148              		.cfi_def_cfa_register 7
 1149 0006 7860     		str	r0, [r7, #4]
1187:Drivers/STM32G4xx_HAL_Driver/Src/stm32g4xx_hal_pcd.c ****   /* Prevent unused argument(s) compilation warning */
1188:Drivers/STM32G4xx_HAL_Driver/Src/stm32g4xx_hal_pcd.c ****   UNUSED(hpcd);
1189:Drivers/STM32G4xx_HAL_Driver/Src/stm32g4xx_hal_pcd.c **** 
1190:Drivers/STM32G4xx_HAL_Driver/Src/stm32g4xx_hal_pcd.c ****   /* NOTE : This function should not be modified, when the callback is needed,
1191:Drivers/STM32G4xx_HAL_Driver/Src/stm32g4xx_hal_pcd.c ****             the HAL_PCD_ResetCallback could be implemented in the user file
1192:Drivers/STM32G4xx_HAL_Driver/Src/stm32g4xx_hal_pcd.c ****    */
1193:Drivers/STM32G4xx_HAL_Driver/Src/stm32g4xx_hal_pcd.c **** }
 1150              		.loc 1 1193 1
 1151 0008 00BF     		nop
 1152 000a 0C37     		adds	r7, r7, #12
 1153              	.LCFI64:
 1154              		.cfi_def_cfa_offset 4
 1155 000c BD46     		mov	sp, r7
 1156              	.LCFI65:
 1157              		.cfi_def_cfa_register 13
 1158              		@ sp needed
 1159 000e 5DF8047B 		ldr	r7, [sp], #4
ARM GAS  /tmp/cc4MD8jd.s 			page 42


 1160              	.LCFI66:
 1161              		.cfi_restore 7
 1162              		.cfi_def_cfa_offset 0
 1163 0012 7047     		bx	lr
 1164              		.cfi_endproc
 1165              	.LFE339:
 1167              		.section	.text.HAL_PCD_SuspendCallback,"ax",%progbits
 1168              		.align	1
 1169              		.weak	HAL_PCD_SuspendCallback
 1170              		.syntax unified
 1171              		.thumb
 1172              		.thumb_func
 1173              		.fpu fpv4-sp-d16
 1175              	HAL_PCD_SuspendCallback:
 1176              	.LFB340:
1194:Drivers/STM32G4xx_HAL_Driver/Src/stm32g4xx_hal_pcd.c **** 
1195:Drivers/STM32G4xx_HAL_Driver/Src/stm32g4xx_hal_pcd.c **** /**
1196:Drivers/STM32G4xx_HAL_Driver/Src/stm32g4xx_hal_pcd.c ****   * @brief  Suspend event callback.
1197:Drivers/STM32G4xx_HAL_Driver/Src/stm32g4xx_hal_pcd.c ****   * @param  hpcd PCD handle
1198:Drivers/STM32G4xx_HAL_Driver/Src/stm32g4xx_hal_pcd.c ****   * @retval None
1199:Drivers/STM32G4xx_HAL_Driver/Src/stm32g4xx_hal_pcd.c ****   */
1200:Drivers/STM32G4xx_HAL_Driver/Src/stm32g4xx_hal_pcd.c **** __weak void HAL_PCD_SuspendCallback(PCD_HandleTypeDef *hpcd)
1201:Drivers/STM32G4xx_HAL_Driver/Src/stm32g4xx_hal_pcd.c **** {
 1177              		.loc 1 1201 1
 1178              		.cfi_startproc
 1179              		@ args = 0, pretend = 0, frame = 8
 1180              		@ frame_needed = 1, uses_anonymous_args = 0
 1181              		@ link register save eliminated.
 1182 0000 80B4     		push	{r7}
 1183              	.LCFI67:
 1184              		.cfi_def_cfa_offset 4
 1185              		.cfi_offset 7, -4
 1186 0002 83B0     		sub	sp, sp, #12
 1187              	.LCFI68:
 1188              		.cfi_def_cfa_offset 16
 1189 0004 00AF     		add	r7, sp, #0
 1190              	.LCFI69:
 1191              		.cfi_def_cfa_register 7
 1192 0006 7860     		str	r0, [r7, #4]
1202:Drivers/STM32G4xx_HAL_Driver/Src/stm32g4xx_hal_pcd.c ****   /* Prevent unused argument(s) compilation warning */
1203:Drivers/STM32G4xx_HAL_Driver/Src/stm32g4xx_hal_pcd.c ****   UNUSED(hpcd);
1204:Drivers/STM32G4xx_HAL_Driver/Src/stm32g4xx_hal_pcd.c **** 
1205:Drivers/STM32G4xx_HAL_Driver/Src/stm32g4xx_hal_pcd.c ****   /* NOTE : This function should not be modified, when the callback is needed,
1206:Drivers/STM32G4xx_HAL_Driver/Src/stm32g4xx_hal_pcd.c ****             the HAL_PCD_SuspendCallback could be implemented in the user file
1207:Drivers/STM32G4xx_HAL_Driver/Src/stm32g4xx_hal_pcd.c ****    */
1208:Drivers/STM32G4xx_HAL_Driver/Src/stm32g4xx_hal_pcd.c **** }
 1193              		.loc 1 1208 1
 1194 0008 00BF     		nop
 1195 000a 0C37     		adds	r7, r7, #12
 1196              	.LCFI70:
 1197              		.cfi_def_cfa_offset 4
 1198 000c BD46     		mov	sp, r7
 1199              	.LCFI71:
 1200              		.cfi_def_cfa_register 13
 1201              		@ sp needed
 1202 000e 5DF8047B 		ldr	r7, [sp], #4
 1203              	.LCFI72:
ARM GAS  /tmp/cc4MD8jd.s 			page 43


 1204              		.cfi_restore 7
 1205              		.cfi_def_cfa_offset 0
 1206 0012 7047     		bx	lr
 1207              		.cfi_endproc
 1208              	.LFE340:
 1210              		.section	.text.HAL_PCD_ResumeCallback,"ax",%progbits
 1211              		.align	1
 1212              		.weak	HAL_PCD_ResumeCallback
 1213              		.syntax unified
 1214              		.thumb
 1215              		.thumb_func
 1216              		.fpu fpv4-sp-d16
 1218              	HAL_PCD_ResumeCallback:
 1219              	.LFB341:
1209:Drivers/STM32G4xx_HAL_Driver/Src/stm32g4xx_hal_pcd.c **** 
1210:Drivers/STM32G4xx_HAL_Driver/Src/stm32g4xx_hal_pcd.c **** /**
1211:Drivers/STM32G4xx_HAL_Driver/Src/stm32g4xx_hal_pcd.c ****   * @brief  Resume event callback.
1212:Drivers/STM32G4xx_HAL_Driver/Src/stm32g4xx_hal_pcd.c ****   * @param  hpcd PCD handle
1213:Drivers/STM32G4xx_HAL_Driver/Src/stm32g4xx_hal_pcd.c ****   * @retval None
1214:Drivers/STM32G4xx_HAL_Driver/Src/stm32g4xx_hal_pcd.c ****   */
1215:Drivers/STM32G4xx_HAL_Driver/Src/stm32g4xx_hal_pcd.c **** __weak void HAL_PCD_ResumeCallback(PCD_HandleTypeDef *hpcd)
1216:Drivers/STM32G4xx_HAL_Driver/Src/stm32g4xx_hal_pcd.c **** {
 1220              		.loc 1 1216 1
 1221              		.cfi_startproc
 1222              		@ args = 0, pretend = 0, frame = 8
 1223              		@ frame_needed = 1, uses_anonymous_args = 0
 1224              		@ link register save eliminated.
 1225 0000 80B4     		push	{r7}
 1226              	.LCFI73:
 1227              		.cfi_def_cfa_offset 4
 1228              		.cfi_offset 7, -4
 1229 0002 83B0     		sub	sp, sp, #12
 1230              	.LCFI74:
 1231              		.cfi_def_cfa_offset 16
 1232 0004 00AF     		add	r7, sp, #0
 1233              	.LCFI75:
 1234              		.cfi_def_cfa_register 7
 1235 0006 7860     		str	r0, [r7, #4]
1217:Drivers/STM32G4xx_HAL_Driver/Src/stm32g4xx_hal_pcd.c ****   /* Prevent unused argument(s) compilation warning */
1218:Drivers/STM32G4xx_HAL_Driver/Src/stm32g4xx_hal_pcd.c ****   UNUSED(hpcd);
1219:Drivers/STM32G4xx_HAL_Driver/Src/stm32g4xx_hal_pcd.c **** 
1220:Drivers/STM32G4xx_HAL_Driver/Src/stm32g4xx_hal_pcd.c ****   /* NOTE : This function should not be modified, when the callback is needed,
1221:Drivers/STM32G4xx_HAL_Driver/Src/stm32g4xx_hal_pcd.c ****             the HAL_PCD_ResumeCallback could be implemented in the user file
1222:Drivers/STM32G4xx_HAL_Driver/Src/stm32g4xx_hal_pcd.c ****    */
1223:Drivers/STM32G4xx_HAL_Driver/Src/stm32g4xx_hal_pcd.c **** }
 1236              		.loc 1 1223 1
 1237 0008 00BF     		nop
 1238 000a 0C37     		adds	r7, r7, #12
 1239              	.LCFI76:
 1240              		.cfi_def_cfa_offset 4
 1241 000c BD46     		mov	sp, r7
 1242              	.LCFI77:
 1243              		.cfi_def_cfa_register 13
 1244              		@ sp needed
 1245 000e 5DF8047B 		ldr	r7, [sp], #4
 1246              	.LCFI78:
 1247              		.cfi_restore 7
ARM GAS  /tmp/cc4MD8jd.s 			page 44


 1248              		.cfi_def_cfa_offset 0
 1249 0012 7047     		bx	lr
 1250              		.cfi_endproc
 1251              	.LFE341:
 1253              		.section	.text.HAL_PCD_ISOOUTIncompleteCallback,"ax",%progbits
 1254              		.align	1
 1255              		.weak	HAL_PCD_ISOOUTIncompleteCallback
 1256              		.syntax unified
 1257              		.thumb
 1258              		.thumb_func
 1259              		.fpu fpv4-sp-d16
 1261              	HAL_PCD_ISOOUTIncompleteCallback:
 1262              	.LFB342:
1224:Drivers/STM32G4xx_HAL_Driver/Src/stm32g4xx_hal_pcd.c **** 
1225:Drivers/STM32G4xx_HAL_Driver/Src/stm32g4xx_hal_pcd.c **** /**
1226:Drivers/STM32G4xx_HAL_Driver/Src/stm32g4xx_hal_pcd.c ****   * @brief  Incomplete ISO OUT callback.
1227:Drivers/STM32G4xx_HAL_Driver/Src/stm32g4xx_hal_pcd.c ****   * @param  hpcd PCD handle
1228:Drivers/STM32G4xx_HAL_Driver/Src/stm32g4xx_hal_pcd.c ****   * @param  epnum endpoint number
1229:Drivers/STM32G4xx_HAL_Driver/Src/stm32g4xx_hal_pcd.c ****   * @retval None
1230:Drivers/STM32G4xx_HAL_Driver/Src/stm32g4xx_hal_pcd.c ****   */
1231:Drivers/STM32G4xx_HAL_Driver/Src/stm32g4xx_hal_pcd.c **** __weak void HAL_PCD_ISOOUTIncompleteCallback(PCD_HandleTypeDef *hpcd, uint8_t epnum)
1232:Drivers/STM32G4xx_HAL_Driver/Src/stm32g4xx_hal_pcd.c **** {
 1263              		.loc 1 1232 1
 1264              		.cfi_startproc
 1265              		@ args = 0, pretend = 0, frame = 8
 1266              		@ frame_needed = 1, uses_anonymous_args = 0
 1267              		@ link register save eliminated.
 1268 0000 80B4     		push	{r7}
 1269              	.LCFI79:
 1270              		.cfi_def_cfa_offset 4
 1271              		.cfi_offset 7, -4
 1272 0002 83B0     		sub	sp, sp, #12
 1273              	.LCFI80:
 1274              		.cfi_def_cfa_offset 16
 1275 0004 00AF     		add	r7, sp, #0
 1276              	.LCFI81:
 1277              		.cfi_def_cfa_register 7
 1278 0006 7860     		str	r0, [r7, #4]
 1279 0008 0B46     		mov	r3, r1
 1280 000a FB70     		strb	r3, [r7, #3]
1233:Drivers/STM32G4xx_HAL_Driver/Src/stm32g4xx_hal_pcd.c ****   /* Prevent unused argument(s) compilation warning */
1234:Drivers/STM32G4xx_HAL_Driver/Src/stm32g4xx_hal_pcd.c ****   UNUSED(hpcd);
1235:Drivers/STM32G4xx_HAL_Driver/Src/stm32g4xx_hal_pcd.c ****   UNUSED(epnum);
1236:Drivers/STM32G4xx_HAL_Driver/Src/stm32g4xx_hal_pcd.c **** 
1237:Drivers/STM32G4xx_HAL_Driver/Src/stm32g4xx_hal_pcd.c ****   /* NOTE : This function should not be modified, when the callback is needed,
1238:Drivers/STM32G4xx_HAL_Driver/Src/stm32g4xx_hal_pcd.c ****             the HAL_PCD_ISOOUTIncompleteCallback could be implemented in the user file
1239:Drivers/STM32G4xx_HAL_Driver/Src/stm32g4xx_hal_pcd.c ****    */
1240:Drivers/STM32G4xx_HAL_Driver/Src/stm32g4xx_hal_pcd.c **** }
 1281              		.loc 1 1240 1
 1282 000c 00BF     		nop
 1283 000e 0C37     		adds	r7, r7, #12
 1284              	.LCFI82:
 1285              		.cfi_def_cfa_offset 4
 1286 0010 BD46     		mov	sp, r7
 1287              	.LCFI83:
 1288              		.cfi_def_cfa_register 13
 1289              		@ sp needed
ARM GAS  /tmp/cc4MD8jd.s 			page 45


 1290 0012 5DF8047B 		ldr	r7, [sp], #4
 1291              	.LCFI84:
 1292              		.cfi_restore 7
 1293              		.cfi_def_cfa_offset 0
 1294 0016 7047     		bx	lr
 1295              		.cfi_endproc
 1296              	.LFE342:
 1298              		.section	.text.HAL_PCD_ISOINIncompleteCallback,"ax",%progbits
 1299              		.align	1
 1300              		.weak	HAL_PCD_ISOINIncompleteCallback
 1301              		.syntax unified
 1302              		.thumb
 1303              		.thumb_func
 1304              		.fpu fpv4-sp-d16
 1306              	HAL_PCD_ISOINIncompleteCallback:
 1307              	.LFB343:
1241:Drivers/STM32G4xx_HAL_Driver/Src/stm32g4xx_hal_pcd.c **** 
1242:Drivers/STM32G4xx_HAL_Driver/Src/stm32g4xx_hal_pcd.c **** /**
1243:Drivers/STM32G4xx_HAL_Driver/Src/stm32g4xx_hal_pcd.c ****   * @brief  Incomplete ISO IN callback.
1244:Drivers/STM32G4xx_HAL_Driver/Src/stm32g4xx_hal_pcd.c ****   * @param  hpcd PCD handle
1245:Drivers/STM32G4xx_HAL_Driver/Src/stm32g4xx_hal_pcd.c ****   * @param  epnum endpoint number
1246:Drivers/STM32G4xx_HAL_Driver/Src/stm32g4xx_hal_pcd.c ****   * @retval None
1247:Drivers/STM32G4xx_HAL_Driver/Src/stm32g4xx_hal_pcd.c ****   */
1248:Drivers/STM32G4xx_HAL_Driver/Src/stm32g4xx_hal_pcd.c **** __weak void HAL_PCD_ISOINIncompleteCallback(PCD_HandleTypeDef *hpcd, uint8_t epnum)
1249:Drivers/STM32G4xx_HAL_Driver/Src/stm32g4xx_hal_pcd.c **** {
 1308              		.loc 1 1249 1
 1309              		.cfi_startproc
 1310              		@ args = 0, pretend = 0, frame = 8
 1311              		@ frame_needed = 1, uses_anonymous_args = 0
 1312              		@ link register save eliminated.
 1313 0000 80B4     		push	{r7}
 1314              	.LCFI85:
 1315              		.cfi_def_cfa_offset 4
 1316              		.cfi_offset 7, -4
 1317 0002 83B0     		sub	sp, sp, #12
 1318              	.LCFI86:
 1319              		.cfi_def_cfa_offset 16
 1320 0004 00AF     		add	r7, sp, #0
 1321              	.LCFI87:
 1322              		.cfi_def_cfa_register 7
 1323 0006 7860     		str	r0, [r7, #4]
 1324 0008 0B46     		mov	r3, r1
 1325 000a FB70     		strb	r3, [r7, #3]
1250:Drivers/STM32G4xx_HAL_Driver/Src/stm32g4xx_hal_pcd.c ****   /* Prevent unused argument(s) compilation warning */
1251:Drivers/STM32G4xx_HAL_Driver/Src/stm32g4xx_hal_pcd.c ****   UNUSED(hpcd);
1252:Drivers/STM32G4xx_HAL_Driver/Src/stm32g4xx_hal_pcd.c ****   UNUSED(epnum);
1253:Drivers/STM32G4xx_HAL_Driver/Src/stm32g4xx_hal_pcd.c **** 
1254:Drivers/STM32G4xx_HAL_Driver/Src/stm32g4xx_hal_pcd.c ****   /* NOTE : This function should not be modified, when the callback is needed,
1255:Drivers/STM32G4xx_HAL_Driver/Src/stm32g4xx_hal_pcd.c ****             the HAL_PCD_ISOINIncompleteCallback could be implemented in the user file
1256:Drivers/STM32G4xx_HAL_Driver/Src/stm32g4xx_hal_pcd.c ****    */
1257:Drivers/STM32G4xx_HAL_Driver/Src/stm32g4xx_hal_pcd.c **** }
 1326              		.loc 1 1257 1
 1327 000c 00BF     		nop
 1328 000e 0C37     		adds	r7, r7, #12
 1329              	.LCFI88:
 1330              		.cfi_def_cfa_offset 4
 1331 0010 BD46     		mov	sp, r7
ARM GAS  /tmp/cc4MD8jd.s 			page 46


 1332              	.LCFI89:
 1333              		.cfi_def_cfa_register 13
 1334              		@ sp needed
 1335 0012 5DF8047B 		ldr	r7, [sp], #4
 1336              	.LCFI90:
 1337              		.cfi_restore 7
 1338              		.cfi_def_cfa_offset 0
 1339 0016 7047     		bx	lr
 1340              		.cfi_endproc
 1341              	.LFE343:
 1343              		.section	.text.HAL_PCD_ConnectCallback,"ax",%progbits
 1344              		.align	1
 1345              		.weak	HAL_PCD_ConnectCallback
 1346              		.syntax unified
 1347              		.thumb
 1348              		.thumb_func
 1349              		.fpu fpv4-sp-d16
 1351              	HAL_PCD_ConnectCallback:
 1352              	.LFB344:
1258:Drivers/STM32G4xx_HAL_Driver/Src/stm32g4xx_hal_pcd.c **** 
1259:Drivers/STM32G4xx_HAL_Driver/Src/stm32g4xx_hal_pcd.c **** /**
1260:Drivers/STM32G4xx_HAL_Driver/Src/stm32g4xx_hal_pcd.c ****   * @brief  Connection event callback.
1261:Drivers/STM32G4xx_HAL_Driver/Src/stm32g4xx_hal_pcd.c ****   * @param  hpcd PCD handle
1262:Drivers/STM32G4xx_HAL_Driver/Src/stm32g4xx_hal_pcd.c ****   * @retval None
1263:Drivers/STM32G4xx_HAL_Driver/Src/stm32g4xx_hal_pcd.c ****   */
1264:Drivers/STM32G4xx_HAL_Driver/Src/stm32g4xx_hal_pcd.c **** __weak void HAL_PCD_ConnectCallback(PCD_HandleTypeDef *hpcd)
1265:Drivers/STM32G4xx_HAL_Driver/Src/stm32g4xx_hal_pcd.c **** {
 1353              		.loc 1 1265 1
 1354              		.cfi_startproc
 1355              		@ args = 0, pretend = 0, frame = 8
 1356              		@ frame_needed = 1, uses_anonymous_args = 0
 1357              		@ link register save eliminated.
 1358 0000 80B4     		push	{r7}
 1359              	.LCFI91:
 1360              		.cfi_def_cfa_offset 4
 1361              		.cfi_offset 7, -4
 1362 0002 83B0     		sub	sp, sp, #12
 1363              	.LCFI92:
 1364              		.cfi_def_cfa_offset 16
 1365 0004 00AF     		add	r7, sp, #0
 1366              	.LCFI93:
 1367              		.cfi_def_cfa_register 7
 1368 0006 7860     		str	r0, [r7, #4]
1266:Drivers/STM32G4xx_HAL_Driver/Src/stm32g4xx_hal_pcd.c ****   /* Prevent unused argument(s) compilation warning */
1267:Drivers/STM32G4xx_HAL_Driver/Src/stm32g4xx_hal_pcd.c ****   UNUSED(hpcd);
1268:Drivers/STM32G4xx_HAL_Driver/Src/stm32g4xx_hal_pcd.c **** 
1269:Drivers/STM32G4xx_HAL_Driver/Src/stm32g4xx_hal_pcd.c ****   /* NOTE : This function should not be modified, when the callback is needed,
1270:Drivers/STM32G4xx_HAL_Driver/Src/stm32g4xx_hal_pcd.c ****             the HAL_PCD_ConnectCallback could be implemented in the user file
1271:Drivers/STM32G4xx_HAL_Driver/Src/stm32g4xx_hal_pcd.c ****    */
1272:Drivers/STM32G4xx_HAL_Driver/Src/stm32g4xx_hal_pcd.c **** }
 1369              		.loc 1 1272 1
 1370 0008 00BF     		nop
 1371 000a 0C37     		adds	r7, r7, #12
 1372              	.LCFI94:
 1373              		.cfi_def_cfa_offset 4
 1374 000c BD46     		mov	sp, r7
 1375              	.LCFI95:
ARM GAS  /tmp/cc4MD8jd.s 			page 47


 1376              		.cfi_def_cfa_register 13
 1377              		@ sp needed
 1378 000e 5DF8047B 		ldr	r7, [sp], #4
 1379              	.LCFI96:
 1380              		.cfi_restore 7
 1381              		.cfi_def_cfa_offset 0
 1382 0012 7047     		bx	lr
 1383              		.cfi_endproc
 1384              	.LFE344:
 1386              		.section	.text.HAL_PCD_DisconnectCallback,"ax",%progbits
 1387              		.align	1
 1388              		.weak	HAL_PCD_DisconnectCallback
 1389              		.syntax unified
 1390              		.thumb
 1391              		.thumb_func
 1392              		.fpu fpv4-sp-d16
 1394              	HAL_PCD_DisconnectCallback:
 1395              	.LFB345:
1273:Drivers/STM32G4xx_HAL_Driver/Src/stm32g4xx_hal_pcd.c **** 
1274:Drivers/STM32G4xx_HAL_Driver/Src/stm32g4xx_hal_pcd.c **** /**
1275:Drivers/STM32G4xx_HAL_Driver/Src/stm32g4xx_hal_pcd.c ****   * @brief  Disconnection event callback.
1276:Drivers/STM32G4xx_HAL_Driver/Src/stm32g4xx_hal_pcd.c ****   * @param  hpcd PCD handle
1277:Drivers/STM32G4xx_HAL_Driver/Src/stm32g4xx_hal_pcd.c ****   * @retval None
1278:Drivers/STM32G4xx_HAL_Driver/Src/stm32g4xx_hal_pcd.c ****   */
1279:Drivers/STM32G4xx_HAL_Driver/Src/stm32g4xx_hal_pcd.c **** __weak void HAL_PCD_DisconnectCallback(PCD_HandleTypeDef *hpcd)
1280:Drivers/STM32G4xx_HAL_Driver/Src/stm32g4xx_hal_pcd.c **** {
 1396              		.loc 1 1280 1
 1397              		.cfi_startproc
 1398              		@ args = 0, pretend = 0, frame = 8
 1399              		@ frame_needed = 1, uses_anonymous_args = 0
 1400              		@ link register save eliminated.
 1401 0000 80B4     		push	{r7}
 1402              	.LCFI97:
 1403              		.cfi_def_cfa_offset 4
 1404              		.cfi_offset 7, -4
 1405 0002 83B0     		sub	sp, sp, #12
 1406              	.LCFI98:
 1407              		.cfi_def_cfa_offset 16
 1408 0004 00AF     		add	r7, sp, #0
 1409              	.LCFI99:
 1410              		.cfi_def_cfa_register 7
 1411 0006 7860     		str	r0, [r7, #4]
1281:Drivers/STM32G4xx_HAL_Driver/Src/stm32g4xx_hal_pcd.c ****   /* Prevent unused argument(s) compilation warning */
1282:Drivers/STM32G4xx_HAL_Driver/Src/stm32g4xx_hal_pcd.c ****   UNUSED(hpcd);
1283:Drivers/STM32G4xx_HAL_Driver/Src/stm32g4xx_hal_pcd.c **** 
1284:Drivers/STM32G4xx_HAL_Driver/Src/stm32g4xx_hal_pcd.c ****   /* NOTE : This function should not be modified, when the callback is needed,
1285:Drivers/STM32G4xx_HAL_Driver/Src/stm32g4xx_hal_pcd.c ****             the HAL_PCD_DisconnectCallback could be implemented in the user file
1286:Drivers/STM32G4xx_HAL_Driver/Src/stm32g4xx_hal_pcd.c ****    */
1287:Drivers/STM32G4xx_HAL_Driver/Src/stm32g4xx_hal_pcd.c **** }
 1412              		.loc 1 1287 1
 1413 0008 00BF     		nop
 1414 000a 0C37     		adds	r7, r7, #12
 1415              	.LCFI100:
 1416              		.cfi_def_cfa_offset 4
 1417 000c BD46     		mov	sp, r7
 1418              	.LCFI101:
 1419              		.cfi_def_cfa_register 13
ARM GAS  /tmp/cc4MD8jd.s 			page 48


 1420              		@ sp needed
 1421 000e 5DF8047B 		ldr	r7, [sp], #4
 1422              	.LCFI102:
 1423              		.cfi_restore 7
 1424              		.cfi_def_cfa_offset 0
 1425 0012 7047     		bx	lr
 1426              		.cfi_endproc
 1427              	.LFE345:
 1429              		.section	.text.HAL_PCD_DevConnect,"ax",%progbits
 1430              		.align	1
 1431              		.global	HAL_PCD_DevConnect
 1432              		.syntax unified
 1433              		.thumb
 1434              		.thumb_func
 1435              		.fpu fpv4-sp-d16
 1437              	HAL_PCD_DevConnect:
 1438              	.LFB346:
1288:Drivers/STM32G4xx_HAL_Driver/Src/stm32g4xx_hal_pcd.c **** 
1289:Drivers/STM32G4xx_HAL_Driver/Src/stm32g4xx_hal_pcd.c **** /**
1290:Drivers/STM32G4xx_HAL_Driver/Src/stm32g4xx_hal_pcd.c ****   * @}
1291:Drivers/STM32G4xx_HAL_Driver/Src/stm32g4xx_hal_pcd.c ****   */
1292:Drivers/STM32G4xx_HAL_Driver/Src/stm32g4xx_hal_pcd.c **** 
1293:Drivers/STM32G4xx_HAL_Driver/Src/stm32g4xx_hal_pcd.c **** /** @defgroup PCD_Exported_Functions_Group3 Peripheral Control functions
1294:Drivers/STM32G4xx_HAL_Driver/Src/stm32g4xx_hal_pcd.c ****  *  @brief   management functions
1295:Drivers/STM32G4xx_HAL_Driver/Src/stm32g4xx_hal_pcd.c ****  *
1296:Drivers/STM32G4xx_HAL_Driver/Src/stm32g4xx_hal_pcd.c **** @verbatim
1297:Drivers/STM32G4xx_HAL_Driver/Src/stm32g4xx_hal_pcd.c ****  ===============================================================================
1298:Drivers/STM32G4xx_HAL_Driver/Src/stm32g4xx_hal_pcd.c ****                       ##### Peripheral Control functions #####
1299:Drivers/STM32G4xx_HAL_Driver/Src/stm32g4xx_hal_pcd.c ****  ===============================================================================
1300:Drivers/STM32G4xx_HAL_Driver/Src/stm32g4xx_hal_pcd.c ****     [..]
1301:Drivers/STM32G4xx_HAL_Driver/Src/stm32g4xx_hal_pcd.c ****     This subsection provides a set of functions allowing to control the PCD data
1302:Drivers/STM32G4xx_HAL_Driver/Src/stm32g4xx_hal_pcd.c ****     transfers.
1303:Drivers/STM32G4xx_HAL_Driver/Src/stm32g4xx_hal_pcd.c **** 
1304:Drivers/STM32G4xx_HAL_Driver/Src/stm32g4xx_hal_pcd.c **** @endverbatim
1305:Drivers/STM32G4xx_HAL_Driver/Src/stm32g4xx_hal_pcd.c ****   * @{
1306:Drivers/STM32G4xx_HAL_Driver/Src/stm32g4xx_hal_pcd.c ****   */
1307:Drivers/STM32G4xx_HAL_Driver/Src/stm32g4xx_hal_pcd.c **** 
1308:Drivers/STM32G4xx_HAL_Driver/Src/stm32g4xx_hal_pcd.c **** /**
1309:Drivers/STM32G4xx_HAL_Driver/Src/stm32g4xx_hal_pcd.c ****   * @brief  Connect the USB device
1310:Drivers/STM32G4xx_HAL_Driver/Src/stm32g4xx_hal_pcd.c ****   * @param  hpcd PCD handle
1311:Drivers/STM32G4xx_HAL_Driver/Src/stm32g4xx_hal_pcd.c ****   * @retval HAL status
1312:Drivers/STM32G4xx_HAL_Driver/Src/stm32g4xx_hal_pcd.c ****   */
1313:Drivers/STM32G4xx_HAL_Driver/Src/stm32g4xx_hal_pcd.c **** HAL_StatusTypeDef HAL_PCD_DevConnect(PCD_HandleTypeDef *hpcd)
1314:Drivers/STM32G4xx_HAL_Driver/Src/stm32g4xx_hal_pcd.c **** {
 1439              		.loc 1 1314 1
 1440              		.cfi_startproc
 1441              		@ args = 0, pretend = 0, frame = 8
 1442              		@ frame_needed = 1, uses_anonymous_args = 0
 1443 0000 80B5     		push	{r7, lr}
 1444              	.LCFI103:
 1445              		.cfi_def_cfa_offset 8
 1446              		.cfi_offset 7, -8
 1447              		.cfi_offset 14, -4
 1448 0002 82B0     		sub	sp, sp, #8
 1449              	.LCFI104:
 1450              		.cfi_def_cfa_offset 16
 1451 0004 00AF     		add	r7, sp, #0
ARM GAS  /tmp/cc4MD8jd.s 			page 49


 1452              	.LCFI105:
 1453              		.cfi_def_cfa_register 7
 1454 0006 7860     		str	r0, [r7, #4]
1315:Drivers/STM32G4xx_HAL_Driver/Src/stm32g4xx_hal_pcd.c ****   __HAL_LOCK(hpcd);
 1455              		.loc 1 1315 3
 1456 0008 7B68     		ldr	r3, [r7, #4]
 1457 000a 93F82832 		ldrb	r3, [r3, #552]	@ zero_extendqisi2
 1458 000e 012B     		cmp	r3, #1
 1459 0010 01D1     		bne	.L46
 1460              		.loc 1 1315 3 is_stmt 0 discriminator 1
 1461 0012 0223     		movs	r3, #2
 1462 0014 0DE0     		b	.L47
 1463              	.L46:
 1464              		.loc 1 1315 3 discriminator 2
 1465 0016 7B68     		ldr	r3, [r7, #4]
 1466 0018 0122     		movs	r2, #1
 1467 001a 83F82822 		strb	r2, [r3, #552]
1316:Drivers/STM32G4xx_HAL_Driver/Src/stm32g4xx_hal_pcd.c ****   (void)USB_DevConnect(hpcd->Instance);
 1468              		.loc 1 1316 28 is_stmt 1 discriminator 2
 1469 001e 7B68     		ldr	r3, [r7, #4]
 1470 0020 1B68     		ldr	r3, [r3]
 1471              		.loc 1 1316 9 discriminator 2
 1472 0022 1846     		mov	r0, r3
 1473 0024 FFF7FEFF 		bl	USB_DevConnect
1317:Drivers/STM32G4xx_HAL_Driver/Src/stm32g4xx_hal_pcd.c ****   __HAL_UNLOCK(hpcd);
 1474              		.loc 1 1317 3 discriminator 2
 1475 0028 7B68     		ldr	r3, [r7, #4]
 1476 002a 0022     		movs	r2, #0
 1477 002c 83F82822 		strb	r2, [r3, #552]
1318:Drivers/STM32G4xx_HAL_Driver/Src/stm32g4xx_hal_pcd.c ****   return HAL_OK;
 1478              		.loc 1 1318 10 discriminator 2
 1479 0030 0023     		movs	r3, #0
 1480              	.L47:
1319:Drivers/STM32G4xx_HAL_Driver/Src/stm32g4xx_hal_pcd.c **** }
 1481              		.loc 1 1319 1
 1482 0032 1846     		mov	r0, r3
 1483 0034 0837     		adds	r7, r7, #8
 1484              	.LCFI106:
 1485              		.cfi_def_cfa_offset 8
 1486 0036 BD46     		mov	sp, r7
 1487              	.LCFI107:
 1488              		.cfi_def_cfa_register 13
 1489              		@ sp needed
 1490 0038 80BD     		pop	{r7, pc}
 1491              		.cfi_endproc
 1492              	.LFE346:
 1494              		.section	.text.HAL_PCD_DevDisconnect,"ax",%progbits
 1495              		.align	1
 1496              		.global	HAL_PCD_DevDisconnect
 1497              		.syntax unified
 1498              		.thumb
 1499              		.thumb_func
 1500              		.fpu fpv4-sp-d16
 1502              	HAL_PCD_DevDisconnect:
 1503              	.LFB347:
1320:Drivers/STM32G4xx_HAL_Driver/Src/stm32g4xx_hal_pcd.c **** 
1321:Drivers/STM32G4xx_HAL_Driver/Src/stm32g4xx_hal_pcd.c **** /**
ARM GAS  /tmp/cc4MD8jd.s 			page 50


1322:Drivers/STM32G4xx_HAL_Driver/Src/stm32g4xx_hal_pcd.c ****   * @brief  Disconnect the USB device.
1323:Drivers/STM32G4xx_HAL_Driver/Src/stm32g4xx_hal_pcd.c ****   * @param  hpcd PCD handle
1324:Drivers/STM32G4xx_HAL_Driver/Src/stm32g4xx_hal_pcd.c ****   * @retval HAL status
1325:Drivers/STM32G4xx_HAL_Driver/Src/stm32g4xx_hal_pcd.c ****   */
1326:Drivers/STM32G4xx_HAL_Driver/Src/stm32g4xx_hal_pcd.c **** HAL_StatusTypeDef HAL_PCD_DevDisconnect(PCD_HandleTypeDef *hpcd)
1327:Drivers/STM32G4xx_HAL_Driver/Src/stm32g4xx_hal_pcd.c **** {
 1504              		.loc 1 1327 1
 1505              		.cfi_startproc
 1506              		@ args = 0, pretend = 0, frame = 8
 1507              		@ frame_needed = 1, uses_anonymous_args = 0
 1508 0000 80B5     		push	{r7, lr}
 1509              	.LCFI108:
 1510              		.cfi_def_cfa_offset 8
 1511              		.cfi_offset 7, -8
 1512              		.cfi_offset 14, -4
 1513 0002 82B0     		sub	sp, sp, #8
 1514              	.LCFI109:
 1515              		.cfi_def_cfa_offset 16
 1516 0004 00AF     		add	r7, sp, #0
 1517              	.LCFI110:
 1518              		.cfi_def_cfa_register 7
 1519 0006 7860     		str	r0, [r7, #4]
1328:Drivers/STM32G4xx_HAL_Driver/Src/stm32g4xx_hal_pcd.c ****   __HAL_LOCK(hpcd);
 1520              		.loc 1 1328 3
 1521 0008 7B68     		ldr	r3, [r7, #4]
 1522 000a 93F82832 		ldrb	r3, [r3, #552]	@ zero_extendqisi2
 1523 000e 012B     		cmp	r3, #1
 1524 0010 01D1     		bne	.L49
 1525              		.loc 1 1328 3 is_stmt 0 discriminator 1
 1526 0012 0223     		movs	r3, #2
 1527 0014 0DE0     		b	.L50
 1528              	.L49:
 1529              		.loc 1 1328 3 discriminator 2
 1530 0016 7B68     		ldr	r3, [r7, #4]
 1531 0018 0122     		movs	r2, #1
 1532 001a 83F82822 		strb	r2, [r3, #552]
1329:Drivers/STM32G4xx_HAL_Driver/Src/stm32g4xx_hal_pcd.c ****   (void)USB_DevDisconnect(hpcd->Instance);
 1533              		.loc 1 1329 31 is_stmt 1 discriminator 2
 1534 001e 7B68     		ldr	r3, [r7, #4]
 1535 0020 1B68     		ldr	r3, [r3]
 1536              		.loc 1 1329 9 discriminator 2
 1537 0022 1846     		mov	r0, r3
 1538 0024 FFF7FEFF 		bl	USB_DevDisconnect
1330:Drivers/STM32G4xx_HAL_Driver/Src/stm32g4xx_hal_pcd.c ****   __HAL_UNLOCK(hpcd);
 1539              		.loc 1 1330 3 discriminator 2
 1540 0028 7B68     		ldr	r3, [r7, #4]
 1541 002a 0022     		movs	r2, #0
 1542 002c 83F82822 		strb	r2, [r3, #552]
1331:Drivers/STM32G4xx_HAL_Driver/Src/stm32g4xx_hal_pcd.c ****   return HAL_OK;
 1543              		.loc 1 1331 10 discriminator 2
 1544 0030 0023     		movs	r3, #0
 1545              	.L50:
1332:Drivers/STM32G4xx_HAL_Driver/Src/stm32g4xx_hal_pcd.c **** }
 1546              		.loc 1 1332 1
 1547 0032 1846     		mov	r0, r3
 1548 0034 0837     		adds	r7, r7, #8
 1549              	.LCFI111:
ARM GAS  /tmp/cc4MD8jd.s 			page 51


 1550              		.cfi_def_cfa_offset 8
 1551 0036 BD46     		mov	sp, r7
 1552              	.LCFI112:
 1553              		.cfi_def_cfa_register 13
 1554              		@ sp needed
 1555 0038 80BD     		pop	{r7, pc}
 1556              		.cfi_endproc
 1557              	.LFE347:
 1559              		.section	.text.HAL_PCD_SetAddress,"ax",%progbits
 1560              		.align	1
 1561              		.global	HAL_PCD_SetAddress
 1562              		.syntax unified
 1563              		.thumb
 1564              		.thumb_func
 1565              		.fpu fpv4-sp-d16
 1567              	HAL_PCD_SetAddress:
 1568              	.LFB348:
1333:Drivers/STM32G4xx_HAL_Driver/Src/stm32g4xx_hal_pcd.c **** 
1334:Drivers/STM32G4xx_HAL_Driver/Src/stm32g4xx_hal_pcd.c **** /**
1335:Drivers/STM32G4xx_HAL_Driver/Src/stm32g4xx_hal_pcd.c ****   * @brief  Set the USB Device address.
1336:Drivers/STM32G4xx_HAL_Driver/Src/stm32g4xx_hal_pcd.c ****   * @param  hpcd PCD handle
1337:Drivers/STM32G4xx_HAL_Driver/Src/stm32g4xx_hal_pcd.c ****   * @param  address new device address
1338:Drivers/STM32G4xx_HAL_Driver/Src/stm32g4xx_hal_pcd.c ****   * @retval HAL status
1339:Drivers/STM32G4xx_HAL_Driver/Src/stm32g4xx_hal_pcd.c ****   */
1340:Drivers/STM32G4xx_HAL_Driver/Src/stm32g4xx_hal_pcd.c **** HAL_StatusTypeDef HAL_PCD_SetAddress(PCD_HandleTypeDef *hpcd, uint8_t address)
1341:Drivers/STM32G4xx_HAL_Driver/Src/stm32g4xx_hal_pcd.c **** {
 1569              		.loc 1 1341 1
 1570              		.cfi_startproc
 1571              		@ args = 0, pretend = 0, frame = 8
 1572              		@ frame_needed = 1, uses_anonymous_args = 0
 1573 0000 80B5     		push	{r7, lr}
 1574              	.LCFI113:
 1575              		.cfi_def_cfa_offset 8
 1576              		.cfi_offset 7, -8
 1577              		.cfi_offset 14, -4
 1578 0002 82B0     		sub	sp, sp, #8
 1579              	.LCFI114:
 1580              		.cfi_def_cfa_offset 16
 1581 0004 00AF     		add	r7, sp, #0
 1582              	.LCFI115:
 1583              		.cfi_def_cfa_register 7
 1584 0006 7860     		str	r0, [r7, #4]
 1585 0008 0B46     		mov	r3, r1
 1586 000a FB70     		strb	r3, [r7, #3]
1342:Drivers/STM32G4xx_HAL_Driver/Src/stm32g4xx_hal_pcd.c ****   __HAL_LOCK(hpcd);
 1587              		.loc 1 1342 3
 1588 000c 7B68     		ldr	r3, [r7, #4]
 1589 000e 93F82832 		ldrb	r3, [r3, #552]	@ zero_extendqisi2
 1590 0012 012B     		cmp	r3, #1
 1591 0014 01D1     		bne	.L52
 1592              		.loc 1 1342 3 is_stmt 0 discriminator 1
 1593 0016 0223     		movs	r3, #2
 1594 0018 13E0     		b	.L53
 1595              	.L52:
 1596              		.loc 1 1342 3 discriminator 2
 1597 001a 7B68     		ldr	r3, [r7, #4]
 1598 001c 0122     		movs	r2, #1
ARM GAS  /tmp/cc4MD8jd.s 			page 52


 1599 001e 83F82822 		strb	r2, [r3, #552]
1343:Drivers/STM32G4xx_HAL_Driver/Src/stm32g4xx_hal_pcd.c ****   hpcd->USB_Address = address;
 1600              		.loc 1 1343 21 is_stmt 1 discriminator 2
 1601 0022 7B68     		ldr	r3, [r7, #4]
 1602 0024 FA78     		ldrb	r2, [r7, #3]
 1603 0026 83F82420 		strb	r2, [r3, #36]
1344:Drivers/STM32G4xx_HAL_Driver/Src/stm32g4xx_hal_pcd.c ****   (void)USB_SetDevAddress(hpcd->Instance, address);
 1604              		.loc 1 1344 31 discriminator 2
 1605 002a 7B68     		ldr	r3, [r7, #4]
 1606 002c 1B68     		ldr	r3, [r3]
 1607              		.loc 1 1344 9 discriminator 2
 1608 002e FA78     		ldrb	r2, [r7, #3]	@ zero_extendqisi2
 1609 0030 1146     		mov	r1, r2
 1610 0032 1846     		mov	r0, r3
 1611 0034 FFF7FEFF 		bl	USB_SetDevAddress
1345:Drivers/STM32G4xx_HAL_Driver/Src/stm32g4xx_hal_pcd.c ****   __HAL_UNLOCK(hpcd);
 1612              		.loc 1 1345 3 discriminator 2
 1613 0038 7B68     		ldr	r3, [r7, #4]
 1614 003a 0022     		movs	r2, #0
 1615 003c 83F82822 		strb	r2, [r3, #552]
1346:Drivers/STM32G4xx_HAL_Driver/Src/stm32g4xx_hal_pcd.c ****   return HAL_OK;
 1616              		.loc 1 1346 10 discriminator 2
 1617 0040 0023     		movs	r3, #0
 1618              	.L53:
1347:Drivers/STM32G4xx_HAL_Driver/Src/stm32g4xx_hal_pcd.c **** }
 1619              		.loc 1 1347 1
 1620 0042 1846     		mov	r0, r3
 1621 0044 0837     		adds	r7, r7, #8
 1622              	.LCFI116:
 1623              		.cfi_def_cfa_offset 8
 1624 0046 BD46     		mov	sp, r7
 1625              	.LCFI117:
 1626              		.cfi_def_cfa_register 13
 1627              		@ sp needed
 1628 0048 80BD     		pop	{r7, pc}
 1629              		.cfi_endproc
 1630              	.LFE348:
 1632              		.section	.text.HAL_PCD_EP_Open,"ax",%progbits
 1633              		.align	1
 1634              		.global	HAL_PCD_EP_Open
 1635              		.syntax unified
 1636              		.thumb
 1637              		.thumb_func
 1638              		.fpu fpv4-sp-d16
 1640              	HAL_PCD_EP_Open:
 1641              	.LFB349:
1348:Drivers/STM32G4xx_HAL_Driver/Src/stm32g4xx_hal_pcd.c **** /**
1349:Drivers/STM32G4xx_HAL_Driver/Src/stm32g4xx_hal_pcd.c ****   * @brief  Open and configure an endpoint.
1350:Drivers/STM32G4xx_HAL_Driver/Src/stm32g4xx_hal_pcd.c ****   * @param  hpcd PCD handle
1351:Drivers/STM32G4xx_HAL_Driver/Src/stm32g4xx_hal_pcd.c ****   * @param  ep_addr endpoint address
1352:Drivers/STM32G4xx_HAL_Driver/Src/stm32g4xx_hal_pcd.c ****   * @param  ep_mps endpoint max packet size
1353:Drivers/STM32G4xx_HAL_Driver/Src/stm32g4xx_hal_pcd.c ****   * @param  ep_type endpoint type
1354:Drivers/STM32G4xx_HAL_Driver/Src/stm32g4xx_hal_pcd.c ****   * @retval HAL status
1355:Drivers/STM32G4xx_HAL_Driver/Src/stm32g4xx_hal_pcd.c ****   */
1356:Drivers/STM32G4xx_HAL_Driver/Src/stm32g4xx_hal_pcd.c **** HAL_StatusTypeDef HAL_PCD_EP_Open(PCD_HandleTypeDef *hpcd, uint8_t ep_addr, uint16_t ep_mps, uint8_
1357:Drivers/STM32G4xx_HAL_Driver/Src/stm32g4xx_hal_pcd.c **** {
 1642              		.loc 1 1357 1
ARM GAS  /tmp/cc4MD8jd.s 			page 53


 1643              		.cfi_startproc
 1644              		@ args = 0, pretend = 0, frame = 16
 1645              		@ frame_needed = 1, uses_anonymous_args = 0
 1646 0000 80B5     		push	{r7, lr}
 1647              	.LCFI118:
 1648              		.cfi_def_cfa_offset 8
 1649              		.cfi_offset 7, -8
 1650              		.cfi_offset 14, -4
 1651 0002 84B0     		sub	sp, sp, #16
 1652              	.LCFI119:
 1653              		.cfi_def_cfa_offset 24
 1654 0004 00AF     		add	r7, sp, #0
 1655              	.LCFI120:
 1656              		.cfi_def_cfa_register 7
 1657 0006 7860     		str	r0, [r7, #4]
 1658 0008 0846     		mov	r0, r1
 1659 000a 1146     		mov	r1, r2
 1660 000c 1A46     		mov	r2, r3
 1661 000e 0346     		mov	r3, r0
 1662 0010 FB70     		strb	r3, [r7, #3]
 1663 0012 0B46     		mov	r3, r1	@ movhi
 1664 0014 3B80     		strh	r3, [r7]	@ movhi
 1665 0016 1346     		mov	r3, r2
 1666 0018 BB70     		strb	r3, [r7, #2]
1358:Drivers/STM32G4xx_HAL_Driver/Src/stm32g4xx_hal_pcd.c ****   HAL_StatusTypeDef  ret = HAL_OK;
 1667              		.loc 1 1358 22
 1668 001a 0023     		movs	r3, #0
 1669 001c FB72     		strb	r3, [r7, #11]
1359:Drivers/STM32G4xx_HAL_Driver/Src/stm32g4xx_hal_pcd.c ****   PCD_EPTypeDef *ep;
1360:Drivers/STM32G4xx_HAL_Driver/Src/stm32g4xx_hal_pcd.c **** 
1361:Drivers/STM32G4xx_HAL_Driver/Src/stm32g4xx_hal_pcd.c ****   if ((ep_addr & 0x80U) == 0x80U)
 1670              		.loc 1 1361 25
 1671 001e 97F90330 		ldrsb	r3, [r7, #3]
 1672              		.loc 1 1361 6
 1673 0022 002B     		cmp	r3, #0
 1674 0024 0BDA     		bge	.L55
1362:Drivers/STM32G4xx_HAL_Driver/Src/stm32g4xx_hal_pcd.c ****   {
1363:Drivers/STM32G4xx_HAL_Driver/Src/stm32g4xx_hal_pcd.c ****     ep = &hpcd->IN_ep[ep_addr & EP_ADDR_MSK];
 1675              		.loc 1 1363 31
 1676 0026 FB78     		ldrb	r3, [r7, #3]	@ zero_extendqisi2
 1677 0028 03F00703 		and	r3, r3, #7
 1678              		.loc 1 1363 8
 1679 002c 5B01     		lsls	r3, r3, #5
 1680 002e 2833     		adds	r3, r3, #40
 1681 0030 7A68     		ldr	r2, [r7, #4]
 1682 0032 1344     		add	r3, r3, r2
 1683 0034 FB60     		str	r3, [r7, #12]
1364:Drivers/STM32G4xx_HAL_Driver/Src/stm32g4xx_hal_pcd.c ****     ep->is_in = 1U;
 1684              		.loc 1 1364 15
 1685 0036 FB68     		ldr	r3, [r7, #12]
 1686 0038 0122     		movs	r2, #1
 1687 003a 5A70     		strb	r2, [r3, #1]
 1688 003c 0BE0     		b	.L56
 1689              	.L55:
1365:Drivers/STM32G4xx_HAL_Driver/Src/stm32g4xx_hal_pcd.c ****   }
1366:Drivers/STM32G4xx_HAL_Driver/Src/stm32g4xx_hal_pcd.c ****   else
1367:Drivers/STM32G4xx_HAL_Driver/Src/stm32g4xx_hal_pcd.c ****   {
ARM GAS  /tmp/cc4MD8jd.s 			page 54


1368:Drivers/STM32G4xx_HAL_Driver/Src/stm32g4xx_hal_pcd.c ****     ep = &hpcd->OUT_ep[ep_addr & EP_ADDR_MSK];
 1690              		.loc 1 1368 32
 1691 003e FB78     		ldrb	r3, [r7, #3]	@ zero_extendqisi2
 1692 0040 03F00703 		and	r3, r3, #7
 1693              		.loc 1 1368 8
 1694 0044 5B01     		lsls	r3, r3, #5
 1695 0046 03F59473 		add	r3, r3, #296
 1696 004a 7A68     		ldr	r2, [r7, #4]
 1697 004c 1344     		add	r3, r3, r2
 1698 004e FB60     		str	r3, [r7, #12]
1369:Drivers/STM32G4xx_HAL_Driver/Src/stm32g4xx_hal_pcd.c ****     ep->is_in = 0U;
 1699              		.loc 1 1369 15
 1700 0050 FB68     		ldr	r3, [r7, #12]
 1701 0052 0022     		movs	r2, #0
 1702 0054 5A70     		strb	r2, [r3, #1]
 1703              	.L56:
1370:Drivers/STM32G4xx_HAL_Driver/Src/stm32g4xx_hal_pcd.c ****   }
1371:Drivers/STM32G4xx_HAL_Driver/Src/stm32g4xx_hal_pcd.c **** 
1372:Drivers/STM32G4xx_HAL_Driver/Src/stm32g4xx_hal_pcd.c ****   ep->num = ep_addr & EP_ADDR_MSK;
 1704              		.loc 1 1372 21
 1705 0056 FB78     		ldrb	r3, [r7, #3]
 1706 0058 03F00703 		and	r3, r3, #7
 1707 005c DAB2     		uxtb	r2, r3
 1708              		.loc 1 1372 11
 1709 005e FB68     		ldr	r3, [r7, #12]
 1710 0060 1A70     		strb	r2, [r3]
1373:Drivers/STM32G4xx_HAL_Driver/Src/stm32g4xx_hal_pcd.c ****   ep->maxpacket = ep_mps;
 1711              		.loc 1 1373 17
 1712 0062 3A88     		ldrh	r2, [r7]
 1713 0064 FB68     		ldr	r3, [r7, #12]
 1714 0066 1A61     		str	r2, [r3, #16]
1374:Drivers/STM32G4xx_HAL_Driver/Src/stm32g4xx_hal_pcd.c ****   ep->type = ep_type;
 1715              		.loc 1 1374 12
 1716 0068 FB68     		ldr	r3, [r7, #12]
 1717 006a BA78     		ldrb	r2, [r7, #2]
 1718 006c DA70     		strb	r2, [r3, #3]
1375:Drivers/STM32G4xx_HAL_Driver/Src/stm32g4xx_hal_pcd.c **** 
1376:Drivers/STM32G4xx_HAL_Driver/Src/stm32g4xx_hal_pcd.c ****   if (ep->is_in != 0U)
 1719              		.loc 1 1376 9
 1720 006e FB68     		ldr	r3, [r7, #12]
 1721 0070 5B78     		ldrb	r3, [r3, #1]	@ zero_extendqisi2
 1722              		.loc 1 1376 6
 1723 0072 002B     		cmp	r3, #0
 1724 0074 04D0     		beq	.L57
1377:Drivers/STM32G4xx_HAL_Driver/Src/stm32g4xx_hal_pcd.c ****   {
1378:Drivers/STM32G4xx_HAL_Driver/Src/stm32g4xx_hal_pcd.c ****     /* Assign a Tx FIFO */
1379:Drivers/STM32G4xx_HAL_Driver/Src/stm32g4xx_hal_pcd.c ****     ep->tx_fifo_num = ep->num;
 1725              		.loc 1 1379 25
 1726 0076 FB68     		ldr	r3, [r7, #12]
 1727 0078 1B78     		ldrb	r3, [r3]	@ zero_extendqisi2
 1728 007a 9AB2     		uxth	r2, r3
 1729              		.loc 1 1379 21
 1730 007c FB68     		ldr	r3, [r7, #12]
 1731 007e DA81     		strh	r2, [r3, #14]	@ movhi
 1732              	.L57:
1380:Drivers/STM32G4xx_HAL_Driver/Src/stm32g4xx_hal_pcd.c ****   }
1381:Drivers/STM32G4xx_HAL_Driver/Src/stm32g4xx_hal_pcd.c ****   /* Set initial data PID. */
ARM GAS  /tmp/cc4MD8jd.s 			page 55


1382:Drivers/STM32G4xx_HAL_Driver/Src/stm32g4xx_hal_pcd.c ****   if (ep_type == EP_TYPE_BULK)
 1733              		.loc 1 1382 6
 1734 0080 BB78     		ldrb	r3, [r7, #2]	@ zero_extendqisi2
 1735 0082 022B     		cmp	r3, #2
 1736 0084 02D1     		bne	.L58
1383:Drivers/STM32G4xx_HAL_Driver/Src/stm32g4xx_hal_pcd.c ****   {
1384:Drivers/STM32G4xx_HAL_Driver/Src/stm32g4xx_hal_pcd.c ****     ep->data_pid_start = 0U;
 1737              		.loc 1 1384 24
 1738 0086 FB68     		ldr	r3, [r7, #12]
 1739 0088 0022     		movs	r2, #0
 1740 008a 1A71     		strb	r2, [r3, #4]
 1741              	.L58:
1385:Drivers/STM32G4xx_HAL_Driver/Src/stm32g4xx_hal_pcd.c ****   }
1386:Drivers/STM32G4xx_HAL_Driver/Src/stm32g4xx_hal_pcd.c **** 
1387:Drivers/STM32G4xx_HAL_Driver/Src/stm32g4xx_hal_pcd.c ****   __HAL_LOCK(hpcd);
 1742              		.loc 1 1387 3
 1743 008c 7B68     		ldr	r3, [r7, #4]
 1744 008e 93F82832 		ldrb	r3, [r3, #552]	@ zero_extendqisi2
 1745 0092 012B     		cmp	r3, #1
 1746 0094 01D1     		bne	.L59
 1747              		.loc 1 1387 3 is_stmt 0 discriminator 1
 1748 0096 0223     		movs	r3, #2
 1749 0098 0EE0     		b	.L60
 1750              	.L59:
 1751              		.loc 1 1387 3 discriminator 2
 1752 009a 7B68     		ldr	r3, [r7, #4]
 1753 009c 0122     		movs	r2, #1
 1754 009e 83F82822 		strb	r2, [r3, #552]
1388:Drivers/STM32G4xx_HAL_Driver/Src/stm32g4xx_hal_pcd.c ****   (void)USB_ActivateEndpoint(hpcd->Instance, ep);
 1755              		.loc 1 1388 34 is_stmt 1 discriminator 2
 1756 00a2 7B68     		ldr	r3, [r7, #4]
 1757 00a4 1B68     		ldr	r3, [r3]
 1758              		.loc 1 1388 9 discriminator 2
 1759 00a6 F968     		ldr	r1, [r7, #12]
 1760 00a8 1846     		mov	r0, r3
 1761 00aa FFF7FEFF 		bl	USB_ActivateEndpoint
1389:Drivers/STM32G4xx_HAL_Driver/Src/stm32g4xx_hal_pcd.c ****   __HAL_UNLOCK(hpcd);
 1762              		.loc 1 1389 3 discriminator 2
 1763 00ae 7B68     		ldr	r3, [r7, #4]
 1764 00b0 0022     		movs	r2, #0
 1765 00b2 83F82822 		strb	r2, [r3, #552]
1390:Drivers/STM32G4xx_HAL_Driver/Src/stm32g4xx_hal_pcd.c **** 
1391:Drivers/STM32G4xx_HAL_Driver/Src/stm32g4xx_hal_pcd.c ****   return ret;
 1766              		.loc 1 1391 10 discriminator 2
 1767 00b6 FB7A     		ldrb	r3, [r7, #11]	@ zero_extendqisi2
 1768              	.L60:
1392:Drivers/STM32G4xx_HAL_Driver/Src/stm32g4xx_hal_pcd.c **** }
 1769              		.loc 1 1392 1
 1770 00b8 1846     		mov	r0, r3
 1771 00ba 1037     		adds	r7, r7, #16
 1772              	.LCFI121:
 1773              		.cfi_def_cfa_offset 8
 1774 00bc BD46     		mov	sp, r7
 1775              	.LCFI122:
 1776              		.cfi_def_cfa_register 13
 1777              		@ sp needed
 1778 00be 80BD     		pop	{r7, pc}
ARM GAS  /tmp/cc4MD8jd.s 			page 56


 1779              		.cfi_endproc
 1780              	.LFE349:
 1782              		.section	.text.HAL_PCD_EP_Close,"ax",%progbits
 1783              		.align	1
 1784              		.global	HAL_PCD_EP_Close
 1785              		.syntax unified
 1786              		.thumb
 1787              		.thumb_func
 1788              		.fpu fpv4-sp-d16
 1790              	HAL_PCD_EP_Close:
 1791              	.LFB350:
1393:Drivers/STM32G4xx_HAL_Driver/Src/stm32g4xx_hal_pcd.c **** 
1394:Drivers/STM32G4xx_HAL_Driver/Src/stm32g4xx_hal_pcd.c **** /**
1395:Drivers/STM32G4xx_HAL_Driver/Src/stm32g4xx_hal_pcd.c ****   * @brief  Deactivate an endpoint.
1396:Drivers/STM32G4xx_HAL_Driver/Src/stm32g4xx_hal_pcd.c ****   * @param  hpcd PCD handle
1397:Drivers/STM32G4xx_HAL_Driver/Src/stm32g4xx_hal_pcd.c ****   * @param  ep_addr endpoint address
1398:Drivers/STM32G4xx_HAL_Driver/Src/stm32g4xx_hal_pcd.c ****   * @retval HAL status
1399:Drivers/STM32G4xx_HAL_Driver/Src/stm32g4xx_hal_pcd.c ****   */
1400:Drivers/STM32G4xx_HAL_Driver/Src/stm32g4xx_hal_pcd.c **** HAL_StatusTypeDef HAL_PCD_EP_Close(PCD_HandleTypeDef *hpcd, uint8_t ep_addr)
1401:Drivers/STM32G4xx_HAL_Driver/Src/stm32g4xx_hal_pcd.c **** {
 1792              		.loc 1 1401 1
 1793              		.cfi_startproc
 1794              		@ args = 0, pretend = 0, frame = 16
 1795              		@ frame_needed = 1, uses_anonymous_args = 0
 1796 0000 80B5     		push	{r7, lr}
 1797              	.LCFI123:
 1798              		.cfi_def_cfa_offset 8
 1799              		.cfi_offset 7, -8
 1800              		.cfi_offset 14, -4
 1801 0002 84B0     		sub	sp, sp, #16
 1802              	.LCFI124:
 1803              		.cfi_def_cfa_offset 24
 1804 0004 00AF     		add	r7, sp, #0
 1805              	.LCFI125:
 1806              		.cfi_def_cfa_register 7
 1807 0006 7860     		str	r0, [r7, #4]
 1808 0008 0B46     		mov	r3, r1
 1809 000a FB70     		strb	r3, [r7, #3]
1402:Drivers/STM32G4xx_HAL_Driver/Src/stm32g4xx_hal_pcd.c ****   PCD_EPTypeDef *ep;
1403:Drivers/STM32G4xx_HAL_Driver/Src/stm32g4xx_hal_pcd.c **** 
1404:Drivers/STM32G4xx_HAL_Driver/Src/stm32g4xx_hal_pcd.c ****   if ((ep_addr & 0x80U) == 0x80U)
 1810              		.loc 1 1404 25
 1811 000c 97F90330 		ldrsb	r3, [r7, #3]
 1812              		.loc 1 1404 6
 1813 0010 002B     		cmp	r3, #0
 1814 0012 0BDA     		bge	.L62
1405:Drivers/STM32G4xx_HAL_Driver/Src/stm32g4xx_hal_pcd.c ****   {
1406:Drivers/STM32G4xx_HAL_Driver/Src/stm32g4xx_hal_pcd.c ****     ep = &hpcd->IN_ep[ep_addr & EP_ADDR_MSK];
 1815              		.loc 1 1406 31
 1816 0014 FB78     		ldrb	r3, [r7, #3]	@ zero_extendqisi2
 1817 0016 03F00703 		and	r3, r3, #7
 1818              		.loc 1 1406 8
 1819 001a 5B01     		lsls	r3, r3, #5
 1820 001c 2833     		adds	r3, r3, #40
 1821 001e 7A68     		ldr	r2, [r7, #4]
 1822 0020 1344     		add	r3, r3, r2
 1823 0022 FB60     		str	r3, [r7, #12]
ARM GAS  /tmp/cc4MD8jd.s 			page 57


1407:Drivers/STM32G4xx_HAL_Driver/Src/stm32g4xx_hal_pcd.c ****     ep->is_in = 1U;
 1824              		.loc 1 1407 15
 1825 0024 FB68     		ldr	r3, [r7, #12]
 1826 0026 0122     		movs	r2, #1
 1827 0028 5A70     		strb	r2, [r3, #1]
 1828 002a 0BE0     		b	.L63
 1829              	.L62:
1408:Drivers/STM32G4xx_HAL_Driver/Src/stm32g4xx_hal_pcd.c ****   }
1409:Drivers/STM32G4xx_HAL_Driver/Src/stm32g4xx_hal_pcd.c ****   else
1410:Drivers/STM32G4xx_HAL_Driver/Src/stm32g4xx_hal_pcd.c ****   {
1411:Drivers/STM32G4xx_HAL_Driver/Src/stm32g4xx_hal_pcd.c ****     ep = &hpcd->OUT_ep[ep_addr & EP_ADDR_MSK];
 1830              		.loc 1 1411 32
 1831 002c FB78     		ldrb	r3, [r7, #3]	@ zero_extendqisi2
 1832 002e 03F00703 		and	r3, r3, #7
 1833              		.loc 1 1411 8
 1834 0032 5B01     		lsls	r3, r3, #5
 1835 0034 03F59473 		add	r3, r3, #296
 1836 0038 7A68     		ldr	r2, [r7, #4]
 1837 003a 1344     		add	r3, r3, r2
 1838 003c FB60     		str	r3, [r7, #12]
1412:Drivers/STM32G4xx_HAL_Driver/Src/stm32g4xx_hal_pcd.c ****     ep->is_in = 0U;
 1839              		.loc 1 1412 15
 1840 003e FB68     		ldr	r3, [r7, #12]
 1841 0040 0022     		movs	r2, #0
 1842 0042 5A70     		strb	r2, [r3, #1]
 1843              	.L63:
1413:Drivers/STM32G4xx_HAL_Driver/Src/stm32g4xx_hal_pcd.c ****   }
1414:Drivers/STM32G4xx_HAL_Driver/Src/stm32g4xx_hal_pcd.c ****   ep->num   = ep_addr & EP_ADDR_MSK;
 1844              		.loc 1 1414 23
 1845 0044 FB78     		ldrb	r3, [r7, #3]
 1846 0046 03F00703 		and	r3, r3, #7
 1847 004a DAB2     		uxtb	r2, r3
 1848              		.loc 1 1414 13
 1849 004c FB68     		ldr	r3, [r7, #12]
 1850 004e 1A70     		strb	r2, [r3]
1415:Drivers/STM32G4xx_HAL_Driver/Src/stm32g4xx_hal_pcd.c **** 
1416:Drivers/STM32G4xx_HAL_Driver/Src/stm32g4xx_hal_pcd.c ****   __HAL_LOCK(hpcd);
 1851              		.loc 1 1416 3
 1852 0050 7B68     		ldr	r3, [r7, #4]
 1853 0052 93F82832 		ldrb	r3, [r3, #552]	@ zero_extendqisi2
 1854 0056 012B     		cmp	r3, #1
 1855 0058 01D1     		bne	.L64
 1856              		.loc 1 1416 3 is_stmt 0 discriminator 1
 1857 005a 0223     		movs	r3, #2
 1858 005c 0EE0     		b	.L65
 1859              	.L64:
 1860              		.loc 1 1416 3 discriminator 2
 1861 005e 7B68     		ldr	r3, [r7, #4]
 1862 0060 0122     		movs	r2, #1
 1863 0062 83F82822 		strb	r2, [r3, #552]
1417:Drivers/STM32G4xx_HAL_Driver/Src/stm32g4xx_hal_pcd.c ****   (void)USB_DeactivateEndpoint(hpcd->Instance, ep);
 1864              		.loc 1 1417 36 is_stmt 1 discriminator 2
 1865 0066 7B68     		ldr	r3, [r7, #4]
 1866 0068 1B68     		ldr	r3, [r3]
 1867              		.loc 1 1417 9 discriminator 2
 1868 006a F968     		ldr	r1, [r7, #12]
 1869 006c 1846     		mov	r0, r3
ARM GAS  /tmp/cc4MD8jd.s 			page 58


 1870 006e FFF7FEFF 		bl	USB_DeactivateEndpoint
1418:Drivers/STM32G4xx_HAL_Driver/Src/stm32g4xx_hal_pcd.c ****   __HAL_UNLOCK(hpcd);
 1871              		.loc 1 1418 3 discriminator 2
 1872 0072 7B68     		ldr	r3, [r7, #4]
 1873 0074 0022     		movs	r2, #0
 1874 0076 83F82822 		strb	r2, [r3, #552]
1419:Drivers/STM32G4xx_HAL_Driver/Src/stm32g4xx_hal_pcd.c ****   return HAL_OK;
 1875              		.loc 1 1419 10 discriminator 2
 1876 007a 0023     		movs	r3, #0
 1877              	.L65:
1420:Drivers/STM32G4xx_HAL_Driver/Src/stm32g4xx_hal_pcd.c **** }
 1878              		.loc 1 1420 1
 1879 007c 1846     		mov	r0, r3
 1880 007e 1037     		adds	r7, r7, #16
 1881              	.LCFI126:
 1882              		.cfi_def_cfa_offset 8
 1883 0080 BD46     		mov	sp, r7
 1884              	.LCFI127:
 1885              		.cfi_def_cfa_register 13
 1886              		@ sp needed
 1887 0082 80BD     		pop	{r7, pc}
 1888              		.cfi_endproc
 1889              	.LFE350:
 1891              		.section	.text.HAL_PCD_EP_Receive,"ax",%progbits
 1892              		.align	1
 1893              		.global	HAL_PCD_EP_Receive
 1894              		.syntax unified
 1895              		.thumb
 1896              		.thumb_func
 1897              		.fpu fpv4-sp-d16
 1899              	HAL_PCD_EP_Receive:
 1900              	.LFB351:
1421:Drivers/STM32G4xx_HAL_Driver/Src/stm32g4xx_hal_pcd.c **** 
1422:Drivers/STM32G4xx_HAL_Driver/Src/stm32g4xx_hal_pcd.c **** 
1423:Drivers/STM32G4xx_HAL_Driver/Src/stm32g4xx_hal_pcd.c **** /**
1424:Drivers/STM32G4xx_HAL_Driver/Src/stm32g4xx_hal_pcd.c ****   * @brief  Receive an amount of data.
1425:Drivers/STM32G4xx_HAL_Driver/Src/stm32g4xx_hal_pcd.c ****   * @param  hpcd PCD handle
1426:Drivers/STM32G4xx_HAL_Driver/Src/stm32g4xx_hal_pcd.c ****   * @param  ep_addr endpoint address
1427:Drivers/STM32G4xx_HAL_Driver/Src/stm32g4xx_hal_pcd.c ****   * @param  pBuf pointer to the reception buffer
1428:Drivers/STM32G4xx_HAL_Driver/Src/stm32g4xx_hal_pcd.c ****   * @param  len amount of data to be received
1429:Drivers/STM32G4xx_HAL_Driver/Src/stm32g4xx_hal_pcd.c ****   * @retval HAL status
1430:Drivers/STM32G4xx_HAL_Driver/Src/stm32g4xx_hal_pcd.c ****   */
1431:Drivers/STM32G4xx_HAL_Driver/Src/stm32g4xx_hal_pcd.c **** HAL_StatusTypeDef HAL_PCD_EP_Receive(PCD_HandleTypeDef *hpcd, uint8_t ep_addr, uint8_t *pBuf, uint3
1432:Drivers/STM32G4xx_HAL_Driver/Src/stm32g4xx_hal_pcd.c **** {
 1901              		.loc 1 1432 1
 1902              		.cfi_startproc
 1903              		@ args = 0, pretend = 0, frame = 24
 1904              		@ frame_needed = 1, uses_anonymous_args = 0
 1905 0000 80B5     		push	{r7, lr}
 1906              	.LCFI128:
 1907              		.cfi_def_cfa_offset 8
 1908              		.cfi_offset 7, -8
 1909              		.cfi_offset 14, -4
 1910 0002 86B0     		sub	sp, sp, #24
 1911              	.LCFI129:
 1912              		.cfi_def_cfa_offset 32
 1913 0004 00AF     		add	r7, sp, #0
ARM GAS  /tmp/cc4MD8jd.s 			page 59


 1914              	.LCFI130:
 1915              		.cfi_def_cfa_register 7
 1916 0006 F860     		str	r0, [r7, #12]
 1917 0008 7A60     		str	r2, [r7, #4]
 1918 000a 3B60     		str	r3, [r7]
 1919 000c 0B46     		mov	r3, r1
 1920 000e FB72     		strb	r3, [r7, #11]
1433:Drivers/STM32G4xx_HAL_Driver/Src/stm32g4xx_hal_pcd.c ****   PCD_EPTypeDef *ep;
1434:Drivers/STM32G4xx_HAL_Driver/Src/stm32g4xx_hal_pcd.c **** 
1435:Drivers/STM32G4xx_HAL_Driver/Src/stm32g4xx_hal_pcd.c ****   ep = &hpcd->OUT_ep[ep_addr & EP_ADDR_MSK];
 1921              		.loc 1 1435 30
 1922 0010 FB7A     		ldrb	r3, [r7, #11]	@ zero_extendqisi2
 1923 0012 03F00703 		and	r3, r3, #7
 1924              		.loc 1 1435 6
 1925 0016 5B01     		lsls	r3, r3, #5
 1926 0018 03F59473 		add	r3, r3, #296
 1927 001c FA68     		ldr	r2, [r7, #12]
 1928 001e 1344     		add	r3, r3, r2
 1929 0020 7B61     		str	r3, [r7, #20]
1436:Drivers/STM32G4xx_HAL_Driver/Src/stm32g4xx_hal_pcd.c **** 
1437:Drivers/STM32G4xx_HAL_Driver/Src/stm32g4xx_hal_pcd.c ****   /*setup and start the Xfer */
1438:Drivers/STM32G4xx_HAL_Driver/Src/stm32g4xx_hal_pcd.c ****   ep->xfer_buff = pBuf;
 1930              		.loc 1 1438 17
 1931 0022 7B69     		ldr	r3, [r7, #20]
 1932 0024 7A68     		ldr	r2, [r7, #4]
 1933 0026 5A61     		str	r2, [r3, #20]
1439:Drivers/STM32G4xx_HAL_Driver/Src/stm32g4xx_hal_pcd.c ****   ep->xfer_len = len;
 1934              		.loc 1 1439 16
 1935 0028 7B69     		ldr	r3, [r7, #20]
 1936 002a 3A68     		ldr	r2, [r7]
 1937 002c 9A61     		str	r2, [r3, #24]
1440:Drivers/STM32G4xx_HAL_Driver/Src/stm32g4xx_hal_pcd.c ****   ep->xfer_count = 0U;
 1938              		.loc 1 1440 18
 1939 002e 7B69     		ldr	r3, [r7, #20]
 1940 0030 0022     		movs	r2, #0
 1941 0032 DA61     		str	r2, [r3, #28]
1441:Drivers/STM32G4xx_HAL_Driver/Src/stm32g4xx_hal_pcd.c ****   ep->is_in = 0U;
 1942              		.loc 1 1441 13
 1943 0034 7B69     		ldr	r3, [r7, #20]
 1944 0036 0022     		movs	r2, #0
 1945 0038 5A70     		strb	r2, [r3, #1]
1442:Drivers/STM32G4xx_HAL_Driver/Src/stm32g4xx_hal_pcd.c ****   ep->num = ep_addr & EP_ADDR_MSK;
 1946              		.loc 1 1442 21
 1947 003a FB7A     		ldrb	r3, [r7, #11]
 1948 003c 03F00703 		and	r3, r3, #7
 1949 0040 DAB2     		uxtb	r2, r3
 1950              		.loc 1 1442 11
 1951 0042 7B69     		ldr	r3, [r7, #20]
 1952 0044 1A70     		strb	r2, [r3]
1443:Drivers/STM32G4xx_HAL_Driver/Src/stm32g4xx_hal_pcd.c **** 
1444:Drivers/STM32G4xx_HAL_Driver/Src/stm32g4xx_hal_pcd.c ****   if ((ep_addr & EP_ADDR_MSK) == 0U)
 1953              		.loc 1 1444 16
 1954 0046 FB7A     		ldrb	r3, [r7, #11]	@ zero_extendqisi2
 1955 0048 03F00703 		and	r3, r3, #7
 1956              		.loc 1 1444 6
 1957 004c 002B     		cmp	r3, #0
 1958 004e 06D1     		bne	.L67
ARM GAS  /tmp/cc4MD8jd.s 			page 60


1445:Drivers/STM32G4xx_HAL_Driver/Src/stm32g4xx_hal_pcd.c ****   {
1446:Drivers/STM32G4xx_HAL_Driver/Src/stm32g4xx_hal_pcd.c ****     (void)USB_EP0StartXfer(hpcd->Instance, ep);
 1959              		.loc 1 1446 32
 1960 0050 FB68     		ldr	r3, [r7, #12]
 1961 0052 1B68     		ldr	r3, [r3]
 1962              		.loc 1 1446 11
 1963 0054 7969     		ldr	r1, [r7, #20]
 1964 0056 1846     		mov	r0, r3
 1965 0058 FFF7FEFF 		bl	USB_EPStartXfer
 1966 005c 05E0     		b	.L68
 1967              	.L67:
1447:Drivers/STM32G4xx_HAL_Driver/Src/stm32g4xx_hal_pcd.c ****   }
1448:Drivers/STM32G4xx_HAL_Driver/Src/stm32g4xx_hal_pcd.c ****   else
1449:Drivers/STM32G4xx_HAL_Driver/Src/stm32g4xx_hal_pcd.c ****   {
1450:Drivers/STM32G4xx_HAL_Driver/Src/stm32g4xx_hal_pcd.c ****     (void)USB_EPStartXfer(hpcd->Instance, ep);
 1968              		.loc 1 1450 31
 1969 005e FB68     		ldr	r3, [r7, #12]
 1970 0060 1B68     		ldr	r3, [r3]
 1971              		.loc 1 1450 11
 1972 0062 7969     		ldr	r1, [r7, #20]
 1973 0064 1846     		mov	r0, r3
 1974 0066 FFF7FEFF 		bl	USB_EPStartXfer
 1975              	.L68:
1451:Drivers/STM32G4xx_HAL_Driver/Src/stm32g4xx_hal_pcd.c ****   }
1452:Drivers/STM32G4xx_HAL_Driver/Src/stm32g4xx_hal_pcd.c **** 
1453:Drivers/STM32G4xx_HAL_Driver/Src/stm32g4xx_hal_pcd.c ****   return HAL_OK;
 1976              		.loc 1 1453 10
 1977 006a 0023     		movs	r3, #0
1454:Drivers/STM32G4xx_HAL_Driver/Src/stm32g4xx_hal_pcd.c **** }
 1978              		.loc 1 1454 1
 1979 006c 1846     		mov	r0, r3
 1980 006e 1837     		adds	r7, r7, #24
 1981              	.LCFI131:
 1982              		.cfi_def_cfa_offset 8
 1983 0070 BD46     		mov	sp, r7
 1984              	.LCFI132:
 1985              		.cfi_def_cfa_register 13
 1986              		@ sp needed
 1987 0072 80BD     		pop	{r7, pc}
 1988              		.cfi_endproc
 1989              	.LFE351:
 1991              		.section	.text.HAL_PCD_EP_GetRxCount,"ax",%progbits
 1992              		.align	1
 1993              		.global	HAL_PCD_EP_GetRxCount
 1994              		.syntax unified
 1995              		.thumb
 1996              		.thumb_func
 1997              		.fpu fpv4-sp-d16
 1999              	HAL_PCD_EP_GetRxCount:
 2000              	.LFB352:
1455:Drivers/STM32G4xx_HAL_Driver/Src/stm32g4xx_hal_pcd.c **** 
1456:Drivers/STM32G4xx_HAL_Driver/Src/stm32g4xx_hal_pcd.c **** /**
1457:Drivers/STM32G4xx_HAL_Driver/Src/stm32g4xx_hal_pcd.c ****   * @brief  Get Received Data Size
1458:Drivers/STM32G4xx_HAL_Driver/Src/stm32g4xx_hal_pcd.c ****   * @param  hpcd PCD handle
1459:Drivers/STM32G4xx_HAL_Driver/Src/stm32g4xx_hal_pcd.c ****   * @param  ep_addr endpoint address
1460:Drivers/STM32G4xx_HAL_Driver/Src/stm32g4xx_hal_pcd.c ****   * @retval Data Size
1461:Drivers/STM32G4xx_HAL_Driver/Src/stm32g4xx_hal_pcd.c ****   */
ARM GAS  /tmp/cc4MD8jd.s 			page 61


1462:Drivers/STM32G4xx_HAL_Driver/Src/stm32g4xx_hal_pcd.c **** uint32_t HAL_PCD_EP_GetRxCount(PCD_HandleTypeDef *hpcd, uint8_t ep_addr)
1463:Drivers/STM32G4xx_HAL_Driver/Src/stm32g4xx_hal_pcd.c **** {
 2001              		.loc 1 1463 1
 2002              		.cfi_startproc
 2003              		@ args = 0, pretend = 0, frame = 8
 2004              		@ frame_needed = 1, uses_anonymous_args = 0
 2005              		@ link register save eliminated.
 2006 0000 80B4     		push	{r7}
 2007              	.LCFI133:
 2008              		.cfi_def_cfa_offset 4
 2009              		.cfi_offset 7, -4
 2010 0002 83B0     		sub	sp, sp, #12
 2011              	.LCFI134:
 2012              		.cfi_def_cfa_offset 16
 2013 0004 00AF     		add	r7, sp, #0
 2014              	.LCFI135:
 2015              		.cfi_def_cfa_register 7
 2016 0006 7860     		str	r0, [r7, #4]
 2017 0008 0B46     		mov	r3, r1
 2018 000a FB70     		strb	r3, [r7, #3]
1464:Drivers/STM32G4xx_HAL_Driver/Src/stm32g4xx_hal_pcd.c ****   return hpcd->OUT_ep[ep_addr & EP_ADDR_MSK].xfer_count;
 2019              		.loc 1 1464 31
 2020 000c FB78     		ldrb	r3, [r7, #3]	@ zero_extendqisi2
 2021 000e 03F00703 		and	r3, r3, #7
 2022              		.loc 1 1464 45
 2023 0012 7A68     		ldr	r2, [r7, #4]
 2024 0014 0A33     		adds	r3, r3, #10
 2025 0016 5B01     		lsls	r3, r3, #5
 2026 0018 1344     		add	r3, r3, r2
 2027 001a 0433     		adds	r3, r3, #4
 2028 001c 1B68     		ldr	r3, [r3]
1465:Drivers/STM32G4xx_HAL_Driver/Src/stm32g4xx_hal_pcd.c **** }
 2029              		.loc 1 1465 1
 2030 001e 1846     		mov	r0, r3
 2031 0020 0C37     		adds	r7, r7, #12
 2032              	.LCFI136:
 2033              		.cfi_def_cfa_offset 4
 2034 0022 BD46     		mov	sp, r7
 2035              	.LCFI137:
 2036              		.cfi_def_cfa_register 13
 2037              		@ sp needed
 2038 0024 5DF8047B 		ldr	r7, [sp], #4
 2039              	.LCFI138:
 2040              		.cfi_restore 7
 2041              		.cfi_def_cfa_offset 0
 2042 0028 7047     		bx	lr
 2043              		.cfi_endproc
 2044              	.LFE352:
 2046              		.section	.text.HAL_PCD_EP_Transmit,"ax",%progbits
 2047              		.align	1
 2048              		.global	HAL_PCD_EP_Transmit
 2049              		.syntax unified
 2050              		.thumb
 2051              		.thumb_func
 2052              		.fpu fpv4-sp-d16
 2054              	HAL_PCD_EP_Transmit:
 2055              	.LFB353:
ARM GAS  /tmp/cc4MD8jd.s 			page 62


1466:Drivers/STM32G4xx_HAL_Driver/Src/stm32g4xx_hal_pcd.c **** /**
1467:Drivers/STM32G4xx_HAL_Driver/Src/stm32g4xx_hal_pcd.c ****   * @brief  Send an amount of data
1468:Drivers/STM32G4xx_HAL_Driver/Src/stm32g4xx_hal_pcd.c ****   * @param  hpcd PCD handle
1469:Drivers/STM32G4xx_HAL_Driver/Src/stm32g4xx_hal_pcd.c ****   * @param  ep_addr endpoint address
1470:Drivers/STM32G4xx_HAL_Driver/Src/stm32g4xx_hal_pcd.c ****   * @param  pBuf pointer to the transmission buffer
1471:Drivers/STM32G4xx_HAL_Driver/Src/stm32g4xx_hal_pcd.c ****   * @param  len amount of data to be sent
1472:Drivers/STM32G4xx_HAL_Driver/Src/stm32g4xx_hal_pcd.c ****   * @retval HAL status
1473:Drivers/STM32G4xx_HAL_Driver/Src/stm32g4xx_hal_pcd.c ****   */
1474:Drivers/STM32G4xx_HAL_Driver/Src/stm32g4xx_hal_pcd.c **** HAL_StatusTypeDef HAL_PCD_EP_Transmit(PCD_HandleTypeDef *hpcd, uint8_t ep_addr, uint8_t *pBuf, uint
1475:Drivers/STM32G4xx_HAL_Driver/Src/stm32g4xx_hal_pcd.c **** {
 2056              		.loc 1 1475 1
 2057              		.cfi_startproc
 2058              		@ args = 0, pretend = 0, frame = 24
 2059              		@ frame_needed = 1, uses_anonymous_args = 0
 2060 0000 80B5     		push	{r7, lr}
 2061              	.LCFI139:
 2062              		.cfi_def_cfa_offset 8
 2063              		.cfi_offset 7, -8
 2064              		.cfi_offset 14, -4
 2065 0002 86B0     		sub	sp, sp, #24
 2066              	.LCFI140:
 2067              		.cfi_def_cfa_offset 32
 2068 0004 00AF     		add	r7, sp, #0
 2069              	.LCFI141:
 2070              		.cfi_def_cfa_register 7
 2071 0006 F860     		str	r0, [r7, #12]
 2072 0008 7A60     		str	r2, [r7, #4]
 2073 000a 3B60     		str	r3, [r7]
 2074 000c 0B46     		mov	r3, r1
 2075 000e FB72     		strb	r3, [r7, #11]
1476:Drivers/STM32G4xx_HAL_Driver/Src/stm32g4xx_hal_pcd.c ****   PCD_EPTypeDef *ep;
1477:Drivers/STM32G4xx_HAL_Driver/Src/stm32g4xx_hal_pcd.c **** 
1478:Drivers/STM32G4xx_HAL_Driver/Src/stm32g4xx_hal_pcd.c ****   ep = &hpcd->IN_ep[ep_addr & EP_ADDR_MSK];
 2076              		.loc 1 1478 29
 2077 0010 FB7A     		ldrb	r3, [r7, #11]	@ zero_extendqisi2
 2078 0012 03F00703 		and	r3, r3, #7
 2079              		.loc 1 1478 6
 2080 0016 5B01     		lsls	r3, r3, #5
 2081 0018 2833     		adds	r3, r3, #40
 2082 001a FA68     		ldr	r2, [r7, #12]
 2083 001c 1344     		add	r3, r3, r2
 2084 001e 7B61     		str	r3, [r7, #20]
1479:Drivers/STM32G4xx_HAL_Driver/Src/stm32g4xx_hal_pcd.c **** 
1480:Drivers/STM32G4xx_HAL_Driver/Src/stm32g4xx_hal_pcd.c ****   /*setup and start the Xfer */
1481:Drivers/STM32G4xx_HAL_Driver/Src/stm32g4xx_hal_pcd.c ****   ep->xfer_buff = pBuf;
 2085              		.loc 1 1481 17
 2086 0020 7B69     		ldr	r3, [r7, #20]
 2087 0022 7A68     		ldr	r2, [r7, #4]
 2088 0024 5A61     		str	r2, [r3, #20]
1482:Drivers/STM32G4xx_HAL_Driver/Src/stm32g4xx_hal_pcd.c ****   ep->xfer_len = len;
 2089              		.loc 1 1482 16
 2090 0026 7B69     		ldr	r3, [r7, #20]
 2091 0028 3A68     		ldr	r2, [r7]
 2092 002a 9A61     		str	r2, [r3, #24]
1483:Drivers/STM32G4xx_HAL_Driver/Src/stm32g4xx_hal_pcd.c ****   ep->xfer_count = 0U;
 2093              		.loc 1 1483 18
 2094 002c 7B69     		ldr	r3, [r7, #20]
ARM GAS  /tmp/cc4MD8jd.s 			page 63


 2095 002e 0022     		movs	r2, #0
 2096 0030 DA61     		str	r2, [r3, #28]
1484:Drivers/STM32G4xx_HAL_Driver/Src/stm32g4xx_hal_pcd.c ****   ep->is_in = 1U;
 2097              		.loc 1 1484 13
 2098 0032 7B69     		ldr	r3, [r7, #20]
 2099 0034 0122     		movs	r2, #1
 2100 0036 5A70     		strb	r2, [r3, #1]
1485:Drivers/STM32G4xx_HAL_Driver/Src/stm32g4xx_hal_pcd.c ****   ep->num = ep_addr & EP_ADDR_MSK;
 2101              		.loc 1 1485 21
 2102 0038 FB7A     		ldrb	r3, [r7, #11]
 2103 003a 03F00703 		and	r3, r3, #7
 2104 003e DAB2     		uxtb	r2, r3
 2105              		.loc 1 1485 11
 2106 0040 7B69     		ldr	r3, [r7, #20]
 2107 0042 1A70     		strb	r2, [r3]
1486:Drivers/STM32G4xx_HAL_Driver/Src/stm32g4xx_hal_pcd.c **** 
1487:Drivers/STM32G4xx_HAL_Driver/Src/stm32g4xx_hal_pcd.c ****   if ((ep_addr & EP_ADDR_MSK) == 0U)
 2108              		.loc 1 1487 16
 2109 0044 FB7A     		ldrb	r3, [r7, #11]	@ zero_extendqisi2
 2110 0046 03F00703 		and	r3, r3, #7
 2111              		.loc 1 1487 6
 2112 004a 002B     		cmp	r3, #0
 2113 004c 06D1     		bne	.L73
1488:Drivers/STM32G4xx_HAL_Driver/Src/stm32g4xx_hal_pcd.c ****   {
1489:Drivers/STM32G4xx_HAL_Driver/Src/stm32g4xx_hal_pcd.c ****     (void)USB_EP0StartXfer(hpcd->Instance, ep);
 2114              		.loc 1 1489 32
 2115 004e FB68     		ldr	r3, [r7, #12]
 2116 0050 1B68     		ldr	r3, [r3]
 2117              		.loc 1 1489 11
 2118 0052 7969     		ldr	r1, [r7, #20]
 2119 0054 1846     		mov	r0, r3
 2120 0056 FFF7FEFF 		bl	USB_EPStartXfer
 2121 005a 05E0     		b	.L74
 2122              	.L73:
1490:Drivers/STM32G4xx_HAL_Driver/Src/stm32g4xx_hal_pcd.c ****   }
1491:Drivers/STM32G4xx_HAL_Driver/Src/stm32g4xx_hal_pcd.c ****   else
1492:Drivers/STM32G4xx_HAL_Driver/Src/stm32g4xx_hal_pcd.c ****   {
1493:Drivers/STM32G4xx_HAL_Driver/Src/stm32g4xx_hal_pcd.c ****     (void)USB_EPStartXfer(hpcd->Instance, ep);
 2123              		.loc 1 1493 31
 2124 005c FB68     		ldr	r3, [r7, #12]
 2125 005e 1B68     		ldr	r3, [r3]
 2126              		.loc 1 1493 11
 2127 0060 7969     		ldr	r1, [r7, #20]
 2128 0062 1846     		mov	r0, r3
 2129 0064 FFF7FEFF 		bl	USB_EPStartXfer
 2130              	.L74:
1494:Drivers/STM32G4xx_HAL_Driver/Src/stm32g4xx_hal_pcd.c ****   }
1495:Drivers/STM32G4xx_HAL_Driver/Src/stm32g4xx_hal_pcd.c **** 
1496:Drivers/STM32G4xx_HAL_Driver/Src/stm32g4xx_hal_pcd.c ****   return HAL_OK;
 2131              		.loc 1 1496 10
 2132 0068 0023     		movs	r3, #0
1497:Drivers/STM32G4xx_HAL_Driver/Src/stm32g4xx_hal_pcd.c **** }
 2133              		.loc 1 1497 1
 2134 006a 1846     		mov	r0, r3
 2135 006c 1837     		adds	r7, r7, #24
 2136              	.LCFI142:
 2137              		.cfi_def_cfa_offset 8
ARM GAS  /tmp/cc4MD8jd.s 			page 64


 2138 006e BD46     		mov	sp, r7
 2139              	.LCFI143:
 2140              		.cfi_def_cfa_register 13
 2141              		@ sp needed
 2142 0070 80BD     		pop	{r7, pc}
 2143              		.cfi_endproc
 2144              	.LFE353:
 2146              		.section	.text.HAL_PCD_EP_SetStall,"ax",%progbits
 2147              		.align	1
 2148              		.global	HAL_PCD_EP_SetStall
 2149              		.syntax unified
 2150              		.thumb
 2151              		.thumb_func
 2152              		.fpu fpv4-sp-d16
 2154              	HAL_PCD_EP_SetStall:
 2155              	.LFB354:
1498:Drivers/STM32G4xx_HAL_Driver/Src/stm32g4xx_hal_pcd.c **** 
1499:Drivers/STM32G4xx_HAL_Driver/Src/stm32g4xx_hal_pcd.c **** /**
1500:Drivers/STM32G4xx_HAL_Driver/Src/stm32g4xx_hal_pcd.c ****   * @brief  Set a STALL condition over an endpoint
1501:Drivers/STM32G4xx_HAL_Driver/Src/stm32g4xx_hal_pcd.c ****   * @param  hpcd PCD handle
1502:Drivers/STM32G4xx_HAL_Driver/Src/stm32g4xx_hal_pcd.c ****   * @param  ep_addr endpoint address
1503:Drivers/STM32G4xx_HAL_Driver/Src/stm32g4xx_hal_pcd.c ****   * @retval HAL status
1504:Drivers/STM32G4xx_HAL_Driver/Src/stm32g4xx_hal_pcd.c ****   */
1505:Drivers/STM32G4xx_HAL_Driver/Src/stm32g4xx_hal_pcd.c **** HAL_StatusTypeDef HAL_PCD_EP_SetStall(PCD_HandleTypeDef *hpcd, uint8_t ep_addr)
1506:Drivers/STM32G4xx_HAL_Driver/Src/stm32g4xx_hal_pcd.c **** {
 2156              		.loc 1 1506 1
 2157              		.cfi_startproc
 2158              		@ args = 0, pretend = 0, frame = 16
 2159              		@ frame_needed = 1, uses_anonymous_args = 0
 2160 0000 80B5     		push	{r7, lr}
 2161              	.LCFI144:
 2162              		.cfi_def_cfa_offset 8
 2163              		.cfi_offset 7, -8
 2164              		.cfi_offset 14, -4
 2165 0002 84B0     		sub	sp, sp, #16
 2166              	.LCFI145:
 2167              		.cfi_def_cfa_offset 24
 2168 0004 00AF     		add	r7, sp, #0
 2169              	.LCFI146:
 2170              		.cfi_def_cfa_register 7
 2171 0006 7860     		str	r0, [r7, #4]
 2172 0008 0B46     		mov	r3, r1
 2173 000a FB70     		strb	r3, [r7, #3]
1507:Drivers/STM32G4xx_HAL_Driver/Src/stm32g4xx_hal_pcd.c ****   PCD_EPTypeDef *ep;
1508:Drivers/STM32G4xx_HAL_Driver/Src/stm32g4xx_hal_pcd.c **** 
1509:Drivers/STM32G4xx_HAL_Driver/Src/stm32g4xx_hal_pcd.c ****   if (((uint32_t)ep_addr & EP_ADDR_MSK) > hpcd->Init.dev_endpoints)
 2174              		.loc 1 1509 26
 2175 000c FB78     		ldrb	r3, [r7, #3]	@ zero_extendqisi2
 2176 000e 03F00702 		and	r2, r3, #7
 2177              		.loc 1 1509 53
 2178 0012 7B68     		ldr	r3, [r7, #4]
 2179 0014 5B68     		ldr	r3, [r3, #4]
 2180              		.loc 1 1509 6
 2181 0016 9A42     		cmp	r2, r3
 2182 0018 01D9     		bls	.L77
1510:Drivers/STM32G4xx_HAL_Driver/Src/stm32g4xx_hal_pcd.c ****   {
1511:Drivers/STM32G4xx_HAL_Driver/Src/stm32g4xx_hal_pcd.c ****     return HAL_ERROR;
ARM GAS  /tmp/cc4MD8jd.s 			page 65


 2183              		.loc 1 1511 12
 2184 001a 0123     		movs	r3, #1
 2185 001c 46E0     		b	.L78
 2186              	.L77:
1512:Drivers/STM32G4xx_HAL_Driver/Src/stm32g4xx_hal_pcd.c ****   }
1513:Drivers/STM32G4xx_HAL_Driver/Src/stm32g4xx_hal_pcd.c **** 
1514:Drivers/STM32G4xx_HAL_Driver/Src/stm32g4xx_hal_pcd.c ****   if ((0x80U & ep_addr) == 0x80U)
 2187              		.loc 1 1514 25
 2188 001e 97F90330 		ldrsb	r3, [r7, #3]
 2189              		.loc 1 1514 6
 2190 0022 002B     		cmp	r3, #0
 2191 0024 0BDA     		bge	.L79
1515:Drivers/STM32G4xx_HAL_Driver/Src/stm32g4xx_hal_pcd.c ****   {
1516:Drivers/STM32G4xx_HAL_Driver/Src/stm32g4xx_hal_pcd.c ****     ep = &hpcd->IN_ep[ep_addr & EP_ADDR_MSK];
 2192              		.loc 1 1516 31
 2193 0026 FB78     		ldrb	r3, [r7, #3]	@ zero_extendqisi2
 2194 0028 03F00703 		and	r3, r3, #7
 2195              		.loc 1 1516 8
 2196 002c 5B01     		lsls	r3, r3, #5
 2197 002e 2833     		adds	r3, r3, #40
 2198 0030 7A68     		ldr	r2, [r7, #4]
 2199 0032 1344     		add	r3, r3, r2
 2200 0034 FB60     		str	r3, [r7, #12]
1517:Drivers/STM32G4xx_HAL_Driver/Src/stm32g4xx_hal_pcd.c ****     ep->is_in = 1U;
 2201              		.loc 1 1517 15
 2202 0036 FB68     		ldr	r3, [r7, #12]
 2203 0038 0122     		movs	r2, #1
 2204 003a 5A70     		strb	r2, [r3, #1]
 2205 003c 09E0     		b	.L80
 2206              	.L79:
1518:Drivers/STM32G4xx_HAL_Driver/Src/stm32g4xx_hal_pcd.c ****   }
1519:Drivers/STM32G4xx_HAL_Driver/Src/stm32g4xx_hal_pcd.c ****   else
1520:Drivers/STM32G4xx_HAL_Driver/Src/stm32g4xx_hal_pcd.c ****   {
1521:Drivers/STM32G4xx_HAL_Driver/Src/stm32g4xx_hal_pcd.c ****     ep = &hpcd->OUT_ep[ep_addr];
 2207              		.loc 1 1521 23
 2208 003e FB78     		ldrb	r3, [r7, #3]	@ zero_extendqisi2
 2209              		.loc 1 1521 8
 2210 0040 5B01     		lsls	r3, r3, #5
 2211 0042 03F59473 		add	r3, r3, #296
 2212 0046 7A68     		ldr	r2, [r7, #4]
 2213 0048 1344     		add	r3, r3, r2
 2214 004a FB60     		str	r3, [r7, #12]
1522:Drivers/STM32G4xx_HAL_Driver/Src/stm32g4xx_hal_pcd.c ****     ep->is_in = 0U;
 2215              		.loc 1 1522 15
 2216 004c FB68     		ldr	r3, [r7, #12]
 2217 004e 0022     		movs	r2, #0
 2218 0050 5A70     		strb	r2, [r3, #1]
 2219              	.L80:
1523:Drivers/STM32G4xx_HAL_Driver/Src/stm32g4xx_hal_pcd.c ****   }
1524:Drivers/STM32G4xx_HAL_Driver/Src/stm32g4xx_hal_pcd.c **** 
1525:Drivers/STM32G4xx_HAL_Driver/Src/stm32g4xx_hal_pcd.c ****   ep->is_stall = 1U;
 2220              		.loc 1 1525 16
 2221 0052 FB68     		ldr	r3, [r7, #12]
 2222 0054 0122     		movs	r2, #1
 2223 0056 9A70     		strb	r2, [r3, #2]
1526:Drivers/STM32G4xx_HAL_Driver/Src/stm32g4xx_hal_pcd.c ****   ep->num = ep_addr & EP_ADDR_MSK;
 2224              		.loc 1 1526 21
ARM GAS  /tmp/cc4MD8jd.s 			page 66


 2225 0058 FB78     		ldrb	r3, [r7, #3]
 2226 005a 03F00703 		and	r3, r3, #7
 2227 005e DAB2     		uxtb	r2, r3
 2228              		.loc 1 1526 11
 2229 0060 FB68     		ldr	r3, [r7, #12]
 2230 0062 1A70     		strb	r2, [r3]
1527:Drivers/STM32G4xx_HAL_Driver/Src/stm32g4xx_hal_pcd.c **** 
1528:Drivers/STM32G4xx_HAL_Driver/Src/stm32g4xx_hal_pcd.c ****   __HAL_LOCK(hpcd);
 2231              		.loc 1 1528 3
 2232 0064 7B68     		ldr	r3, [r7, #4]
 2233 0066 93F82832 		ldrb	r3, [r3, #552]	@ zero_extendqisi2
 2234 006a 012B     		cmp	r3, #1
 2235 006c 01D1     		bne	.L81
 2236              		.loc 1 1528 3 is_stmt 0 discriminator 1
 2237 006e 0223     		movs	r3, #2
 2238 0070 1CE0     		b	.L78
 2239              	.L81:
 2240              		.loc 1 1528 3 discriminator 2
 2241 0072 7B68     		ldr	r3, [r7, #4]
 2242 0074 0122     		movs	r2, #1
 2243 0076 83F82822 		strb	r2, [r3, #552]
1529:Drivers/STM32G4xx_HAL_Driver/Src/stm32g4xx_hal_pcd.c **** 
1530:Drivers/STM32G4xx_HAL_Driver/Src/stm32g4xx_hal_pcd.c ****   (void)USB_EPSetStall(hpcd->Instance, ep);
 2244              		.loc 1 1530 28 is_stmt 1 discriminator 2
 2245 007a 7B68     		ldr	r3, [r7, #4]
 2246 007c 1B68     		ldr	r3, [r3]
 2247              		.loc 1 1530 9 discriminator 2
 2248 007e F968     		ldr	r1, [r7, #12]
 2249 0080 1846     		mov	r0, r3
 2250 0082 FFF7FEFF 		bl	USB_EPSetStall
1531:Drivers/STM32G4xx_HAL_Driver/Src/stm32g4xx_hal_pcd.c ****   if ((ep_addr & EP_ADDR_MSK) == 0U)
 2251              		.loc 1 1531 16 discriminator 2
 2252 0086 FB78     		ldrb	r3, [r7, #3]	@ zero_extendqisi2
 2253 0088 03F00703 		and	r3, r3, #7
 2254              		.loc 1 1531 6 discriminator 2
 2255 008c 002B     		cmp	r3, #0
 2256 008e 08D1     		bne	.L82
1532:Drivers/STM32G4xx_HAL_Driver/Src/stm32g4xx_hal_pcd.c ****   {
1533:Drivers/STM32G4xx_HAL_Driver/Src/stm32g4xx_hal_pcd.c ****     (void)USB_EP0_OutStart(hpcd->Instance, (uint8_t *)hpcd->Setup);
 2257              		.loc 1 1533 32
 2258 0090 7B68     		ldr	r3, [r7, #4]
 2259 0092 1A68     		ldr	r2, [r3]
 2260              		.loc 1 1533 55
 2261 0094 7B68     		ldr	r3, [r7, #4]
 2262 0096 03F50C73 		add	r3, r3, #560
 2263              		.loc 1 1533 11
 2264 009a 1946     		mov	r1, r3
 2265 009c 1046     		mov	r0, r2
 2266 009e FFF7FEFF 		bl	USB_EP0_OutStart
 2267              	.L82:
1534:Drivers/STM32G4xx_HAL_Driver/Src/stm32g4xx_hal_pcd.c ****   }
1535:Drivers/STM32G4xx_HAL_Driver/Src/stm32g4xx_hal_pcd.c ****   __HAL_UNLOCK(hpcd);
 2268              		.loc 1 1535 3
 2269 00a2 7B68     		ldr	r3, [r7, #4]
 2270 00a4 0022     		movs	r2, #0
 2271 00a6 83F82822 		strb	r2, [r3, #552]
1536:Drivers/STM32G4xx_HAL_Driver/Src/stm32g4xx_hal_pcd.c **** 
ARM GAS  /tmp/cc4MD8jd.s 			page 67


1537:Drivers/STM32G4xx_HAL_Driver/Src/stm32g4xx_hal_pcd.c ****   return HAL_OK;
 2272              		.loc 1 1537 10
 2273 00aa 0023     		movs	r3, #0
 2274              	.L78:
1538:Drivers/STM32G4xx_HAL_Driver/Src/stm32g4xx_hal_pcd.c **** }
 2275              		.loc 1 1538 1
 2276 00ac 1846     		mov	r0, r3
 2277 00ae 1037     		adds	r7, r7, #16
 2278              	.LCFI147:
 2279              		.cfi_def_cfa_offset 8
 2280 00b0 BD46     		mov	sp, r7
 2281              	.LCFI148:
 2282              		.cfi_def_cfa_register 13
 2283              		@ sp needed
 2284 00b2 80BD     		pop	{r7, pc}
 2285              		.cfi_endproc
 2286              	.LFE354:
 2288              		.section	.text.HAL_PCD_EP_ClrStall,"ax",%progbits
 2289              		.align	1
 2290              		.global	HAL_PCD_EP_ClrStall
 2291              		.syntax unified
 2292              		.thumb
 2293              		.thumb_func
 2294              		.fpu fpv4-sp-d16
 2296              	HAL_PCD_EP_ClrStall:
 2297              	.LFB355:
1539:Drivers/STM32G4xx_HAL_Driver/Src/stm32g4xx_hal_pcd.c **** 
1540:Drivers/STM32G4xx_HAL_Driver/Src/stm32g4xx_hal_pcd.c **** /**
1541:Drivers/STM32G4xx_HAL_Driver/Src/stm32g4xx_hal_pcd.c ****   * @brief  Clear a STALL condition over in an endpoint
1542:Drivers/STM32G4xx_HAL_Driver/Src/stm32g4xx_hal_pcd.c ****   * @param  hpcd PCD handle
1543:Drivers/STM32G4xx_HAL_Driver/Src/stm32g4xx_hal_pcd.c ****   * @param  ep_addr endpoint address
1544:Drivers/STM32G4xx_HAL_Driver/Src/stm32g4xx_hal_pcd.c ****   * @retval HAL status
1545:Drivers/STM32G4xx_HAL_Driver/Src/stm32g4xx_hal_pcd.c ****   */
1546:Drivers/STM32G4xx_HAL_Driver/Src/stm32g4xx_hal_pcd.c **** HAL_StatusTypeDef HAL_PCD_EP_ClrStall(PCD_HandleTypeDef *hpcd, uint8_t ep_addr)
1547:Drivers/STM32G4xx_HAL_Driver/Src/stm32g4xx_hal_pcd.c **** {
 2298              		.loc 1 1547 1
 2299              		.cfi_startproc
 2300              		@ args = 0, pretend = 0, frame = 16
 2301              		@ frame_needed = 1, uses_anonymous_args = 0
 2302 0000 80B5     		push	{r7, lr}
 2303              	.LCFI149:
 2304              		.cfi_def_cfa_offset 8
 2305              		.cfi_offset 7, -8
 2306              		.cfi_offset 14, -4
 2307 0002 84B0     		sub	sp, sp, #16
 2308              	.LCFI150:
 2309              		.cfi_def_cfa_offset 24
 2310 0004 00AF     		add	r7, sp, #0
 2311              	.LCFI151:
 2312              		.cfi_def_cfa_register 7
 2313 0006 7860     		str	r0, [r7, #4]
 2314 0008 0B46     		mov	r3, r1
 2315 000a FB70     		strb	r3, [r7, #3]
1548:Drivers/STM32G4xx_HAL_Driver/Src/stm32g4xx_hal_pcd.c ****   PCD_EPTypeDef *ep;
1549:Drivers/STM32G4xx_HAL_Driver/Src/stm32g4xx_hal_pcd.c **** 
1550:Drivers/STM32G4xx_HAL_Driver/Src/stm32g4xx_hal_pcd.c ****   if (((uint32_t)ep_addr & 0x0FU) > hpcd->Init.dev_endpoints)
 2316              		.loc 1 1550 26
ARM GAS  /tmp/cc4MD8jd.s 			page 68


 2317 000c FB78     		ldrb	r3, [r7, #3]	@ zero_extendqisi2
 2318 000e 03F00F02 		and	r2, r3, #15
 2319              		.loc 1 1550 47
 2320 0012 7B68     		ldr	r3, [r7, #4]
 2321 0014 5B68     		ldr	r3, [r3, #4]
 2322              		.loc 1 1550 6
 2323 0016 9A42     		cmp	r2, r3
 2324 0018 01D9     		bls	.L84
1551:Drivers/STM32G4xx_HAL_Driver/Src/stm32g4xx_hal_pcd.c ****   {
1552:Drivers/STM32G4xx_HAL_Driver/Src/stm32g4xx_hal_pcd.c ****     return HAL_ERROR;
 2325              		.loc 1 1552 12
 2326 001a 0123     		movs	r3, #1
 2327 001c 3AE0     		b	.L85
 2328              	.L84:
1553:Drivers/STM32G4xx_HAL_Driver/Src/stm32g4xx_hal_pcd.c ****   }
1554:Drivers/STM32G4xx_HAL_Driver/Src/stm32g4xx_hal_pcd.c **** 
1555:Drivers/STM32G4xx_HAL_Driver/Src/stm32g4xx_hal_pcd.c ****   if ((0x80U & ep_addr) == 0x80U)
 2329              		.loc 1 1555 25
 2330 001e 97F90330 		ldrsb	r3, [r7, #3]
 2331              		.loc 1 1555 6
 2332 0022 002B     		cmp	r3, #0
 2333 0024 0BDA     		bge	.L86
1556:Drivers/STM32G4xx_HAL_Driver/Src/stm32g4xx_hal_pcd.c ****   {
1557:Drivers/STM32G4xx_HAL_Driver/Src/stm32g4xx_hal_pcd.c ****     ep = &hpcd->IN_ep[ep_addr & EP_ADDR_MSK];
 2334              		.loc 1 1557 31
 2335 0026 FB78     		ldrb	r3, [r7, #3]	@ zero_extendqisi2
 2336 0028 03F00703 		and	r3, r3, #7
 2337              		.loc 1 1557 8
 2338 002c 5B01     		lsls	r3, r3, #5
 2339 002e 2833     		adds	r3, r3, #40
 2340 0030 7A68     		ldr	r2, [r7, #4]
 2341 0032 1344     		add	r3, r3, r2
 2342 0034 FB60     		str	r3, [r7, #12]
1558:Drivers/STM32G4xx_HAL_Driver/Src/stm32g4xx_hal_pcd.c ****     ep->is_in = 1U;
 2343              		.loc 1 1558 15
 2344 0036 FB68     		ldr	r3, [r7, #12]
 2345 0038 0122     		movs	r2, #1
 2346 003a 5A70     		strb	r2, [r3, #1]
 2347 003c 0BE0     		b	.L87
 2348              	.L86:
1559:Drivers/STM32G4xx_HAL_Driver/Src/stm32g4xx_hal_pcd.c ****   }
1560:Drivers/STM32G4xx_HAL_Driver/Src/stm32g4xx_hal_pcd.c ****   else
1561:Drivers/STM32G4xx_HAL_Driver/Src/stm32g4xx_hal_pcd.c ****   {
1562:Drivers/STM32G4xx_HAL_Driver/Src/stm32g4xx_hal_pcd.c ****     ep = &hpcd->OUT_ep[ep_addr & EP_ADDR_MSK];
 2349              		.loc 1 1562 32
 2350 003e FB78     		ldrb	r3, [r7, #3]	@ zero_extendqisi2
 2351 0040 03F00703 		and	r3, r3, #7
 2352              		.loc 1 1562 8
 2353 0044 5B01     		lsls	r3, r3, #5
 2354 0046 03F59473 		add	r3, r3, #296
 2355 004a 7A68     		ldr	r2, [r7, #4]
 2356 004c 1344     		add	r3, r3, r2
 2357 004e FB60     		str	r3, [r7, #12]
1563:Drivers/STM32G4xx_HAL_Driver/Src/stm32g4xx_hal_pcd.c ****     ep->is_in = 0U;
 2358              		.loc 1 1563 15
 2359 0050 FB68     		ldr	r3, [r7, #12]
 2360 0052 0022     		movs	r2, #0
ARM GAS  /tmp/cc4MD8jd.s 			page 69


 2361 0054 5A70     		strb	r2, [r3, #1]
 2362              	.L87:
1564:Drivers/STM32G4xx_HAL_Driver/Src/stm32g4xx_hal_pcd.c ****   }
1565:Drivers/STM32G4xx_HAL_Driver/Src/stm32g4xx_hal_pcd.c **** 
1566:Drivers/STM32G4xx_HAL_Driver/Src/stm32g4xx_hal_pcd.c ****   ep->is_stall = 0U;
 2363              		.loc 1 1566 16
 2364 0056 FB68     		ldr	r3, [r7, #12]
 2365 0058 0022     		movs	r2, #0
 2366 005a 9A70     		strb	r2, [r3, #2]
1567:Drivers/STM32G4xx_HAL_Driver/Src/stm32g4xx_hal_pcd.c ****   ep->num = ep_addr & EP_ADDR_MSK;
 2367              		.loc 1 1567 21
 2368 005c FB78     		ldrb	r3, [r7, #3]
 2369 005e 03F00703 		and	r3, r3, #7
 2370 0062 DAB2     		uxtb	r2, r3
 2371              		.loc 1 1567 11
 2372 0064 FB68     		ldr	r3, [r7, #12]
 2373 0066 1A70     		strb	r2, [r3]
1568:Drivers/STM32G4xx_HAL_Driver/Src/stm32g4xx_hal_pcd.c **** 
1569:Drivers/STM32G4xx_HAL_Driver/Src/stm32g4xx_hal_pcd.c ****   __HAL_LOCK(hpcd);
 2374              		.loc 1 1569 3
 2375 0068 7B68     		ldr	r3, [r7, #4]
 2376 006a 93F82832 		ldrb	r3, [r3, #552]	@ zero_extendqisi2
 2377 006e 012B     		cmp	r3, #1
 2378 0070 01D1     		bne	.L88
 2379              		.loc 1 1569 3 is_stmt 0 discriminator 1
 2380 0072 0223     		movs	r3, #2
 2381 0074 0EE0     		b	.L85
 2382              	.L88:
 2383              		.loc 1 1569 3 discriminator 2
 2384 0076 7B68     		ldr	r3, [r7, #4]
 2385 0078 0122     		movs	r2, #1
 2386 007a 83F82822 		strb	r2, [r3, #552]
1570:Drivers/STM32G4xx_HAL_Driver/Src/stm32g4xx_hal_pcd.c ****   (void)USB_EPClearStall(hpcd->Instance, ep);
 2387              		.loc 1 1570 30 is_stmt 1 discriminator 2
 2388 007e 7B68     		ldr	r3, [r7, #4]
 2389 0080 1B68     		ldr	r3, [r3]
 2390              		.loc 1 1570 9 discriminator 2
 2391 0082 F968     		ldr	r1, [r7, #12]
 2392 0084 1846     		mov	r0, r3
 2393 0086 FFF7FEFF 		bl	USB_EPClearStall
1571:Drivers/STM32G4xx_HAL_Driver/Src/stm32g4xx_hal_pcd.c ****   __HAL_UNLOCK(hpcd);
 2394              		.loc 1 1571 3 discriminator 2
 2395 008a 7B68     		ldr	r3, [r7, #4]
 2396 008c 0022     		movs	r2, #0
 2397 008e 83F82822 		strb	r2, [r3, #552]
1572:Drivers/STM32G4xx_HAL_Driver/Src/stm32g4xx_hal_pcd.c **** 
1573:Drivers/STM32G4xx_HAL_Driver/Src/stm32g4xx_hal_pcd.c ****   return HAL_OK;
 2398              		.loc 1 1573 10 discriminator 2
 2399 0092 0023     		movs	r3, #0
 2400              	.L85:
1574:Drivers/STM32G4xx_HAL_Driver/Src/stm32g4xx_hal_pcd.c **** }
 2401              		.loc 1 1574 1
 2402 0094 1846     		mov	r0, r3
 2403 0096 1037     		adds	r7, r7, #16
 2404              	.LCFI152:
 2405              		.cfi_def_cfa_offset 8
 2406 0098 BD46     		mov	sp, r7
ARM GAS  /tmp/cc4MD8jd.s 			page 70


 2407              	.LCFI153:
 2408              		.cfi_def_cfa_register 13
 2409              		@ sp needed
 2410 009a 80BD     		pop	{r7, pc}
 2411              		.cfi_endproc
 2412              	.LFE355:
 2414              		.section	.text.HAL_PCD_EP_Flush,"ax",%progbits
 2415              		.align	1
 2416              		.global	HAL_PCD_EP_Flush
 2417              		.syntax unified
 2418              		.thumb
 2419              		.thumb_func
 2420              		.fpu fpv4-sp-d16
 2422              	HAL_PCD_EP_Flush:
 2423              	.LFB356:
1575:Drivers/STM32G4xx_HAL_Driver/Src/stm32g4xx_hal_pcd.c **** 
1576:Drivers/STM32G4xx_HAL_Driver/Src/stm32g4xx_hal_pcd.c **** /**
1577:Drivers/STM32G4xx_HAL_Driver/Src/stm32g4xx_hal_pcd.c ****   * @brief  Flush an endpoint
1578:Drivers/STM32G4xx_HAL_Driver/Src/stm32g4xx_hal_pcd.c ****   * @param  hpcd PCD handle
1579:Drivers/STM32G4xx_HAL_Driver/Src/stm32g4xx_hal_pcd.c ****   * @param  ep_addr endpoint address
1580:Drivers/STM32G4xx_HAL_Driver/Src/stm32g4xx_hal_pcd.c ****   * @retval HAL status
1581:Drivers/STM32G4xx_HAL_Driver/Src/stm32g4xx_hal_pcd.c ****   */
1582:Drivers/STM32G4xx_HAL_Driver/Src/stm32g4xx_hal_pcd.c **** HAL_StatusTypeDef HAL_PCD_EP_Flush(PCD_HandleTypeDef *hpcd, uint8_t ep_addr)
1583:Drivers/STM32G4xx_HAL_Driver/Src/stm32g4xx_hal_pcd.c **** {
 2424              		.loc 1 1583 1
 2425              		.cfi_startproc
 2426              		@ args = 0, pretend = 0, frame = 8
 2427              		@ frame_needed = 1, uses_anonymous_args = 0
 2428              		@ link register save eliminated.
 2429 0000 80B4     		push	{r7}
 2430              	.LCFI154:
 2431              		.cfi_def_cfa_offset 4
 2432              		.cfi_offset 7, -4
 2433 0002 83B0     		sub	sp, sp, #12
 2434              	.LCFI155:
 2435              		.cfi_def_cfa_offset 16
 2436 0004 00AF     		add	r7, sp, #0
 2437              	.LCFI156:
 2438              		.cfi_def_cfa_register 7
 2439 0006 7860     		str	r0, [r7, #4]
 2440 0008 0B46     		mov	r3, r1
 2441 000a FB70     		strb	r3, [r7, #3]
1584:Drivers/STM32G4xx_HAL_Driver/Src/stm32g4xx_hal_pcd.c ****   /* Prevent unused argument(s) compilation warning */
1585:Drivers/STM32G4xx_HAL_Driver/Src/stm32g4xx_hal_pcd.c ****   UNUSED(hpcd);
1586:Drivers/STM32G4xx_HAL_Driver/Src/stm32g4xx_hal_pcd.c ****   UNUSED(ep_addr);
1587:Drivers/STM32G4xx_HAL_Driver/Src/stm32g4xx_hal_pcd.c **** 
1588:Drivers/STM32G4xx_HAL_Driver/Src/stm32g4xx_hal_pcd.c ****   return HAL_OK;
 2442              		.loc 1 1588 10
 2443 000c 0023     		movs	r3, #0
1589:Drivers/STM32G4xx_HAL_Driver/Src/stm32g4xx_hal_pcd.c **** }
 2444              		.loc 1 1589 1
 2445 000e 1846     		mov	r0, r3
 2446 0010 0C37     		adds	r7, r7, #12
 2447              	.LCFI157:
 2448              		.cfi_def_cfa_offset 4
 2449 0012 BD46     		mov	sp, r7
 2450              	.LCFI158:
ARM GAS  /tmp/cc4MD8jd.s 			page 71


 2451              		.cfi_def_cfa_register 13
 2452              		@ sp needed
 2453 0014 5DF8047B 		ldr	r7, [sp], #4
 2454              	.LCFI159:
 2455              		.cfi_restore 7
 2456              		.cfi_def_cfa_offset 0
 2457 0018 7047     		bx	lr
 2458              		.cfi_endproc
 2459              	.LFE356:
 2461              		.section	.text.HAL_PCD_ActivateRemoteWakeup,"ax",%progbits
 2462              		.align	1
 2463              		.global	HAL_PCD_ActivateRemoteWakeup
 2464              		.syntax unified
 2465              		.thumb
 2466              		.thumb_func
 2467              		.fpu fpv4-sp-d16
 2469              	HAL_PCD_ActivateRemoteWakeup:
 2470              	.LFB357:
1590:Drivers/STM32G4xx_HAL_Driver/Src/stm32g4xx_hal_pcd.c **** 
1591:Drivers/STM32G4xx_HAL_Driver/Src/stm32g4xx_hal_pcd.c **** /**
1592:Drivers/STM32G4xx_HAL_Driver/Src/stm32g4xx_hal_pcd.c ****   * @brief  Activate remote wakeup signalling
1593:Drivers/STM32G4xx_HAL_Driver/Src/stm32g4xx_hal_pcd.c ****   * @param  hpcd PCD handle
1594:Drivers/STM32G4xx_HAL_Driver/Src/stm32g4xx_hal_pcd.c ****   * @retval HAL status
1595:Drivers/STM32G4xx_HAL_Driver/Src/stm32g4xx_hal_pcd.c ****   */
1596:Drivers/STM32G4xx_HAL_Driver/Src/stm32g4xx_hal_pcd.c **** HAL_StatusTypeDef HAL_PCD_ActivateRemoteWakeup(PCD_HandleTypeDef *hpcd)
1597:Drivers/STM32G4xx_HAL_Driver/Src/stm32g4xx_hal_pcd.c **** {
 2471              		.loc 1 1597 1
 2472              		.cfi_startproc
 2473              		@ args = 0, pretend = 0, frame = 8
 2474              		@ frame_needed = 1, uses_anonymous_args = 0
 2475 0000 80B5     		push	{r7, lr}
 2476              	.LCFI160:
 2477              		.cfi_def_cfa_offset 8
 2478              		.cfi_offset 7, -8
 2479              		.cfi_offset 14, -4
 2480 0002 82B0     		sub	sp, sp, #8
 2481              	.LCFI161:
 2482              		.cfi_def_cfa_offset 16
 2483 0004 00AF     		add	r7, sp, #0
 2484              	.LCFI162:
 2485              		.cfi_def_cfa_register 7
 2486 0006 7860     		str	r0, [r7, #4]
1598:Drivers/STM32G4xx_HAL_Driver/Src/stm32g4xx_hal_pcd.c ****   return (USB_ActivateRemoteWakeup(hpcd->Instance));
 2487              		.loc 1 1598 40
 2488 0008 7B68     		ldr	r3, [r7, #4]
 2489 000a 1B68     		ldr	r3, [r3]
 2490              		.loc 1 1598 11
 2491 000c 1846     		mov	r0, r3
 2492 000e FFF7FEFF 		bl	USB_ActivateRemoteWakeup
 2493 0012 0346     		mov	r3, r0
1599:Drivers/STM32G4xx_HAL_Driver/Src/stm32g4xx_hal_pcd.c **** }
 2494              		.loc 1 1599 1
 2495 0014 1846     		mov	r0, r3
 2496 0016 0837     		adds	r7, r7, #8
 2497              	.LCFI163:
 2498              		.cfi_def_cfa_offset 8
 2499 0018 BD46     		mov	sp, r7
ARM GAS  /tmp/cc4MD8jd.s 			page 72


 2500              	.LCFI164:
 2501              		.cfi_def_cfa_register 13
 2502              		@ sp needed
 2503 001a 80BD     		pop	{r7, pc}
 2504              		.cfi_endproc
 2505              	.LFE357:
 2507              		.section	.text.HAL_PCD_DeActivateRemoteWakeup,"ax",%progbits
 2508              		.align	1
 2509              		.global	HAL_PCD_DeActivateRemoteWakeup
 2510              		.syntax unified
 2511              		.thumb
 2512              		.thumb_func
 2513              		.fpu fpv4-sp-d16
 2515              	HAL_PCD_DeActivateRemoteWakeup:
 2516              	.LFB358:
1600:Drivers/STM32G4xx_HAL_Driver/Src/stm32g4xx_hal_pcd.c **** 
1601:Drivers/STM32G4xx_HAL_Driver/Src/stm32g4xx_hal_pcd.c **** /**
1602:Drivers/STM32G4xx_HAL_Driver/Src/stm32g4xx_hal_pcd.c ****   * @brief  De-activate remote wakeup signalling.
1603:Drivers/STM32G4xx_HAL_Driver/Src/stm32g4xx_hal_pcd.c ****   * @param  hpcd PCD handle
1604:Drivers/STM32G4xx_HAL_Driver/Src/stm32g4xx_hal_pcd.c ****   * @retval HAL status
1605:Drivers/STM32G4xx_HAL_Driver/Src/stm32g4xx_hal_pcd.c ****   */
1606:Drivers/STM32G4xx_HAL_Driver/Src/stm32g4xx_hal_pcd.c **** HAL_StatusTypeDef HAL_PCD_DeActivateRemoteWakeup(PCD_HandleTypeDef *hpcd)
1607:Drivers/STM32G4xx_HAL_Driver/Src/stm32g4xx_hal_pcd.c **** {
 2517              		.loc 1 1607 1
 2518              		.cfi_startproc
 2519              		@ args = 0, pretend = 0, frame = 8
 2520              		@ frame_needed = 1, uses_anonymous_args = 0
 2521 0000 80B5     		push	{r7, lr}
 2522              	.LCFI165:
 2523              		.cfi_def_cfa_offset 8
 2524              		.cfi_offset 7, -8
 2525              		.cfi_offset 14, -4
 2526 0002 82B0     		sub	sp, sp, #8
 2527              	.LCFI166:
 2528              		.cfi_def_cfa_offset 16
 2529 0004 00AF     		add	r7, sp, #0
 2530              	.LCFI167:
 2531              		.cfi_def_cfa_register 7
 2532 0006 7860     		str	r0, [r7, #4]
1608:Drivers/STM32G4xx_HAL_Driver/Src/stm32g4xx_hal_pcd.c ****   return (USB_DeActivateRemoteWakeup(hpcd->Instance));
 2533              		.loc 1 1608 42
 2534 0008 7B68     		ldr	r3, [r7, #4]
 2535 000a 1B68     		ldr	r3, [r3]
 2536              		.loc 1 1608 11
 2537 000c 1846     		mov	r0, r3
 2538 000e FFF7FEFF 		bl	USB_DeActivateRemoteWakeup
 2539 0012 0346     		mov	r3, r0
1609:Drivers/STM32G4xx_HAL_Driver/Src/stm32g4xx_hal_pcd.c **** }
 2540              		.loc 1 1609 1
 2541 0014 1846     		mov	r0, r3
 2542 0016 0837     		adds	r7, r7, #8
 2543              	.LCFI168:
 2544              		.cfi_def_cfa_offset 8
 2545 0018 BD46     		mov	sp, r7
 2546              	.LCFI169:
 2547              		.cfi_def_cfa_register 13
 2548              		@ sp needed
ARM GAS  /tmp/cc4MD8jd.s 			page 73


 2549 001a 80BD     		pop	{r7, pc}
 2550              		.cfi_endproc
 2551              	.LFE358:
 2553              		.section	.text.HAL_PCD_GetState,"ax",%progbits
 2554              		.align	1
 2555              		.global	HAL_PCD_GetState
 2556              		.syntax unified
 2557              		.thumb
 2558              		.thumb_func
 2559              		.fpu fpv4-sp-d16
 2561              	HAL_PCD_GetState:
 2562              	.LFB359:
1610:Drivers/STM32G4xx_HAL_Driver/Src/stm32g4xx_hal_pcd.c **** 
1611:Drivers/STM32G4xx_HAL_Driver/Src/stm32g4xx_hal_pcd.c **** /**
1612:Drivers/STM32G4xx_HAL_Driver/Src/stm32g4xx_hal_pcd.c ****   * @}
1613:Drivers/STM32G4xx_HAL_Driver/Src/stm32g4xx_hal_pcd.c ****   */
1614:Drivers/STM32G4xx_HAL_Driver/Src/stm32g4xx_hal_pcd.c **** 
1615:Drivers/STM32G4xx_HAL_Driver/Src/stm32g4xx_hal_pcd.c **** /** @defgroup PCD_Exported_Functions_Group4 Peripheral State functions
1616:Drivers/STM32G4xx_HAL_Driver/Src/stm32g4xx_hal_pcd.c ****  *  @brief   Peripheral State functions
1617:Drivers/STM32G4xx_HAL_Driver/Src/stm32g4xx_hal_pcd.c ****  *
1618:Drivers/STM32G4xx_HAL_Driver/Src/stm32g4xx_hal_pcd.c **** @verbatim
1619:Drivers/STM32G4xx_HAL_Driver/Src/stm32g4xx_hal_pcd.c ****  ===============================================================================
1620:Drivers/STM32G4xx_HAL_Driver/Src/stm32g4xx_hal_pcd.c ****                       ##### Peripheral State functions #####
1621:Drivers/STM32G4xx_HAL_Driver/Src/stm32g4xx_hal_pcd.c ****  ===============================================================================
1622:Drivers/STM32G4xx_HAL_Driver/Src/stm32g4xx_hal_pcd.c ****     [..]
1623:Drivers/STM32G4xx_HAL_Driver/Src/stm32g4xx_hal_pcd.c ****     This subsection permits to get in run-time the status of the peripheral
1624:Drivers/STM32G4xx_HAL_Driver/Src/stm32g4xx_hal_pcd.c ****     and the data flow.
1625:Drivers/STM32G4xx_HAL_Driver/Src/stm32g4xx_hal_pcd.c **** 
1626:Drivers/STM32G4xx_HAL_Driver/Src/stm32g4xx_hal_pcd.c **** @endverbatim
1627:Drivers/STM32G4xx_HAL_Driver/Src/stm32g4xx_hal_pcd.c ****   * @{
1628:Drivers/STM32G4xx_HAL_Driver/Src/stm32g4xx_hal_pcd.c ****   */
1629:Drivers/STM32G4xx_HAL_Driver/Src/stm32g4xx_hal_pcd.c **** 
1630:Drivers/STM32G4xx_HAL_Driver/Src/stm32g4xx_hal_pcd.c **** /**
1631:Drivers/STM32G4xx_HAL_Driver/Src/stm32g4xx_hal_pcd.c ****   * @brief  Return the PCD handle state.
1632:Drivers/STM32G4xx_HAL_Driver/Src/stm32g4xx_hal_pcd.c ****   * @param  hpcd PCD handle
1633:Drivers/STM32G4xx_HAL_Driver/Src/stm32g4xx_hal_pcd.c ****   * @retval HAL state
1634:Drivers/STM32G4xx_HAL_Driver/Src/stm32g4xx_hal_pcd.c ****   */
1635:Drivers/STM32G4xx_HAL_Driver/Src/stm32g4xx_hal_pcd.c **** PCD_StateTypeDef HAL_PCD_GetState(PCD_HandleTypeDef *hpcd)
1636:Drivers/STM32G4xx_HAL_Driver/Src/stm32g4xx_hal_pcd.c **** {
 2563              		.loc 1 1636 1
 2564              		.cfi_startproc
 2565              		@ args = 0, pretend = 0, frame = 8
 2566              		@ frame_needed = 1, uses_anonymous_args = 0
 2567              		@ link register save eliminated.
 2568 0000 80B4     		push	{r7}
 2569              	.LCFI170:
 2570              		.cfi_def_cfa_offset 4
 2571              		.cfi_offset 7, -4
 2572 0002 83B0     		sub	sp, sp, #12
 2573              	.LCFI171:
 2574              		.cfi_def_cfa_offset 16
 2575 0004 00AF     		add	r7, sp, #0
 2576              	.LCFI172:
 2577              		.cfi_def_cfa_register 7
 2578 0006 7860     		str	r0, [r7, #4]
1637:Drivers/STM32G4xx_HAL_Driver/Src/stm32g4xx_hal_pcd.c ****   return hpcd->State;
 2579              		.loc 1 1637 14
ARM GAS  /tmp/cc4MD8jd.s 			page 74


 2580 0008 7B68     		ldr	r3, [r7, #4]
 2581 000a 93F82932 		ldrb	r3, [r3, #553]
 2582 000e DBB2     		uxtb	r3, r3
1638:Drivers/STM32G4xx_HAL_Driver/Src/stm32g4xx_hal_pcd.c **** }
 2583              		.loc 1 1638 1
 2584 0010 1846     		mov	r0, r3
 2585 0012 0C37     		adds	r7, r7, #12
 2586              	.LCFI173:
 2587              		.cfi_def_cfa_offset 4
 2588 0014 BD46     		mov	sp, r7
 2589              	.LCFI174:
 2590              		.cfi_def_cfa_register 13
 2591              		@ sp needed
 2592 0016 5DF8047B 		ldr	r7, [sp], #4
 2593              	.LCFI175:
 2594              		.cfi_restore 7
 2595              		.cfi_def_cfa_offset 0
 2596 001a 7047     		bx	lr
 2597              		.cfi_endproc
 2598              	.LFE359:
 2600              		.global	c
 2601              		.section	.bss.c,"aw",%nobits
 2602              		.align	2
 2605              	c:
 2606 0000 00000000 		.space	4
 2607              		.global	setp
 2608              		.section	.bss.setp,"aw",%nobits
 2609              		.align	2
 2612              	setp:
 2613 0000 00000000 		.space	4
 2614              		.global	abc
 2615              		.section	.bss.abc,"aw",%nobits
 2616              		.align	2
 2619              	abc:
 2620 0000 00000000 		.space	4
 2621              		.global	in
 2622              		.section	.bss.in,"aw",%nobits
 2623              		.align	2
 2626              	in:
 2627 0000 00000000 		.space	4
 2628              		.section	.text.PCD_EP_ISR_Handler,"ax",%progbits
 2629              		.align	1
 2630              		.syntax unified
 2631              		.thumb
 2632              		.thumb_func
 2633              		.fpu fpv4-sp-d16
 2635              	PCD_EP_ISR_Handler:
 2636              	.LFB360:
1639:Drivers/STM32G4xx_HAL_Driver/Src/stm32g4xx_hal_pcd.c **** 
1640:Drivers/STM32G4xx_HAL_Driver/Src/stm32g4xx_hal_pcd.c **** /**
1641:Drivers/STM32G4xx_HAL_Driver/Src/stm32g4xx_hal_pcd.c ****   * @}
1642:Drivers/STM32G4xx_HAL_Driver/Src/stm32g4xx_hal_pcd.c ****   */
1643:Drivers/STM32G4xx_HAL_Driver/Src/stm32g4xx_hal_pcd.c **** 
1644:Drivers/STM32G4xx_HAL_Driver/Src/stm32g4xx_hal_pcd.c **** /**
1645:Drivers/STM32G4xx_HAL_Driver/Src/stm32g4xx_hal_pcd.c ****   * @}
1646:Drivers/STM32G4xx_HAL_Driver/Src/stm32g4xx_hal_pcd.c ****   */
1647:Drivers/STM32G4xx_HAL_Driver/Src/stm32g4xx_hal_pcd.c **** 
ARM GAS  /tmp/cc4MD8jd.s 			page 75


1648:Drivers/STM32G4xx_HAL_Driver/Src/stm32g4xx_hal_pcd.c **** /* Private functions ---------------------------------------------------------*/
1649:Drivers/STM32G4xx_HAL_Driver/Src/stm32g4xx_hal_pcd.c **** /** @addtogroup PCD_Private_Functions
1650:Drivers/STM32G4xx_HAL_Driver/Src/stm32g4xx_hal_pcd.c ****   * @{
1651:Drivers/STM32G4xx_HAL_Driver/Src/stm32g4xx_hal_pcd.c ****   */
1652:Drivers/STM32G4xx_HAL_Driver/Src/stm32g4xx_hal_pcd.c **** 
1653:Drivers/STM32G4xx_HAL_Driver/Src/stm32g4xx_hal_pcd.c **** int c = 0;
1654:Drivers/STM32G4xx_HAL_Driver/Src/stm32g4xx_hal_pcd.c **** int setp = 0;
1655:Drivers/STM32G4xx_HAL_Driver/Src/stm32g4xx_hal_pcd.c **** int abc = 0;
1656:Drivers/STM32G4xx_HAL_Driver/Src/stm32g4xx_hal_pcd.c **** int in = 0;
1657:Drivers/STM32G4xx_HAL_Driver/Src/stm32g4xx_hal_pcd.c **** 
1658:Drivers/STM32G4xx_HAL_Driver/Src/stm32g4xx_hal_pcd.c **** /**
1659:Drivers/STM32G4xx_HAL_Driver/Src/stm32g4xx_hal_pcd.c ****   * @brief  This function handles PCD Endpoint interrupt request.
1660:Drivers/STM32G4xx_HAL_Driver/Src/stm32g4xx_hal_pcd.c ****   * @param  hpcd PCD handle
1661:Drivers/STM32G4xx_HAL_Driver/Src/stm32g4xx_hal_pcd.c ****   * @retval HAL status
1662:Drivers/STM32G4xx_HAL_Driver/Src/stm32g4xx_hal_pcd.c ****   */
1663:Drivers/STM32G4xx_HAL_Driver/Src/stm32g4xx_hal_pcd.c **** static HAL_StatusTypeDef PCD_EP_ISR_Handler(PCD_HandleTypeDef *hpcd)
1664:Drivers/STM32G4xx_HAL_Driver/Src/stm32g4xx_hal_pcd.c **** {
 2637              		.loc 1 1664 1
 2638              		.cfi_startproc
 2639              		@ args = 0, pretend = 0, frame = 48
 2640              		@ frame_needed = 1, uses_anonymous_args = 0
 2641 0000 90B5     		push	{r4, r7, lr}
 2642              	.LCFI176:
 2643              		.cfi_def_cfa_offset 12
 2644              		.cfi_offset 4, -12
 2645              		.cfi_offset 7, -8
 2646              		.cfi_offset 14, -4
 2647 0002 8DB0     		sub	sp, sp, #52
 2648              	.LCFI177:
 2649              		.cfi_def_cfa_offset 64
 2650 0004 00AF     		add	r7, sp, #0
 2651              	.LCFI178:
 2652              		.cfi_def_cfa_register 7
 2653 0006 7860     		str	r0, [r7, #4]
1665:Drivers/STM32G4xx_HAL_Driver/Src/stm32g4xx_hal_pcd.c ****   PCD_EPTypeDef *ep;
1666:Drivers/STM32G4xx_HAL_Driver/Src/stm32g4xx_hal_pcd.c ****   uint16_t count;
1667:Drivers/STM32G4xx_HAL_Driver/Src/stm32g4xx_hal_pcd.c ****   uint16_t wIstr;
1668:Drivers/STM32G4xx_HAL_Driver/Src/stm32g4xx_hal_pcd.c ****   uint16_t wEPVal;
1669:Drivers/STM32G4xx_HAL_Driver/Src/stm32g4xx_hal_pcd.c ****   uint8_t epindex;
1670:Drivers/STM32G4xx_HAL_Driver/Src/stm32g4xx_hal_pcd.c **** 
1671:Drivers/STM32G4xx_HAL_Driver/Src/stm32g4xx_hal_pcd.c ****   /* stay in loop while pending interrupts */
1672:Drivers/STM32G4xx_HAL_Driver/Src/stm32g4xx_hal_pcd.c ****   while ((hpcd->Instance->ISTR & USB_ISTR_CTR) != 0U)
 2654              		.loc 1 1672 9
 2655 0008 CCE2     		b	.L98
 2656              	.L122:
1673:Drivers/STM32G4xx_HAL_Driver/Src/stm32g4xx_hal_pcd.c ****   {
1674:Drivers/STM32G4xx_HAL_Driver/Src/stm32g4xx_hal_pcd.c ****     wIstr = hpcd->Instance->ISTR;
 2657              		.loc 1 1674 17
 2658 000a 7B68     		ldr	r3, [r7, #4]
 2659 000c 1B68     		ldr	r3, [r3]
 2660              		.loc 1 1674 11
 2661 000e B3F84430 		ldrh	r3, [r3, #68]	@ movhi
 2662 0012 FB84     		strh	r3, [r7, #38]	@ movhi
1675:Drivers/STM32G4xx_HAL_Driver/Src/stm32g4xx_hal_pcd.c ****     /* extract highest priority endpoint number */
1676:Drivers/STM32G4xx_HAL_Driver/Src/stm32g4xx_hal_pcd.c ****     epindex = (uint8_t)(wIstr & USB_ISTR_EP_ID);
 2663              		.loc 1 1676 31
 2664 0014 FB8C     		ldrh	r3, [r7, #38]	@ movhi
ARM GAS  /tmp/cc4MD8jd.s 			page 76


 2665 0016 DBB2     		uxtb	r3, r3
 2666              		.loc 1 1676 13
 2667 0018 03F00F03 		and	r3, r3, #15
 2668 001c 87F82530 		strb	r3, [r7, #37]
1677:Drivers/STM32G4xx_HAL_Driver/Src/stm32g4xx_hal_pcd.c **** 
1678:Drivers/STM32G4xx_HAL_Driver/Src/stm32g4xx_hal_pcd.c ****     if (epindex == 0U)
 2669              		.loc 1 1678 8
 2670 0020 97F82530 		ldrb	r3, [r7, #37]	@ zero_extendqisi2
 2671 0024 002B     		cmp	r3, #0
 2672 0026 40F08B81 		bne	.L99
