ARM GAS  /tmp/ccMg6edV.s 			page 1


   1              		.cpu cortex-m4
   2              		.eabi_attribute 27, 1
   3              		.eabi_attribute 28, 1
   4              		.eabi_attribute 20, 1
   5              		.eabi_attribute 21, 1
   6              		.eabi_attribute 23, 3
   7              		.eabi_attribute 24, 1
   8              		.eabi_attribute 25, 1
   9              		.eabi_attribute 26, 1
  10              		.eabi_attribute 30, 6
  11              		.eabi_attribute 34, 1
  12              		.eabi_attribute 18, 4
  13              		.file	"stm32g4xx_hal_exti.c"
  14              		.text
  15              	.Ltext0:
  16              		.cfi_sections	.debug_frame
  17              		.section	.text.HAL_EXTI_SetConfigLine,"ax",%progbits
  18              		.align	1
  19              		.global	HAL_EXTI_SetConfigLine
  20              		.arch armv7e-m
  21              		.syntax unified
  22              		.thumb
  23              		.thumb_func
  24              		.fpu fpv4-sp-d16
  26              	HAL_EXTI_SetConfigLine:
  27              	.LFB325:
  28              		.file 1 "Drivers/STM32G4xx_HAL_Driver/Src/stm32g4xx_hal_exti.c"
   1:Drivers/STM32G4xx_HAL_Driver/Src/stm32g4xx_hal_exti.c **** /**
   2:Drivers/STM32G4xx_HAL_Driver/Src/stm32g4xx_hal_exti.c ****   ******************************************************************************
   3:Drivers/STM32G4xx_HAL_Driver/Src/stm32g4xx_hal_exti.c ****   * @file    stm32g4xx_hal_exti.c
   4:Drivers/STM32G4xx_HAL_Driver/Src/stm32g4xx_hal_exti.c ****   * @author  MCD Application Team
   5:Drivers/STM32G4xx_HAL_Driver/Src/stm32g4xx_hal_exti.c ****   * @brief   EXTI HAL module driver.
   6:Drivers/STM32G4xx_HAL_Driver/Src/stm32g4xx_hal_exti.c ****   *          This file provides firmware functions to manage the following
   7:Drivers/STM32G4xx_HAL_Driver/Src/stm32g4xx_hal_exti.c ****   *          functionalities of the Extended Interrupts and events controller (EXTI) peripheral:
   8:Drivers/STM32G4xx_HAL_Driver/Src/stm32g4xx_hal_exti.c ****   *          functionalities of the General Purpose Input/Output (EXTI) peripheral:
   9:Drivers/STM32G4xx_HAL_Driver/Src/stm32g4xx_hal_exti.c ****   *           + Initialization and de-initialization functions
  10:Drivers/STM32G4xx_HAL_Driver/Src/stm32g4xx_hal_exti.c ****   *           + IO operation functions
  11:Drivers/STM32G4xx_HAL_Driver/Src/stm32g4xx_hal_exti.c ****   *
  12:Drivers/STM32G4xx_HAL_Driver/Src/stm32g4xx_hal_exti.c ****   @verbatim
  13:Drivers/STM32G4xx_HAL_Driver/Src/stm32g4xx_hal_exti.c ****   ==============================================================================
  14:Drivers/STM32G4xx_HAL_Driver/Src/stm32g4xx_hal_exti.c ****                     ##### EXTI Peripheral features #####
  15:Drivers/STM32G4xx_HAL_Driver/Src/stm32g4xx_hal_exti.c ****   ==============================================================================
  16:Drivers/STM32G4xx_HAL_Driver/Src/stm32g4xx_hal_exti.c ****   [..]
  17:Drivers/STM32G4xx_HAL_Driver/Src/stm32g4xx_hal_exti.c ****     (+) Each Exti line can be configured within this driver.
  18:Drivers/STM32G4xx_HAL_Driver/Src/stm32g4xx_hal_exti.c **** 
  19:Drivers/STM32G4xx_HAL_Driver/Src/stm32g4xx_hal_exti.c ****     (+) Exti line can be configured in 3 different modes
  20:Drivers/STM32G4xx_HAL_Driver/Src/stm32g4xx_hal_exti.c ****         (++) Interrupt
  21:Drivers/STM32G4xx_HAL_Driver/Src/stm32g4xx_hal_exti.c ****         (++) Event
  22:Drivers/STM32G4xx_HAL_Driver/Src/stm32g4xx_hal_exti.c ****         (++) Both of them
  23:Drivers/STM32G4xx_HAL_Driver/Src/stm32g4xx_hal_exti.c **** 
  24:Drivers/STM32G4xx_HAL_Driver/Src/stm32g4xx_hal_exti.c ****     (+) Configurable Exti lines can be configured with 3 different triggers
  25:Drivers/STM32G4xx_HAL_Driver/Src/stm32g4xx_hal_exti.c ****         (++) Rising
  26:Drivers/STM32G4xx_HAL_Driver/Src/stm32g4xx_hal_exti.c ****         (++) Falling
  27:Drivers/STM32G4xx_HAL_Driver/Src/stm32g4xx_hal_exti.c ****         (++) Both of them
  28:Drivers/STM32G4xx_HAL_Driver/Src/stm32g4xx_hal_exti.c **** 
  29:Drivers/STM32G4xx_HAL_Driver/Src/stm32g4xx_hal_exti.c ****     (+) When set in interrupt mode, configurable Exti lines have two different
  30:Drivers/STM32G4xx_HAL_Driver/Src/stm32g4xx_hal_exti.c ****         interrupt pending registers which allow to distinguish which transition
ARM GAS  /tmp/ccMg6edV.s 			page 2


  31:Drivers/STM32G4xx_HAL_Driver/Src/stm32g4xx_hal_exti.c ****         occurs:
  32:Drivers/STM32G4xx_HAL_Driver/Src/stm32g4xx_hal_exti.c ****         (++) Rising edge pending interrupt
  33:Drivers/STM32G4xx_HAL_Driver/Src/stm32g4xx_hal_exti.c ****         (++) Falling
  34:Drivers/STM32G4xx_HAL_Driver/Src/stm32g4xx_hal_exti.c **** 
  35:Drivers/STM32G4xx_HAL_Driver/Src/stm32g4xx_hal_exti.c ****     (+) Exti lines 0 to 15 are linked to gpio pin number 0 to 15. Gpio port can
  36:Drivers/STM32G4xx_HAL_Driver/Src/stm32g4xx_hal_exti.c ****         be selected through multiplexer.
  37:Drivers/STM32G4xx_HAL_Driver/Src/stm32g4xx_hal_exti.c **** 
  38:Drivers/STM32G4xx_HAL_Driver/Src/stm32g4xx_hal_exti.c ****                      ##### How to use this driver #####
  39:Drivers/STM32G4xx_HAL_Driver/Src/stm32g4xx_hal_exti.c ****   ==============================================================================
  40:Drivers/STM32G4xx_HAL_Driver/Src/stm32g4xx_hal_exti.c ****   [..]
  41:Drivers/STM32G4xx_HAL_Driver/Src/stm32g4xx_hal_exti.c **** 
  42:Drivers/STM32G4xx_HAL_Driver/Src/stm32g4xx_hal_exti.c ****     (#) Configure the EXTI line using HAL_EXTI_SetConfigLine().
  43:Drivers/STM32G4xx_HAL_Driver/Src/stm32g4xx_hal_exti.c ****         (++) Choose the interrupt line number by setting "Line" member from
  44:Drivers/STM32G4xx_HAL_Driver/Src/stm32g4xx_hal_exti.c ****              EXTI_ConfigTypeDef structure.
  45:Drivers/STM32G4xx_HAL_Driver/Src/stm32g4xx_hal_exti.c ****         (++) Configure the interrupt and/or event mode using "Mode" member from
  46:Drivers/STM32G4xx_HAL_Driver/Src/stm32g4xx_hal_exti.c ****              EXTI_ConfigTypeDef structure.
  47:Drivers/STM32G4xx_HAL_Driver/Src/stm32g4xx_hal_exti.c ****         (++) For configurable lines, configure rising and/or falling trigger
  48:Drivers/STM32G4xx_HAL_Driver/Src/stm32g4xx_hal_exti.c ****              "Trigger" member from EXTI_ConfigTypeDef structure.
  49:Drivers/STM32G4xx_HAL_Driver/Src/stm32g4xx_hal_exti.c ****         (++) For Exti lines linked to gpio, choose gpio port using "GPIOSel"
  50:Drivers/STM32G4xx_HAL_Driver/Src/stm32g4xx_hal_exti.c ****              member from GPIO_InitTypeDef structure.
  51:Drivers/STM32G4xx_HAL_Driver/Src/stm32g4xx_hal_exti.c **** 
  52:Drivers/STM32G4xx_HAL_Driver/Src/stm32g4xx_hal_exti.c ****     (#) Get current Exti configuration of a dedicated line using
  53:Drivers/STM32G4xx_HAL_Driver/Src/stm32g4xx_hal_exti.c ****         HAL_EXTI_GetConfigLine().
  54:Drivers/STM32G4xx_HAL_Driver/Src/stm32g4xx_hal_exti.c ****         (++) Provide exiting handle as parameter.
  55:Drivers/STM32G4xx_HAL_Driver/Src/stm32g4xx_hal_exti.c ****         (++) Provide pointer on EXTI_ConfigTypeDef structure as second parameter.
  56:Drivers/STM32G4xx_HAL_Driver/Src/stm32g4xx_hal_exti.c **** 
  57:Drivers/STM32G4xx_HAL_Driver/Src/stm32g4xx_hal_exti.c ****     (#) Clear Exti configuration of a dedicated line using HAL_EXTI_GetConfigLine().
  58:Drivers/STM32G4xx_HAL_Driver/Src/stm32g4xx_hal_exti.c ****         (++) Provide exiting handle as parameter.
  59:Drivers/STM32G4xx_HAL_Driver/Src/stm32g4xx_hal_exti.c **** 
  60:Drivers/STM32G4xx_HAL_Driver/Src/stm32g4xx_hal_exti.c ****     (#) Register callback to treat Exti interrupts using HAL_EXTI_RegisterCallback().
  61:Drivers/STM32G4xx_HAL_Driver/Src/stm32g4xx_hal_exti.c ****         (++) Provide exiting handle as first parameter.
  62:Drivers/STM32G4xx_HAL_Driver/Src/stm32g4xx_hal_exti.c ****         (++) Provide which callback will be registered using one value from
  63:Drivers/STM32G4xx_HAL_Driver/Src/stm32g4xx_hal_exti.c ****              EXTI_CallbackIDTypeDef.
  64:Drivers/STM32G4xx_HAL_Driver/Src/stm32g4xx_hal_exti.c ****         (++) Provide callback function pointer.
  65:Drivers/STM32G4xx_HAL_Driver/Src/stm32g4xx_hal_exti.c **** 
  66:Drivers/STM32G4xx_HAL_Driver/Src/stm32g4xx_hal_exti.c ****     (#) Get interrupt pending bit using HAL_EXTI_GetPending().
  67:Drivers/STM32G4xx_HAL_Driver/Src/stm32g4xx_hal_exti.c **** 
  68:Drivers/STM32G4xx_HAL_Driver/Src/stm32g4xx_hal_exti.c ****     (#) Clear interrupt pending bit using HAL_EXTI_ClearPending().
  69:Drivers/STM32G4xx_HAL_Driver/Src/stm32g4xx_hal_exti.c **** 
  70:Drivers/STM32G4xx_HAL_Driver/Src/stm32g4xx_hal_exti.c ****     (#) Generate software interrupt using HAL_EXTI_GenerateSWI().
  71:Drivers/STM32G4xx_HAL_Driver/Src/stm32g4xx_hal_exti.c **** 
  72:Drivers/STM32G4xx_HAL_Driver/Src/stm32g4xx_hal_exti.c ****   @endverbatim
  73:Drivers/STM32G4xx_HAL_Driver/Src/stm32g4xx_hal_exti.c ****   ******************************************************************************
  74:Drivers/STM32G4xx_HAL_Driver/Src/stm32g4xx_hal_exti.c ****   * @attention
  75:Drivers/STM32G4xx_HAL_Driver/Src/stm32g4xx_hal_exti.c ****   *
  76:Drivers/STM32G4xx_HAL_Driver/Src/stm32g4xx_hal_exti.c ****   * <h2><center>&copy; Copyright (c) 2019 STMicroelectronics.
  77:Drivers/STM32G4xx_HAL_Driver/Src/stm32g4xx_hal_exti.c ****   * All rights reserved.</center></h2>
  78:Drivers/STM32G4xx_HAL_Driver/Src/stm32g4xx_hal_exti.c ****   *
  79:Drivers/STM32G4xx_HAL_Driver/Src/stm32g4xx_hal_exti.c ****   * This software component is licensed by ST under BSD 3-Clause license,
  80:Drivers/STM32G4xx_HAL_Driver/Src/stm32g4xx_hal_exti.c ****   * the "License"; You may not use this file except in compliance with the
  81:Drivers/STM32G4xx_HAL_Driver/Src/stm32g4xx_hal_exti.c ****   * License. You may obtain a copy of the License at:
  82:Drivers/STM32G4xx_HAL_Driver/Src/stm32g4xx_hal_exti.c ****   *                        opensource.org/licenses/BSD-3-Clause
  83:Drivers/STM32G4xx_HAL_Driver/Src/stm32g4xx_hal_exti.c ****   *
  84:Drivers/STM32G4xx_HAL_Driver/Src/stm32g4xx_hal_exti.c ****   ******************************************************************************
  85:Drivers/STM32G4xx_HAL_Driver/Src/stm32g4xx_hal_exti.c ****   */
  86:Drivers/STM32G4xx_HAL_Driver/Src/stm32g4xx_hal_exti.c **** 
  87:Drivers/STM32G4xx_HAL_Driver/Src/stm32g4xx_hal_exti.c **** /* Includes ------------------------------------------------------------------*/
ARM GAS  /tmp/ccMg6edV.s 			page 3


  88:Drivers/STM32G4xx_HAL_Driver/Src/stm32g4xx_hal_exti.c **** #include "stm32g4xx_hal.h"
  89:Drivers/STM32G4xx_HAL_Driver/Src/stm32g4xx_hal_exti.c **** 
  90:Drivers/STM32G4xx_HAL_Driver/Src/stm32g4xx_hal_exti.c **** /** @addtogroup STM32G4xx_HAL_Driver
  91:Drivers/STM32G4xx_HAL_Driver/Src/stm32g4xx_hal_exti.c ****   * @{
  92:Drivers/STM32G4xx_HAL_Driver/Src/stm32g4xx_hal_exti.c ****   */
  93:Drivers/STM32G4xx_HAL_Driver/Src/stm32g4xx_hal_exti.c **** 
  94:Drivers/STM32G4xx_HAL_Driver/Src/stm32g4xx_hal_exti.c **** /** @addtogroup EXTI
  95:Drivers/STM32G4xx_HAL_Driver/Src/stm32g4xx_hal_exti.c ****   * @{
  96:Drivers/STM32G4xx_HAL_Driver/Src/stm32g4xx_hal_exti.c ****   */
  97:Drivers/STM32G4xx_HAL_Driver/Src/stm32g4xx_hal_exti.c **** /** MISRA C:2012 deviation rule has been granted for following rule:
  98:Drivers/STM32G4xx_HAL_Driver/Src/stm32g4xx_hal_exti.c ****   * Rule-18.1_b - Medium: Array `EXTICR' 1st subscript interval [0,7] may be out
  99:Drivers/STM32G4xx_HAL_Driver/Src/stm32g4xx_hal_exti.c ****   * of bounds [0,3] in following API :
 100:Drivers/STM32G4xx_HAL_Driver/Src/stm32g4xx_hal_exti.c ****   * HAL_EXTI_SetConfigLine
 101:Drivers/STM32G4xx_HAL_Driver/Src/stm32g4xx_hal_exti.c ****   * HAL_EXTI_GetConfigLine
 102:Drivers/STM32G4xx_HAL_Driver/Src/stm32g4xx_hal_exti.c ****   * HAL_EXTI_ClearConfigLine
 103:Drivers/STM32G4xx_HAL_Driver/Src/stm32g4xx_hal_exti.c ****   */
 104:Drivers/STM32G4xx_HAL_Driver/Src/stm32g4xx_hal_exti.c **** 
 105:Drivers/STM32G4xx_HAL_Driver/Src/stm32g4xx_hal_exti.c **** #ifdef HAL_EXTI_MODULE_ENABLED
 106:Drivers/STM32G4xx_HAL_Driver/Src/stm32g4xx_hal_exti.c **** 
 107:Drivers/STM32G4xx_HAL_Driver/Src/stm32g4xx_hal_exti.c **** /* Private typedef -----------------------------------------------------------*/
 108:Drivers/STM32G4xx_HAL_Driver/Src/stm32g4xx_hal_exti.c **** /* Private defines ------------------------------------------------------------*/
 109:Drivers/STM32G4xx_HAL_Driver/Src/stm32g4xx_hal_exti.c **** /** @defgroup EXTI_Private_Constants EXTI Private Constants
 110:Drivers/STM32G4xx_HAL_Driver/Src/stm32g4xx_hal_exti.c ****   * @{
 111:Drivers/STM32G4xx_HAL_Driver/Src/stm32g4xx_hal_exti.c ****   */
 112:Drivers/STM32G4xx_HAL_Driver/Src/stm32g4xx_hal_exti.c **** #define EXTI_MODE_OFFSET                    0x08U   /* 0x20: offset between MCU IMR/EMR registers *
 113:Drivers/STM32G4xx_HAL_Driver/Src/stm32g4xx_hal_exti.c **** #define EXTI_CONFIG_OFFSET                  0x08U   /* 0x20: offset between MCU Rising/Falling conf
 114:Drivers/STM32G4xx_HAL_Driver/Src/stm32g4xx_hal_exti.c **** /**
 115:Drivers/STM32G4xx_HAL_Driver/Src/stm32g4xx_hal_exti.c ****   * @}
 116:Drivers/STM32G4xx_HAL_Driver/Src/stm32g4xx_hal_exti.c ****   */
 117:Drivers/STM32G4xx_HAL_Driver/Src/stm32g4xx_hal_exti.c **** 
 118:Drivers/STM32G4xx_HAL_Driver/Src/stm32g4xx_hal_exti.c **** /* Private macros ------------------------------------------------------------*/
 119:Drivers/STM32G4xx_HAL_Driver/Src/stm32g4xx_hal_exti.c **** /* Private variables ---------------------------------------------------------*/
 120:Drivers/STM32G4xx_HAL_Driver/Src/stm32g4xx_hal_exti.c **** /* Private function prototypes -----------------------------------------------*/
 121:Drivers/STM32G4xx_HAL_Driver/Src/stm32g4xx_hal_exti.c **** /* Exported functions --------------------------------------------------------*/
 122:Drivers/STM32G4xx_HAL_Driver/Src/stm32g4xx_hal_exti.c **** 
 123:Drivers/STM32G4xx_HAL_Driver/Src/stm32g4xx_hal_exti.c **** /** @addtogroup EXTI_Exported_Functions
 124:Drivers/STM32G4xx_HAL_Driver/Src/stm32g4xx_hal_exti.c ****   * @{
 125:Drivers/STM32G4xx_HAL_Driver/Src/stm32g4xx_hal_exti.c ****   */
 126:Drivers/STM32G4xx_HAL_Driver/Src/stm32g4xx_hal_exti.c **** 
 127:Drivers/STM32G4xx_HAL_Driver/Src/stm32g4xx_hal_exti.c **** /** @addtogroup EXTI_Exported_Functions_Group1
 128:Drivers/STM32G4xx_HAL_Driver/Src/stm32g4xx_hal_exti.c ****   *  @brief    Configuration functions
 129:Drivers/STM32G4xx_HAL_Driver/Src/stm32g4xx_hal_exti.c ****   *
 130:Drivers/STM32G4xx_HAL_Driver/Src/stm32g4xx_hal_exti.c **** @verbatim
 131:Drivers/STM32G4xx_HAL_Driver/Src/stm32g4xx_hal_exti.c ****  ===============================================================================
 132:Drivers/STM32G4xx_HAL_Driver/Src/stm32g4xx_hal_exti.c ****               ##### Configuration functions #####
 133:Drivers/STM32G4xx_HAL_Driver/Src/stm32g4xx_hal_exti.c ****  ===============================================================================
 134:Drivers/STM32G4xx_HAL_Driver/Src/stm32g4xx_hal_exti.c **** 
 135:Drivers/STM32G4xx_HAL_Driver/Src/stm32g4xx_hal_exti.c **** @endverbatim
 136:Drivers/STM32G4xx_HAL_Driver/Src/stm32g4xx_hal_exti.c ****   * @{
 137:Drivers/STM32G4xx_HAL_Driver/Src/stm32g4xx_hal_exti.c ****   */
 138:Drivers/STM32G4xx_HAL_Driver/Src/stm32g4xx_hal_exti.c **** 
 139:Drivers/STM32G4xx_HAL_Driver/Src/stm32g4xx_hal_exti.c **** /**
 140:Drivers/STM32G4xx_HAL_Driver/Src/stm32g4xx_hal_exti.c ****   * @brief  Set configuration of a dedicated Exti line.
 141:Drivers/STM32G4xx_HAL_Driver/Src/stm32g4xx_hal_exti.c ****   * @param  hexti Exti handle.
 142:Drivers/STM32G4xx_HAL_Driver/Src/stm32g4xx_hal_exti.c ****   * @param  pExtiConfig Pointer on EXTI configuration to be set.
 143:Drivers/STM32G4xx_HAL_Driver/Src/stm32g4xx_hal_exti.c ****   * @retval HAL Status.
 144:Drivers/STM32G4xx_HAL_Driver/Src/stm32g4xx_hal_exti.c ****   */
ARM GAS  /tmp/ccMg6edV.s 			page 4


 145:Drivers/STM32G4xx_HAL_Driver/Src/stm32g4xx_hal_exti.c **** HAL_StatusTypeDef HAL_EXTI_SetConfigLine(EXTI_HandleTypeDef *hexti, EXTI_ConfigTypeDef *pExtiConfig
 146:Drivers/STM32G4xx_HAL_Driver/Src/stm32g4xx_hal_exti.c **** {
  29              		.loc 1 146 1
  30              		.cfi_startproc
  31              		@ args = 0, pretend = 0, frame = 32
  32              		@ frame_needed = 1, uses_anonymous_args = 0
  33              		@ link register save eliminated.
  34 0000 80B4     		push	{r7}
  35              	.LCFI0:
  36              		.cfi_def_cfa_offset 4
  37              		.cfi_offset 7, -4
  38 0002 89B0     		sub	sp, sp, #36
  39              	.LCFI1:
  40              		.cfi_def_cfa_offset 40
  41 0004 00AF     		add	r7, sp, #0
  42              	.LCFI2:
  43              		.cfi_def_cfa_register 7
  44 0006 7860     		str	r0, [r7, #4]
  45 0008 3960     		str	r1, [r7]
 147:Drivers/STM32G4xx_HAL_Driver/Src/stm32g4xx_hal_exti.c ****   __IO uint32_t *regaddr;
 148:Drivers/STM32G4xx_HAL_Driver/Src/stm32g4xx_hal_exti.c ****   uint32_t regval;
 149:Drivers/STM32G4xx_HAL_Driver/Src/stm32g4xx_hal_exti.c ****   uint32_t linepos;
 150:Drivers/STM32G4xx_HAL_Driver/Src/stm32g4xx_hal_exti.c ****   uint32_t maskline;
 151:Drivers/STM32G4xx_HAL_Driver/Src/stm32g4xx_hal_exti.c ****   uint32_t offset;
 152:Drivers/STM32G4xx_HAL_Driver/Src/stm32g4xx_hal_exti.c **** 
 153:Drivers/STM32G4xx_HAL_Driver/Src/stm32g4xx_hal_exti.c ****   /* Check null pointer */
 154:Drivers/STM32G4xx_HAL_Driver/Src/stm32g4xx_hal_exti.c ****   if ((hexti == NULL) || (pExtiConfig == NULL))
  46              		.loc 1 154 6
  47 000a 7B68     		ldr	r3, [r7, #4]
  48 000c 002B     		cmp	r3, #0
  49 000e 02D0     		beq	.L2
  50              		.loc 1 154 23 discriminator 1
  51 0010 3B68     		ldr	r3, [r7]
  52 0012 002B     		cmp	r3, #0
  53 0014 01D1     		bne	.L3
  54              	.L2:
 155:Drivers/STM32G4xx_HAL_Driver/Src/stm32g4xx_hal_exti.c ****   {
 156:Drivers/STM32G4xx_HAL_Driver/Src/stm32g4xx_hal_exti.c ****     return HAL_ERROR;
  55              		.loc 1 156 12
  56 0016 0123     		movs	r3, #1
  57 0018 B3E0     		b	.L4
  58              	.L3:
 157:Drivers/STM32G4xx_HAL_Driver/Src/stm32g4xx_hal_exti.c ****   }
 158:Drivers/STM32G4xx_HAL_Driver/Src/stm32g4xx_hal_exti.c **** 
 159:Drivers/STM32G4xx_HAL_Driver/Src/stm32g4xx_hal_exti.c ****   /* Check parameters */
 160:Drivers/STM32G4xx_HAL_Driver/Src/stm32g4xx_hal_exti.c ****   assert_param(IS_EXTI_LINE(pExtiConfig->Line));
 161:Drivers/STM32G4xx_HAL_Driver/Src/stm32g4xx_hal_exti.c ****   assert_param(IS_EXTI_MODE(pExtiConfig->Mode));
 162:Drivers/STM32G4xx_HAL_Driver/Src/stm32g4xx_hal_exti.c **** 
 163:Drivers/STM32G4xx_HAL_Driver/Src/stm32g4xx_hal_exti.c ****   /* Assign line number to handle */
 164:Drivers/STM32G4xx_HAL_Driver/Src/stm32g4xx_hal_exti.c ****   hexti->Line = pExtiConfig->Line;
  59              		.loc 1 164 28
  60 001a 3B68     		ldr	r3, [r7]
  61 001c 1A68     		ldr	r2, [r3]
  62              		.loc 1 164 15
  63 001e 7B68     		ldr	r3, [r7, #4]
  64 0020 1A60     		str	r2, [r3]
 165:Drivers/STM32G4xx_HAL_Driver/Src/stm32g4xx_hal_exti.c **** 
ARM GAS  /tmp/ccMg6edV.s 			page 5


 166:Drivers/STM32G4xx_HAL_Driver/Src/stm32g4xx_hal_exti.c ****   /* Compute line register offset */
 167:Drivers/STM32G4xx_HAL_Driver/Src/stm32g4xx_hal_exti.c ****   offset = ((pExtiConfig->Line & EXTI_REG_MASK) >> EXTI_REG_SHIFT);
  65              		.loc 1 167 25
  66 0022 3B68     		ldr	r3, [r7]
  67 0024 1B68     		ldr	r3, [r3]
  68              		.loc 1 167 49
  69 0026 1B0C     		lsrs	r3, r3, #16
  70              		.loc 1 167 10
  71 0028 03F00103 		and	r3, r3, #1
  72 002c BB61     		str	r3, [r7, #24]
 168:Drivers/STM32G4xx_HAL_Driver/Src/stm32g4xx_hal_exti.c ****   /* Compute line position */
 169:Drivers/STM32G4xx_HAL_Driver/Src/stm32g4xx_hal_exti.c ****   linepos = (pExtiConfig->Line & EXTI_PIN_MASK);
  73              		.loc 1 169 25
  74 002e 3B68     		ldr	r3, [r7]
  75 0030 1B68     		ldr	r3, [r3]
  76              		.loc 1 169 11
  77 0032 03F01F03 		and	r3, r3, #31
  78 0036 7B61     		str	r3, [r7, #20]
 170:Drivers/STM32G4xx_HAL_Driver/Src/stm32g4xx_hal_exti.c ****   /* Compute line mask */
 171:Drivers/STM32G4xx_HAL_Driver/Src/stm32g4xx_hal_exti.c ****   maskline = (1uL << linepos);
  79              		.loc 1 171 12
  80 0038 0122     		movs	r2, #1
  81 003a 7B69     		ldr	r3, [r7, #20]
  82 003c 02FA03F3 		lsl	r3, r2, r3
  83 0040 3B61     		str	r3, [r7, #16]
 172:Drivers/STM32G4xx_HAL_Driver/Src/stm32g4xx_hal_exti.c **** 
 173:Drivers/STM32G4xx_HAL_Driver/Src/stm32g4xx_hal_exti.c ****   /* Configure triggers for configurable lines */
 174:Drivers/STM32G4xx_HAL_Driver/Src/stm32g4xx_hal_exti.c ****   if ((pExtiConfig->Line & EXTI_CONFIG) != 0x00u)
  84              		.loc 1 174 19
  85 0042 3B68     		ldr	r3, [r7]
  86 0044 1B68     		ldr	r3, [r3]
  87              		.loc 1 174 26
  88 0046 03F00073 		and	r3, r3, #33554432
  89              		.loc 1 174 6
  90 004a 002B     		cmp	r3, #0
  91 004c 60D0     		beq	.L5
 175:Drivers/STM32G4xx_HAL_Driver/Src/stm32g4xx_hal_exti.c ****   {
 176:Drivers/STM32G4xx_HAL_Driver/Src/stm32g4xx_hal_exti.c ****     assert_param(IS_EXTI_TRIGGER(pExtiConfig->Trigger));
 177:Drivers/STM32G4xx_HAL_Driver/Src/stm32g4xx_hal_exti.c **** 
 178:Drivers/STM32G4xx_HAL_Driver/Src/stm32g4xx_hal_exti.c ****     /* Configure rising trigger */
 179:Drivers/STM32G4xx_HAL_Driver/Src/stm32g4xx_hal_exti.c ****     regaddr = (&EXTI->RTSR1 + (EXTI_CONFIG_OFFSET * offset));
  92              		.loc 1 179 29
  93 004e BB69     		ldr	r3, [r7, #24]
  94 0050 5A01     		lsls	r2, r3, #5
  95              		.loc 1 179 13
  96 0052 4F4B     		ldr	r3, .L14
  97 0054 1344     		add	r3, r3, r2
  98 0056 FB60     		str	r3, [r7, #12]
 180:Drivers/STM32G4xx_HAL_Driver/Src/stm32g4xx_hal_exti.c ****     regval = *regaddr;
  99              		.loc 1 180 12
 100 0058 FB68     		ldr	r3, [r7, #12]
 101 005a 1B68     		ldr	r3, [r3]
 102 005c FB61     		str	r3, [r7, #28]
 181:Drivers/STM32G4xx_HAL_Driver/Src/stm32g4xx_hal_exti.c **** 
 182:Drivers/STM32G4xx_HAL_Driver/Src/stm32g4xx_hal_exti.c ****     /* Mask or set line */
 183:Drivers/STM32G4xx_HAL_Driver/Src/stm32g4xx_hal_exti.c ****     if ((pExtiConfig->Trigger & EXTI_TRIGGER_RISING) != 0x00u)
 103              		.loc 1 183 21
ARM GAS  /tmp/ccMg6edV.s 			page 6


 104 005e 3B68     		ldr	r3, [r7]
 105 0060 9B68     		ldr	r3, [r3, #8]
 106              		.loc 1 183 31
 107 0062 03F00103 		and	r3, r3, #1
 108              		.loc 1 183 8
 109 0066 002B     		cmp	r3, #0
 110 0068 04D0     		beq	.L6
 184:Drivers/STM32G4xx_HAL_Driver/Src/stm32g4xx_hal_exti.c ****     {
 185:Drivers/STM32G4xx_HAL_Driver/Src/stm32g4xx_hal_exti.c ****       regval |= maskline;
 111              		.loc 1 185 14
 112 006a FA69     		ldr	r2, [r7, #28]
 113 006c 3B69     		ldr	r3, [r7, #16]
 114 006e 1343     		orrs	r3, r3, r2
 115 0070 FB61     		str	r3, [r7, #28]
 116 0072 04E0     		b	.L7
 117              	.L6:
 186:Drivers/STM32G4xx_HAL_Driver/Src/stm32g4xx_hal_exti.c ****     }
 187:Drivers/STM32G4xx_HAL_Driver/Src/stm32g4xx_hal_exti.c ****     else
 188:Drivers/STM32G4xx_HAL_Driver/Src/stm32g4xx_hal_exti.c ****     {
 189:Drivers/STM32G4xx_HAL_Driver/Src/stm32g4xx_hal_exti.c ****       regval &= ~maskline;
 118              		.loc 1 189 17
 119 0074 3B69     		ldr	r3, [r7, #16]
 120 0076 DB43     		mvns	r3, r3
 121              		.loc 1 189 14
 122 0078 FA69     		ldr	r2, [r7, #28]
 123 007a 1340     		ands	r3, r3, r2
 124 007c FB61     		str	r3, [r7, #28]
 125              	.L7:
 190:Drivers/STM32G4xx_HAL_Driver/Src/stm32g4xx_hal_exti.c ****     }
 191:Drivers/STM32G4xx_HAL_Driver/Src/stm32g4xx_hal_exti.c **** 
 192:Drivers/STM32G4xx_HAL_Driver/Src/stm32g4xx_hal_exti.c ****     /* Store rising trigger mode */
 193:Drivers/STM32G4xx_HAL_Driver/Src/stm32g4xx_hal_exti.c ****     *regaddr = regval;
 126              		.loc 1 193 14
 127 007e FB68     		ldr	r3, [r7, #12]
 128 0080 FA69     		ldr	r2, [r7, #28]
 129 0082 1A60     		str	r2, [r3]
 194:Drivers/STM32G4xx_HAL_Driver/Src/stm32g4xx_hal_exti.c **** 
 195:Drivers/STM32G4xx_HAL_Driver/Src/stm32g4xx_hal_exti.c ****     /* Configure falling trigger */
 196:Drivers/STM32G4xx_HAL_Driver/Src/stm32g4xx_hal_exti.c ****     regaddr = (&EXTI->FTSR1 + (EXTI_CONFIG_OFFSET * offset));
 130              		.loc 1 196 29
 131 0084 BB69     		ldr	r3, [r7, #24]
 132 0086 5A01     		lsls	r2, r3, #5
 133              		.loc 1 196 13
 134 0088 424B     		ldr	r3, .L14+4
 135 008a 1344     		add	r3, r3, r2
 136 008c FB60     		str	r3, [r7, #12]
 197:Drivers/STM32G4xx_HAL_Driver/Src/stm32g4xx_hal_exti.c ****     regval = *regaddr;
 137              		.loc 1 197 12
 138 008e FB68     		ldr	r3, [r7, #12]
 139 0090 1B68     		ldr	r3, [r3]
 140 0092 FB61     		str	r3, [r7, #28]
 198:Drivers/STM32G4xx_HAL_Driver/Src/stm32g4xx_hal_exti.c **** 
 199:Drivers/STM32G4xx_HAL_Driver/Src/stm32g4xx_hal_exti.c ****     /* Mask or set line */
 200:Drivers/STM32G4xx_HAL_Driver/Src/stm32g4xx_hal_exti.c ****     if ((pExtiConfig->Trigger & EXTI_TRIGGER_FALLING) != 0x00u)
 141              		.loc 1 200 21
 142 0094 3B68     		ldr	r3, [r7]
 143 0096 9B68     		ldr	r3, [r3, #8]
ARM GAS  /tmp/ccMg6edV.s 			page 7


 144              		.loc 1 200 31
 145 0098 03F00203 		and	r3, r3, #2
 146              		.loc 1 200 8
 147 009c 002B     		cmp	r3, #0
 148 009e 04D0     		beq	.L8
 201:Drivers/STM32G4xx_HAL_Driver/Src/stm32g4xx_hal_exti.c ****     {
 202:Drivers/STM32G4xx_HAL_Driver/Src/stm32g4xx_hal_exti.c ****       regval |= maskline;
 149              		.loc 1 202 14
 150 00a0 FA69     		ldr	r2, [r7, #28]
 151 00a2 3B69     		ldr	r3, [r7, #16]
 152 00a4 1343     		orrs	r3, r3, r2
 153 00a6 FB61     		str	r3, [r7, #28]
 154 00a8 04E0     		b	.L9
 155              	.L8:
 203:Drivers/STM32G4xx_HAL_Driver/Src/stm32g4xx_hal_exti.c ****     }
 204:Drivers/STM32G4xx_HAL_Driver/Src/stm32g4xx_hal_exti.c ****     else
 205:Drivers/STM32G4xx_HAL_Driver/Src/stm32g4xx_hal_exti.c ****     {
 206:Drivers/STM32G4xx_HAL_Driver/Src/stm32g4xx_hal_exti.c ****       regval &= ~maskline;
 156              		.loc 1 206 17
 157 00aa 3B69     		ldr	r3, [r7, #16]
 158 00ac DB43     		mvns	r3, r3
 159              		.loc 1 206 14
 160 00ae FA69     		ldr	r2, [r7, #28]
 161 00b0 1340     		ands	r3, r3, r2
 162 00b2 FB61     		str	r3, [r7, #28]
 163              	.L9:
 207:Drivers/STM32G4xx_HAL_Driver/Src/stm32g4xx_hal_exti.c ****     }
 208:Drivers/STM32G4xx_HAL_Driver/Src/stm32g4xx_hal_exti.c **** 
 209:Drivers/STM32G4xx_HAL_Driver/Src/stm32g4xx_hal_exti.c ****     /* Store falling trigger mode */
 210:Drivers/STM32G4xx_HAL_Driver/Src/stm32g4xx_hal_exti.c ****     *regaddr = regval;
 164              		.loc 1 210 14
 165 00b4 FB68     		ldr	r3, [r7, #12]
 166 00b6 FA69     		ldr	r2, [r7, #28]
 167 00b8 1A60     		str	r2, [r3]
 211:Drivers/STM32G4xx_HAL_Driver/Src/stm32g4xx_hal_exti.c **** 
 212:Drivers/STM32G4xx_HAL_Driver/Src/stm32g4xx_hal_exti.c ****     /* Configure gpio port selection in case of gpio exti line */
 213:Drivers/STM32G4xx_HAL_Driver/Src/stm32g4xx_hal_exti.c ****     if ((pExtiConfig->Line & EXTI_GPIO) == EXTI_GPIO)
 168              		.loc 1 213 21
 169 00ba 3B68     		ldr	r3, [r7]
 170 00bc 1B68     		ldr	r3, [r3]
 171              		.loc 1 213 28
 172 00be 03F0C063 		and	r3, r3, #100663296
 173              		.loc 1 213 8
 174 00c2 B3F1C06F 		cmp	r3, #100663296
 175 00c6 23D1     		bne	.L5
 214:Drivers/STM32G4xx_HAL_Driver/Src/stm32g4xx_hal_exti.c ****     {
 215:Drivers/STM32G4xx_HAL_Driver/Src/stm32g4xx_hal_exti.c ****       assert_param(IS_EXTI_GPIO_PORT(pExtiConfig->GPIOSel));
 216:Drivers/STM32G4xx_HAL_Driver/Src/stm32g4xx_hal_exti.c ****       assert_param(IS_EXTI_GPIO_PIN(linepos));
 217:Drivers/STM32G4xx_HAL_Driver/Src/stm32g4xx_hal_exti.c **** 
 218:Drivers/STM32G4xx_HAL_Driver/Src/stm32g4xx_hal_exti.c ****       regval = SYSCFG->EXTICR[linepos >> 2u];
 176              		.loc 1 218 22
 177 00c8 334A     		ldr	r2, .L14+8
 178              		.loc 1 218 39
 179 00ca 7B69     		ldr	r3, [r7, #20]
 180 00cc 9B08     		lsrs	r3, r3, #2
 181              		.loc 1 218 14
 182 00ce 0233     		adds	r3, r3, #2
ARM GAS  /tmp/ccMg6edV.s 			page 8


 183 00d0 52F82330 		ldr	r3, [r2, r3, lsl #2]
 184 00d4 FB61     		str	r3, [r7, #28]
 219:Drivers/STM32G4xx_HAL_Driver/Src/stm32g4xx_hal_exti.c ****       regval &= ~(SYSCFG_EXTICR1_EXTI0 << (SYSCFG_EXTICR1_EXTI1_Pos * (linepos & 0x03u)));
 185              		.loc 1 219 80
 186 00d6 7B69     		ldr	r3, [r7, #20]
 187 00d8 03F00303 		and	r3, r3, #3
 188              		.loc 1 219 69
 189 00dc 9B00     		lsls	r3, r3, #2
 190              		.loc 1 219 40
 191 00de 0722     		movs	r2, #7
 192 00e0 02FA03F3 		lsl	r3, r2, r3
 193              		.loc 1 219 17
 194 00e4 DB43     		mvns	r3, r3
 195              		.loc 1 219 14
 196 00e6 FA69     		ldr	r2, [r7, #28]
 197 00e8 1340     		ands	r3, r3, r2
 198 00ea FB61     		str	r3, [r7, #28]
 220:Drivers/STM32G4xx_HAL_Driver/Src/stm32g4xx_hal_exti.c ****       regval |= (pExtiConfig->GPIOSel << (SYSCFG_EXTICR1_EXTI1_Pos * (linepos & 0x03u)));
 199              		.loc 1 220 29
 200 00ec 3B68     		ldr	r3, [r7]
 201 00ee DA68     		ldr	r2, [r3, #12]
 202              		.loc 1 220 79
 203 00f0 7B69     		ldr	r3, [r7, #20]
 204 00f2 03F00303 		and	r3, r3, #3
 205              		.loc 1 220 68
 206 00f6 9B00     		lsls	r3, r3, #2
 207              		.loc 1 220 39
 208 00f8 02FA03F3 		lsl	r3, r2, r3
 209              		.loc 1 220 14
 210 00fc FA69     		ldr	r2, [r7, #28]
 211 00fe 1343     		orrs	r3, r3, r2
 212 0100 FB61     		str	r3, [r7, #28]
 221:Drivers/STM32G4xx_HAL_Driver/Src/stm32g4xx_hal_exti.c ****       SYSCFG->EXTICR[linepos >> 2u] = regval;
 213              		.loc 1 221 13
 214 0102 2549     		ldr	r1, .L14+8
 215              		.loc 1 221 30
 216 0104 7B69     		ldr	r3, [r7, #20]
 217 0106 9B08     		lsrs	r3, r3, #2
 218              		.loc 1 221 37
 219 0108 0233     		adds	r3, r3, #2
 220 010a FA69     		ldr	r2, [r7, #28]
 221 010c 41F82320 		str	r2, [r1, r3, lsl #2]
 222              	.L5:
 222:Drivers/STM32G4xx_HAL_Driver/Src/stm32g4xx_hal_exti.c ****     }
 223:Drivers/STM32G4xx_HAL_Driver/Src/stm32g4xx_hal_exti.c ****   }
 224:Drivers/STM32G4xx_HAL_Driver/Src/stm32g4xx_hal_exti.c **** 
 225:Drivers/STM32G4xx_HAL_Driver/Src/stm32g4xx_hal_exti.c ****   /* Configure interrupt mode : read current mode */
 226:Drivers/STM32G4xx_HAL_Driver/Src/stm32g4xx_hal_exti.c ****   regaddr = (&EXTI->IMR1 + (EXTI_MODE_OFFSET * offset));
 223              		.loc 1 226 26
 224 0110 BB69     		ldr	r3, [r7, #24]
 225 0112 5B01     		lsls	r3, r3, #5
 226              		.loc 1 226 11
 227 0114 03F18043 		add	r3, r3, #1073741824
 228 0118 03F58233 		add	r3, r3, #66560
 229 011c FB60     		str	r3, [r7, #12]
 227:Drivers/STM32G4xx_HAL_Driver/Src/stm32g4xx_hal_exti.c ****   regval = *regaddr;
 230              		.loc 1 227 10
ARM GAS  /tmp/ccMg6edV.s 			page 9


 231 011e FB68     		ldr	r3, [r7, #12]
 232 0120 1B68     		ldr	r3, [r3]
 233 0122 FB61     		str	r3, [r7, #28]
 228:Drivers/STM32G4xx_HAL_Driver/Src/stm32g4xx_hal_exti.c **** 
 229:Drivers/STM32G4xx_HAL_Driver/Src/stm32g4xx_hal_exti.c ****   /* Mask or set line */
 230:Drivers/STM32G4xx_HAL_Driver/Src/stm32g4xx_hal_exti.c ****   if ((pExtiConfig->Mode & EXTI_MODE_INTERRUPT) != 0x00u)
 234              		.loc 1 230 19
 235 0124 3B68     		ldr	r3, [r7]
 236 0126 5B68     		ldr	r3, [r3, #4]
 237              		.loc 1 230 26
 238 0128 03F00103 		and	r3, r3, #1
 239              		.loc 1 230 6
 240 012c 002B     		cmp	r3, #0
 241 012e 04D0     		beq	.L10
 231:Drivers/STM32G4xx_HAL_Driver/Src/stm32g4xx_hal_exti.c ****   {
 232:Drivers/STM32G4xx_HAL_Driver/Src/stm32g4xx_hal_exti.c ****     regval |= maskline;
 242              		.loc 1 232 12
 243 0130 FA69     		ldr	r2, [r7, #28]
 244 0132 3B69     		ldr	r3, [r7, #16]
 245 0134 1343     		orrs	r3, r3, r2
 246 0136 FB61     		str	r3, [r7, #28]
 247 0138 04E0     		b	.L11
 248              	.L10:
 233:Drivers/STM32G4xx_HAL_Driver/Src/stm32g4xx_hal_exti.c ****   }
 234:Drivers/STM32G4xx_HAL_Driver/Src/stm32g4xx_hal_exti.c ****   else
 235:Drivers/STM32G4xx_HAL_Driver/Src/stm32g4xx_hal_exti.c ****   {
 236:Drivers/STM32G4xx_HAL_Driver/Src/stm32g4xx_hal_exti.c ****     regval &= ~maskline;
 249              		.loc 1 236 15
 250 013a 3B69     		ldr	r3, [r7, #16]
 251 013c DB43     		mvns	r3, r3
 252              		.loc 1 236 12
 253 013e FA69     		ldr	r2, [r7, #28]
 254 0140 1340     		ands	r3, r3, r2
 255 0142 FB61     		str	r3, [r7, #28]
 256              	.L11:
 237:Drivers/STM32G4xx_HAL_Driver/Src/stm32g4xx_hal_exti.c ****   }
 238:Drivers/STM32G4xx_HAL_Driver/Src/stm32g4xx_hal_exti.c **** 
 239:Drivers/STM32G4xx_HAL_Driver/Src/stm32g4xx_hal_exti.c ****   /* Store interrupt mode */
 240:Drivers/STM32G4xx_HAL_Driver/Src/stm32g4xx_hal_exti.c ****   *regaddr = regval;
 257              		.loc 1 240 12
 258 0144 FB68     		ldr	r3, [r7, #12]
 259 0146 FA69     		ldr	r2, [r7, #28]
 260 0148 1A60     		str	r2, [r3]
 241:Drivers/STM32G4xx_HAL_Driver/Src/stm32g4xx_hal_exti.c **** 
 242:Drivers/STM32G4xx_HAL_Driver/Src/stm32g4xx_hal_exti.c ****   /* Configure event mode : read current mode */
 243:Drivers/STM32G4xx_HAL_Driver/Src/stm32g4xx_hal_exti.c ****   regaddr = (&EXTI->EMR1 + (EXTI_MODE_OFFSET * offset));
 261              		.loc 1 243 26
 262 014a BB69     		ldr	r3, [r7, #24]
 263 014c 5A01     		lsls	r2, r3, #5
 264              		.loc 1 243 11
 265 014e 134B     		ldr	r3, .L14+12
 266 0150 1344     		add	r3, r3, r2
 267 0152 FB60     		str	r3, [r7, #12]
 244:Drivers/STM32G4xx_HAL_Driver/Src/stm32g4xx_hal_exti.c ****   regval = *regaddr;
 268              		.loc 1 244 10
 269 0154 FB68     		ldr	r3, [r7, #12]
 270 0156 1B68     		ldr	r3, [r3]
ARM GAS  /tmp/ccMg6edV.s 			page 10


 271 0158 FB61     		str	r3, [r7, #28]
 245:Drivers/STM32G4xx_HAL_Driver/Src/stm32g4xx_hal_exti.c **** 
 246:Drivers/STM32G4xx_HAL_Driver/Src/stm32g4xx_hal_exti.c ****   /* Mask or set line */
 247:Drivers/STM32G4xx_HAL_Driver/Src/stm32g4xx_hal_exti.c ****   if ((pExtiConfig->Mode & EXTI_MODE_EVENT) != 0x00u)
 272              		.loc 1 247 19
 273 015a 3B68     		ldr	r3, [r7]
 274 015c 5B68     		ldr	r3, [r3, #4]
 275              		.loc 1 247 26
 276 015e 03F00203 		and	r3, r3, #2
 277              		.loc 1 247 6
 278 0162 002B     		cmp	r3, #0
 279 0164 04D0     		beq	.L12
 248:Drivers/STM32G4xx_HAL_Driver/Src/stm32g4xx_hal_exti.c ****   {
 249:Drivers/STM32G4xx_HAL_Driver/Src/stm32g4xx_hal_exti.c ****     regval |= maskline;
 280              		.loc 1 249 12
 281 0166 FA69     		ldr	r2, [r7, #28]
 282 0168 3B69     		ldr	r3, [r7, #16]
 283 016a 1343     		orrs	r3, r3, r2
 284 016c FB61     		str	r3, [r7, #28]
 285 016e 04E0     		b	.L13
 286              	.L12:
 250:Drivers/STM32G4xx_HAL_Driver/Src/stm32g4xx_hal_exti.c ****   }
 251:Drivers/STM32G4xx_HAL_Driver/Src/stm32g4xx_hal_exti.c ****   else
 252:Drivers/STM32G4xx_HAL_Driver/Src/stm32g4xx_hal_exti.c ****   {
 253:Drivers/STM32G4xx_HAL_Driver/Src/stm32g4xx_hal_exti.c ****     regval &= ~maskline;
 287              		.loc 1 253 15
 288 0170 3B69     		ldr	r3, [r7, #16]
 289 0172 DB43     		mvns	r3, r3
 290              		.loc 1 253 12
 291 0174 FA69     		ldr	r2, [r7, #28]
 292 0176 1340     		ands	r3, r3, r2
 293 0178 FB61     		str	r3, [r7, #28]
 294              	.L13:
 254:Drivers/STM32G4xx_HAL_Driver/Src/stm32g4xx_hal_exti.c ****   }
 255:Drivers/STM32G4xx_HAL_Driver/Src/stm32g4xx_hal_exti.c **** 
 256:Drivers/STM32G4xx_HAL_Driver/Src/stm32g4xx_hal_exti.c ****   /* Store event mode */
 257:Drivers/STM32G4xx_HAL_Driver/Src/stm32g4xx_hal_exti.c ****   *regaddr = regval;
 295              		.loc 1 257 12
 296 017a FB68     		ldr	r3, [r7, #12]
 297 017c FA69     		ldr	r2, [r7, #28]
 298 017e 1A60     		str	r2, [r3]
 258:Drivers/STM32G4xx_HAL_Driver/Src/stm32g4xx_hal_exti.c **** 
 259:Drivers/STM32G4xx_HAL_Driver/Src/stm32g4xx_hal_exti.c ****   return HAL_OK;
 299              		.loc 1 259 10
 300 0180 0023     		movs	r3, #0
 301              	.L4:
 260:Drivers/STM32G4xx_HAL_Driver/Src/stm32g4xx_hal_exti.c **** }
 302              		.loc 1 260 1
 303 0182 1846     		mov	r0, r3
 304 0184 2437     		adds	r7, r7, #36
 305              	.LCFI3:
 306              		.cfi_def_cfa_offset 4
 307 0186 BD46     		mov	sp, r7
 308              	.LCFI4:
 309              		.cfi_def_cfa_register 13
 310              		@ sp needed
 311 0188 5DF8047B 		ldr	r7, [sp], #4
ARM GAS  /tmp/ccMg6edV.s 			page 11


 312              	.LCFI5:
 313              		.cfi_restore 7
 314              		.cfi_def_cfa_offset 0
 315 018c 7047     		bx	lr
 316              	.L15:
 317 018e 00BF     		.align	2
 318              	.L14:
 319 0190 08040140 		.word	1073808392
 320 0194 0C040140 		.word	1073808396
 321 0198 00000140 		.word	1073807360
 322 019c 04040140 		.word	1073808388
 323              		.cfi_endproc
 324              	.LFE325:
 326              		.section	.text.HAL_EXTI_GetConfigLine,"ax",%progbits
 327              		.align	1
 328              		.global	HAL_EXTI_GetConfigLine
 329              		.syntax unified
 330              		.thumb
 331              		.thumb_func
 332              		.fpu fpv4-sp-d16
 334              	HAL_EXTI_GetConfigLine:
 335              	.LFB326:
 261:Drivers/STM32G4xx_HAL_Driver/Src/stm32g4xx_hal_exti.c **** 
 262:Drivers/STM32G4xx_HAL_Driver/Src/stm32g4xx_hal_exti.c **** 
 263:Drivers/STM32G4xx_HAL_Driver/Src/stm32g4xx_hal_exti.c **** /**
 264:Drivers/STM32G4xx_HAL_Driver/Src/stm32g4xx_hal_exti.c ****   * @brief  Get configuration of a dedicated Exti line.
 265:Drivers/STM32G4xx_HAL_Driver/Src/stm32g4xx_hal_exti.c ****   * @param  hexti Exti handle.
 266:Drivers/STM32G4xx_HAL_Driver/Src/stm32g4xx_hal_exti.c ****   * @param  pExtiConfig Pointer on structure to store Exti configuration.
 267:Drivers/STM32G4xx_HAL_Driver/Src/stm32g4xx_hal_exti.c ****   * @retval HAL Status.
 268:Drivers/STM32G4xx_HAL_Driver/Src/stm32g4xx_hal_exti.c ****   */
 269:Drivers/STM32G4xx_HAL_Driver/Src/stm32g4xx_hal_exti.c **** HAL_StatusTypeDef HAL_EXTI_GetConfigLine(EXTI_HandleTypeDef *hexti, EXTI_ConfigTypeDef *pExtiConfig
 270:Drivers/STM32G4xx_HAL_Driver/Src/stm32g4xx_hal_exti.c **** {
 336              		.loc 1 270 1
 337              		.cfi_startproc
 338              		@ args = 0, pretend = 0, frame = 32
 339              		@ frame_needed = 1, uses_anonymous_args = 0
 340              		@ link register save eliminated.
 341 0000 80B4     		push	{r7}
 342              	.LCFI6:
 343              		.cfi_def_cfa_offset 4
 344              		.cfi_offset 7, -4
 345 0002 89B0     		sub	sp, sp, #36
 346              	.LCFI7:
 347              		.cfi_def_cfa_offset 40
 348 0004 00AF     		add	r7, sp, #0
 349              	.LCFI8:
 350              		.cfi_def_cfa_register 7
 351 0006 7860     		str	r0, [r7, #4]
 352 0008 3960     		str	r1, [r7]
 271:Drivers/STM32G4xx_HAL_Driver/Src/stm32g4xx_hal_exti.c ****   __IO uint32_t *regaddr;
 272:Drivers/STM32G4xx_HAL_Driver/Src/stm32g4xx_hal_exti.c ****   uint32_t regval;
 273:Drivers/STM32G4xx_HAL_Driver/Src/stm32g4xx_hal_exti.c ****   uint32_t linepos;
 274:Drivers/STM32G4xx_HAL_Driver/Src/stm32g4xx_hal_exti.c ****   uint32_t maskline;
 275:Drivers/STM32G4xx_HAL_Driver/Src/stm32g4xx_hal_exti.c ****   uint32_t offset;
 276:Drivers/STM32G4xx_HAL_Driver/Src/stm32g4xx_hal_exti.c **** 
 277:Drivers/STM32G4xx_HAL_Driver/Src/stm32g4xx_hal_exti.c ****   /* Check null pointer */
 278:Drivers/STM32G4xx_HAL_Driver/Src/stm32g4xx_hal_exti.c ****   if ((hexti == NULL) || (pExtiConfig == NULL))
ARM GAS  /tmp/ccMg6edV.s 			page 12


 353              		.loc 1 278 6
 354 000a 7B68     		ldr	r3, [r7, #4]
 355 000c 002B     		cmp	r3, #0
 356 000e 02D0     		beq	.L17
 357              		.loc 1 278 23 discriminator 1
 358 0010 3B68     		ldr	r3, [r7]
 359 0012 002B     		cmp	r3, #0
 360 0014 01D1     		bne	.L18
 361              	.L17:
 279:Drivers/STM32G4xx_HAL_Driver/Src/stm32g4xx_hal_exti.c ****   {
 280:Drivers/STM32G4xx_HAL_Driver/Src/stm32g4xx_hal_exti.c ****     return HAL_ERROR;
 362              		.loc 1 280 12
 363 0016 0123     		movs	r3, #1
 364 0018 8BE0     		b	.L19
 365              	.L18:
 281:Drivers/STM32G4xx_HAL_Driver/Src/stm32g4xx_hal_exti.c ****   }
 282:Drivers/STM32G4xx_HAL_Driver/Src/stm32g4xx_hal_exti.c **** 
 283:Drivers/STM32G4xx_HAL_Driver/Src/stm32g4xx_hal_exti.c ****   /* Check the parameter */
 284:Drivers/STM32G4xx_HAL_Driver/Src/stm32g4xx_hal_exti.c ****   assert_param(IS_EXTI_LINE(hexti->Line));
 285:Drivers/STM32G4xx_HAL_Driver/Src/stm32g4xx_hal_exti.c **** 
 286:Drivers/STM32G4xx_HAL_Driver/Src/stm32g4xx_hal_exti.c ****   /* Store handle line number to configuration structure */
 287:Drivers/STM32G4xx_HAL_Driver/Src/stm32g4xx_hal_exti.c ****   pExtiConfig->Line = hexti->Line;
 366              		.loc 1 287 28
 367 001a 7B68     		ldr	r3, [r7, #4]
 368 001c 1A68     		ldr	r2, [r3]
 369              		.loc 1 287 21
 370 001e 3B68     		ldr	r3, [r7]
 371 0020 1A60     		str	r2, [r3]
 288:Drivers/STM32G4xx_HAL_Driver/Src/stm32g4xx_hal_exti.c **** 
 289:Drivers/STM32G4xx_HAL_Driver/Src/stm32g4xx_hal_exti.c ****   /* Compute line register offset and line mask */
 290:Drivers/STM32G4xx_HAL_Driver/Src/stm32g4xx_hal_exti.c ****   offset = ((pExtiConfig->Line & EXTI_REG_MASK) >> EXTI_REG_SHIFT);
 372              		.loc 1 290 25
 373 0022 3B68     		ldr	r3, [r7]
 374 0024 1B68     		ldr	r3, [r3]
 375              		.loc 1 290 49
 376 0026 1B0C     		lsrs	r3, r3, #16
 377              		.loc 1 290 10
 378 0028 03F00103 		and	r3, r3, #1
 379 002c FB61     		str	r3, [r7, #28]
 291:Drivers/STM32G4xx_HAL_Driver/Src/stm32g4xx_hal_exti.c ****   /* Compute line position */
 292:Drivers/STM32G4xx_HAL_Driver/Src/stm32g4xx_hal_exti.c ****   linepos = (pExtiConfig->Line & EXTI_PIN_MASK);
 380              		.loc 1 292 25
 381 002e 3B68     		ldr	r3, [r7]
 382 0030 1B68     		ldr	r3, [r3]
 383              		.loc 1 292 11
 384 0032 03F01F03 		and	r3, r3, #31
 385 0036 BB61     		str	r3, [r7, #24]
 293:Drivers/STM32G4xx_HAL_Driver/Src/stm32g4xx_hal_exti.c ****   /* Compute mask */
 294:Drivers/STM32G4xx_HAL_Driver/Src/stm32g4xx_hal_exti.c ****   maskline = (1uL << linepos);
 386              		.loc 1 294 12
 387 0038 0122     		movs	r2, #1
 388 003a BB69     		ldr	r3, [r7, #24]
 389 003c 02FA03F3 		lsl	r3, r2, r3
 390 0040 7B61     		str	r3, [r7, #20]
 295:Drivers/STM32G4xx_HAL_Driver/Src/stm32g4xx_hal_exti.c **** 
 296:Drivers/STM32G4xx_HAL_Driver/Src/stm32g4xx_hal_exti.c ****   /* 1] Get core mode : interrupt */
 297:Drivers/STM32G4xx_HAL_Driver/Src/stm32g4xx_hal_exti.c ****   regaddr = (&EXTI->IMR1 + (EXTI_MODE_OFFSET * offset));
ARM GAS  /tmp/ccMg6edV.s 			page 13


 391              		.loc 1 297 26
 392 0042 FB69     		ldr	r3, [r7, #28]
 393 0044 5B01     		lsls	r3, r3, #5
 394              		.loc 1 297 11
 395 0046 03F18043 		add	r3, r3, #1073741824
 396 004a 03F58233 		add	r3, r3, #66560
 397 004e 3B61     		str	r3, [r7, #16]
 298:Drivers/STM32G4xx_HAL_Driver/Src/stm32g4xx_hal_exti.c ****   regval = *regaddr;
 398              		.loc 1 298 10
 399 0050 3B69     		ldr	r3, [r7, #16]
 400 0052 1B68     		ldr	r3, [r3]
 401 0054 FB60     		str	r3, [r7, #12]
 299:Drivers/STM32G4xx_HAL_Driver/Src/stm32g4xx_hal_exti.c **** 
 300:Drivers/STM32G4xx_HAL_Driver/Src/stm32g4xx_hal_exti.c ****   /* Check if selected line is enable */
 301:Drivers/STM32G4xx_HAL_Driver/Src/stm32g4xx_hal_exti.c ****   if ((regval & maskline) != 0x00u)
 402              		.loc 1 301 15
 403 0056 FA68     		ldr	r2, [r7, #12]
 404 0058 7B69     		ldr	r3, [r7, #20]
 405 005a 1340     		ands	r3, r3, r2
 406              		.loc 1 301 6
 407 005c 002B     		cmp	r3, #0
 408 005e 03D0     		beq	.L20
 302:Drivers/STM32G4xx_HAL_Driver/Src/stm32g4xx_hal_exti.c ****   {
 303:Drivers/STM32G4xx_HAL_Driver/Src/stm32g4xx_hal_exti.c ****     pExtiConfig->Mode = EXTI_MODE_INTERRUPT;
 409              		.loc 1 303 23
 410 0060 3B68     		ldr	r3, [r7]
 411 0062 0122     		movs	r2, #1
 412 0064 5A60     		str	r2, [r3, #4]
 413 0066 02E0     		b	.L21
 414              	.L20:
 304:Drivers/STM32G4xx_HAL_Driver/Src/stm32g4xx_hal_exti.c ****   }
 305:Drivers/STM32G4xx_HAL_Driver/Src/stm32g4xx_hal_exti.c ****   else
 306:Drivers/STM32G4xx_HAL_Driver/Src/stm32g4xx_hal_exti.c ****   {
 307:Drivers/STM32G4xx_HAL_Driver/Src/stm32g4xx_hal_exti.c ****     pExtiConfig->Mode = EXTI_MODE_NONE;
 415              		.loc 1 307 23
 416 0068 3B68     		ldr	r3, [r7]
 417 006a 0022     		movs	r2, #0
 418 006c 5A60     		str	r2, [r3, #4]
 419              	.L21:
 308:Drivers/STM32G4xx_HAL_Driver/Src/stm32g4xx_hal_exti.c ****   }
 309:Drivers/STM32G4xx_HAL_Driver/Src/stm32g4xx_hal_exti.c **** 
 310:Drivers/STM32G4xx_HAL_Driver/Src/stm32g4xx_hal_exti.c ****   /* Get event mode */
 311:Drivers/STM32G4xx_HAL_Driver/Src/stm32g4xx_hal_exti.c ****   regaddr = (&EXTI->EMR1 + (EXTI_MODE_OFFSET * offset));
 420              		.loc 1 311 26
 421 006e FB69     		ldr	r3, [r7, #28]
 422 0070 5A01     		lsls	r2, r3, #5
 423              		.loc 1 311 11
 424 0072 334B     		ldr	r3, .L30
 425 0074 1344     		add	r3, r3, r2
 426 0076 3B61     		str	r3, [r7, #16]
 312:Drivers/STM32G4xx_HAL_Driver/Src/stm32g4xx_hal_exti.c ****   regval = *regaddr;
 427              		.loc 1 312 10
 428 0078 3B69     		ldr	r3, [r7, #16]
 429 007a 1B68     		ldr	r3, [r3]
 430 007c FB60     		str	r3, [r7, #12]
 313:Drivers/STM32G4xx_HAL_Driver/Src/stm32g4xx_hal_exti.c **** 
 314:Drivers/STM32G4xx_HAL_Driver/Src/stm32g4xx_hal_exti.c ****   /* Check if selected line is enable */
ARM GAS  /tmp/ccMg6edV.s 			page 14


 315:Drivers/STM32G4xx_HAL_Driver/Src/stm32g4xx_hal_exti.c ****   if ((regval & maskline) != 0x00u)
 431              		.loc 1 315 15
 432 007e FA68     		ldr	r2, [r7, #12]
 433 0080 7B69     		ldr	r3, [r7, #20]
 434 0082 1340     		ands	r3, r3, r2
 435              		.loc 1 315 6
 436 0084 002B     		cmp	r3, #0
 437 0086 05D0     		beq	.L22
 316:Drivers/STM32G4xx_HAL_Driver/Src/stm32g4xx_hal_exti.c ****   {
 317:Drivers/STM32G4xx_HAL_Driver/Src/stm32g4xx_hal_exti.c ****     pExtiConfig->Mode |= EXTI_MODE_EVENT;
 438              		.loc 1 317 23
 439 0088 3B68     		ldr	r3, [r7]
 440 008a 5B68     		ldr	r3, [r3, #4]
 441 008c 43F00202 		orr	r2, r3, #2
 442 0090 3B68     		ldr	r3, [r7]
 443 0092 5A60     		str	r2, [r3, #4]
 444              	.L22:
 318:Drivers/STM32G4xx_HAL_Driver/Src/stm32g4xx_hal_exti.c ****   }
 319:Drivers/STM32G4xx_HAL_Driver/Src/stm32g4xx_hal_exti.c **** 
 320:Drivers/STM32G4xx_HAL_Driver/Src/stm32g4xx_hal_exti.c ****   /* 2] Get trigger for configurable lines : rising */
 321:Drivers/STM32G4xx_HAL_Driver/Src/stm32g4xx_hal_exti.c ****   if ((pExtiConfig->Line & EXTI_CONFIG) != 0x00u)
 445              		.loc 1 321 19
 446 0094 3B68     		ldr	r3, [r7]
 447 0096 1B68     		ldr	r3, [r3]
 448              		.loc 1 321 26
 449 0098 03F00073 		and	r3, r3, #33554432
 450              		.loc 1 321 6
 451 009c 002B     		cmp	r3, #0
 452 009e 41D0     		beq	.L23
 322:Drivers/STM32G4xx_HAL_Driver/Src/stm32g4xx_hal_exti.c ****   {
 323:Drivers/STM32G4xx_HAL_Driver/Src/stm32g4xx_hal_exti.c ****     regaddr = (&EXTI->RTSR1 + (EXTI_CONFIG_OFFSET * offset));
 453              		.loc 1 323 29
 454 00a0 FB69     		ldr	r3, [r7, #28]
 455 00a2 5A01     		lsls	r2, r3, #5
 456              		.loc 1 323 13
 457 00a4 274B     		ldr	r3, .L30+4
 458 00a6 1344     		add	r3, r3, r2
 459 00a8 3B61     		str	r3, [r7, #16]
 324:Drivers/STM32G4xx_HAL_Driver/Src/stm32g4xx_hal_exti.c ****     regval = *regaddr;
 460              		.loc 1 324 12
 461 00aa 3B69     		ldr	r3, [r7, #16]
 462 00ac 1B68     		ldr	r3, [r3]
 463 00ae FB60     		str	r3, [r7, #12]
 325:Drivers/STM32G4xx_HAL_Driver/Src/stm32g4xx_hal_exti.c **** 
 326:Drivers/STM32G4xx_HAL_Driver/Src/stm32g4xx_hal_exti.c ****     /* Check if configuration of selected line is enable */
 327:Drivers/STM32G4xx_HAL_Driver/Src/stm32g4xx_hal_exti.c ****     if ((regval & maskline) != 0x00u)
 464              		.loc 1 327 17
 465 00b0 FA68     		ldr	r2, [r7, #12]
 466 00b2 7B69     		ldr	r3, [r7, #20]
 467 00b4 1340     		ands	r3, r3, r2
 468              		.loc 1 327 8
 469 00b6 002B     		cmp	r3, #0
 470 00b8 03D0     		beq	.L24
 328:Drivers/STM32G4xx_HAL_Driver/Src/stm32g4xx_hal_exti.c ****     {
 329:Drivers/STM32G4xx_HAL_Driver/Src/stm32g4xx_hal_exti.c ****       pExtiConfig->Trigger = EXTI_TRIGGER_RISING;
 471              		.loc 1 329 28
 472 00ba 3B68     		ldr	r3, [r7]
ARM GAS  /tmp/ccMg6edV.s 			page 15


 473 00bc 0122     		movs	r2, #1
 474 00be 9A60     		str	r2, [r3, #8]
 475 00c0 02E0     		b	.L25
 476              	.L24:
 330:Drivers/STM32G4xx_HAL_Driver/Src/stm32g4xx_hal_exti.c ****     }
 331:Drivers/STM32G4xx_HAL_Driver/Src/stm32g4xx_hal_exti.c ****     else
 332:Drivers/STM32G4xx_HAL_Driver/Src/stm32g4xx_hal_exti.c ****     {
 333:Drivers/STM32G4xx_HAL_Driver/Src/stm32g4xx_hal_exti.c ****       pExtiConfig->Trigger = EXTI_TRIGGER_NONE;
 477              		.loc 1 333 28
 478 00c2 3B68     		ldr	r3, [r7]
 479 00c4 0022     		movs	r2, #0
 480 00c6 9A60     		str	r2, [r3, #8]
 481              	.L25:
 334:Drivers/STM32G4xx_HAL_Driver/Src/stm32g4xx_hal_exti.c ****     }
 335:Drivers/STM32G4xx_HAL_Driver/Src/stm32g4xx_hal_exti.c **** 
 336:Drivers/STM32G4xx_HAL_Driver/Src/stm32g4xx_hal_exti.c ****     /* Get falling configuration */
 337:Drivers/STM32G4xx_HAL_Driver/Src/stm32g4xx_hal_exti.c ****     regaddr = (&EXTI->FTSR1 + (EXTI_CONFIG_OFFSET * offset));
 482              		.loc 1 337 29
 483 00c8 FB69     		ldr	r3, [r7, #28]
 484 00ca 5A01     		lsls	r2, r3, #5
 485              		.loc 1 337 13
 486 00cc 1E4B     		ldr	r3, .L30+8
 487 00ce 1344     		add	r3, r3, r2
 488 00d0 3B61     		str	r3, [r7, #16]
 338:Drivers/STM32G4xx_HAL_Driver/Src/stm32g4xx_hal_exti.c ****     regval = *regaddr;
 489              		.loc 1 338 12
 490 00d2 3B69     		ldr	r3, [r7, #16]
 491 00d4 1B68     		ldr	r3, [r3]
 492 00d6 FB60     		str	r3, [r7, #12]
 339:Drivers/STM32G4xx_HAL_Driver/Src/stm32g4xx_hal_exti.c **** 
 340:Drivers/STM32G4xx_HAL_Driver/Src/stm32g4xx_hal_exti.c ****     /* Check if configuration of selected line is enable */
 341:Drivers/STM32G4xx_HAL_Driver/Src/stm32g4xx_hal_exti.c ****     if ((regval & maskline) != 0x00u)
 493              		.loc 1 341 17
 494 00d8 FA68     		ldr	r2, [r7, #12]
 495 00da 7B69     		ldr	r3, [r7, #20]
 496 00dc 1340     		ands	r3, r3, r2
 497              		.loc 1 341 8
 498 00de 002B     		cmp	r3, #0
 499 00e0 05D0     		beq	.L26
 342:Drivers/STM32G4xx_HAL_Driver/Src/stm32g4xx_hal_exti.c ****     {
 343:Drivers/STM32G4xx_HAL_Driver/Src/stm32g4xx_hal_exti.c ****       pExtiConfig->Trigger |= EXTI_TRIGGER_FALLING;
 500              		.loc 1 343 28
 501 00e2 3B68     		ldr	r3, [r7]
 502 00e4 9B68     		ldr	r3, [r3, #8]
 503 00e6 43F00202 		orr	r2, r3, #2
 504 00ea 3B68     		ldr	r3, [r7]
 505 00ec 9A60     		str	r2, [r3, #8]
 506              	.L26:
 344:Drivers/STM32G4xx_HAL_Driver/Src/stm32g4xx_hal_exti.c ****     }
 345:Drivers/STM32G4xx_HAL_Driver/Src/stm32g4xx_hal_exti.c **** 
 346:Drivers/STM32G4xx_HAL_Driver/Src/stm32g4xx_hal_exti.c ****     /* Get Gpio port selection for gpio lines */
 347:Drivers/STM32G4xx_HAL_Driver/Src/stm32g4xx_hal_exti.c ****     if ((pExtiConfig->Line & EXTI_GPIO) == EXTI_GPIO)
 507              		.loc 1 347 21
 508 00ee 3B68     		ldr	r3, [r7]
 509 00f0 1B68     		ldr	r3, [r3]
 510              		.loc 1 347 28
 511 00f2 03F0C063 		and	r3, r3, #100663296
ARM GAS  /tmp/ccMg6edV.s 			page 16


 512              		.loc 1 347 8
 513 00f6 B3F1C06F 		cmp	r3, #100663296
 514 00fa 0FD1     		bne	.L27
 348:Drivers/STM32G4xx_HAL_Driver/Src/stm32g4xx_hal_exti.c ****     {
 349:Drivers/STM32G4xx_HAL_Driver/Src/stm32g4xx_hal_exti.c ****       assert_param(IS_EXTI_GPIO_PIN(linepos));
 350:Drivers/STM32G4xx_HAL_Driver/Src/stm32g4xx_hal_exti.c **** 
 351:Drivers/STM32G4xx_HAL_Driver/Src/stm32g4xx_hal_exti.c ****       regval = SYSCFG->EXTICR[linepos >> 2u];
 515              		.loc 1 351 22
 516 00fc 134A     		ldr	r2, .L30+12
 517              		.loc 1 351 39
 518 00fe BB69     		ldr	r3, [r7, #24]
 519 0100 9B08     		lsrs	r3, r3, #2
 520              		.loc 1 351 14
 521 0102 0233     		adds	r3, r3, #2
 522 0104 52F82330 		ldr	r3, [r2, r3, lsl #2]
 523 0108 FB60     		str	r3, [r7, #12]
 352:Drivers/STM32G4xx_HAL_Driver/Src/stm32g4xx_hal_exti.c ****       pExtiConfig->GPIOSel = ((regval >> (SYSCFG_EXTICR1_EXTI1_Pos * ((linepos & 0x03u)))));
 524              		.loc 1 352 80
 525 010a BB69     		ldr	r3, [r7, #24]
 526 010c 03F00303 		and	r3, r3, #3
 527              		.loc 1 352 68
 528 0110 9B00     		lsls	r3, r3, #2
 529              		.loc 1 352 39
 530 0112 FA68     		ldr	r2, [r7, #12]
 531 0114 DA40     		lsrs	r2, r2, r3
 532              		.loc 1 352 28
 533 0116 3B68     		ldr	r3, [r7]
 534 0118 DA60     		str	r2, [r3, #12]
 535 011a 09E0     		b	.L29
 536              	.L27:
 353:Drivers/STM32G4xx_HAL_Driver/Src/stm32g4xx_hal_exti.c ****     }
 354:Drivers/STM32G4xx_HAL_Driver/Src/stm32g4xx_hal_exti.c ****     else
 355:Drivers/STM32G4xx_HAL_Driver/Src/stm32g4xx_hal_exti.c ****     {
 356:Drivers/STM32G4xx_HAL_Driver/Src/stm32g4xx_hal_exti.c ****       pExtiConfig->GPIOSel = 0x00u;
 537              		.loc 1 356 28
 538 011c 3B68     		ldr	r3, [r7]
 539 011e 0022     		movs	r2, #0
 540 0120 DA60     		str	r2, [r3, #12]
 541 0122 05E0     		b	.L29
 542              	.L23:
 357:Drivers/STM32G4xx_HAL_Driver/Src/stm32g4xx_hal_exti.c ****     }
 358:Drivers/STM32G4xx_HAL_Driver/Src/stm32g4xx_hal_exti.c ****   }
 359:Drivers/STM32G4xx_HAL_Driver/Src/stm32g4xx_hal_exti.c ****   else
 360:Drivers/STM32G4xx_HAL_Driver/Src/stm32g4xx_hal_exti.c ****   {
 361:Drivers/STM32G4xx_HAL_Driver/Src/stm32g4xx_hal_exti.c ****     pExtiConfig->Trigger = EXTI_TRIGGER_NONE;
 543              		.loc 1 361 26
 544 0124 3B68     		ldr	r3, [r7]
 545 0126 0022     		movs	r2, #0
 546 0128 9A60     		str	r2, [r3, #8]
 362:Drivers/STM32G4xx_HAL_Driver/Src/stm32g4xx_hal_exti.c ****     pExtiConfig->GPIOSel = 0x00u;
 547              		.loc 1 362 26
 548 012a 3B68     		ldr	r3, [r7]
 549 012c 0022     		movs	r2, #0
 550 012e DA60     		str	r2, [r3, #12]
 551              	.L29:
 363:Drivers/STM32G4xx_HAL_Driver/Src/stm32g4xx_hal_exti.c ****   }
 364:Drivers/STM32G4xx_HAL_Driver/Src/stm32g4xx_hal_exti.c **** 
ARM GAS  /tmp/ccMg6edV.s 			page 17


 365:Drivers/STM32G4xx_HAL_Driver/Src/stm32g4xx_hal_exti.c ****   return HAL_OK;
 552              		.loc 1 365 10
 553 0130 0023     		movs	r3, #0
 554              	.L19:
 366:Drivers/STM32G4xx_HAL_Driver/Src/stm32g4xx_hal_exti.c **** }
 555              		.loc 1 366 1
 556 0132 1846     		mov	r0, r3
 557 0134 2437     		adds	r7, r7, #36
 558              	.LCFI9:
 559              		.cfi_def_cfa_offset 4
 560 0136 BD46     		mov	sp, r7
 561              	.LCFI10:
 562              		.cfi_def_cfa_register 13
 563              		@ sp needed
 564 0138 5DF8047B 		ldr	r7, [sp], #4
 565              	.LCFI11:
 566              		.cfi_restore 7
 567              		.cfi_def_cfa_offset 0
 568 013c 7047     		bx	lr
 569              	.L31:
 570 013e 00BF     		.align	2
 571              	.L30:
 572 0140 04040140 		.word	1073808388
 573 0144 08040140 		.word	1073808392
 574 0148 0C040140 		.word	1073808396
 575 014c 00000140 		.word	1073807360
 576              		.cfi_endproc
 577              	.LFE326:
 579              		.section	.text.HAL_EXTI_ClearConfigLine,"ax",%progbits
 580              		.align	1
 581              		.global	HAL_EXTI_ClearConfigLine
 582              		.syntax unified
 583              		.thumb
 584              		.thumb_func
 585              		.fpu fpv4-sp-d16
 587              	HAL_EXTI_ClearConfigLine:
 588              	.LFB327:
 367:Drivers/STM32G4xx_HAL_Driver/Src/stm32g4xx_hal_exti.c **** 
 368:Drivers/STM32G4xx_HAL_Driver/Src/stm32g4xx_hal_exti.c **** 
 369:Drivers/STM32G4xx_HAL_Driver/Src/stm32g4xx_hal_exti.c **** /**
 370:Drivers/STM32G4xx_HAL_Driver/Src/stm32g4xx_hal_exti.c ****   * @brief  Clear whole configuration of a dedicated Exti line.
 371:Drivers/STM32G4xx_HAL_Driver/Src/stm32g4xx_hal_exti.c ****   * @param  hexti Exti handle.
 372:Drivers/STM32G4xx_HAL_Driver/Src/stm32g4xx_hal_exti.c ****   * @retval HAL Status.
 373:Drivers/STM32G4xx_HAL_Driver/Src/stm32g4xx_hal_exti.c ****   */
 374:Drivers/STM32G4xx_HAL_Driver/Src/stm32g4xx_hal_exti.c **** HAL_StatusTypeDef HAL_EXTI_ClearConfigLine(EXTI_HandleTypeDef *hexti)
 375:Drivers/STM32G4xx_HAL_Driver/Src/stm32g4xx_hal_exti.c **** {
 589              		.loc 1 375 1
 590              		.cfi_startproc
 591              		@ args = 0, pretend = 0, frame = 32
 592              		@ frame_needed = 1, uses_anonymous_args = 0
 593              		@ link register save eliminated.
 594 0000 80B4     		push	{r7}
 595              	.LCFI12:
 596              		.cfi_def_cfa_offset 4
 597              		.cfi_offset 7, -4
 598 0002 89B0     		sub	sp, sp, #36
 599              	.LCFI13:
ARM GAS  /tmp/ccMg6edV.s 			page 18


 600              		.cfi_def_cfa_offset 40
 601 0004 00AF     		add	r7, sp, #0
 602              	.LCFI14:
 603              		.cfi_def_cfa_register 7
 604 0006 7860     		str	r0, [r7, #4]
 376:Drivers/STM32G4xx_HAL_Driver/Src/stm32g4xx_hal_exti.c ****   __IO uint32_t *regaddr;
 377:Drivers/STM32G4xx_HAL_Driver/Src/stm32g4xx_hal_exti.c ****   uint32_t regval;
 378:Drivers/STM32G4xx_HAL_Driver/Src/stm32g4xx_hal_exti.c ****   uint32_t linepos;
 379:Drivers/STM32G4xx_HAL_Driver/Src/stm32g4xx_hal_exti.c ****   uint32_t maskline;
 380:Drivers/STM32G4xx_HAL_Driver/Src/stm32g4xx_hal_exti.c ****   uint32_t offset;
 381:Drivers/STM32G4xx_HAL_Driver/Src/stm32g4xx_hal_exti.c **** 
 382:Drivers/STM32G4xx_HAL_Driver/Src/stm32g4xx_hal_exti.c ****   /* Check null pointer */
 383:Drivers/STM32G4xx_HAL_Driver/Src/stm32g4xx_hal_exti.c ****   if (hexti == NULL)
 605              		.loc 1 383 6
 606 0008 7B68     		ldr	r3, [r7, #4]
 607 000a 002B     		cmp	r3, #0
 608 000c 01D1     		bne	.L33
 384:Drivers/STM32G4xx_HAL_Driver/Src/stm32g4xx_hal_exti.c ****   {
 385:Drivers/STM32G4xx_HAL_Driver/Src/stm32g4xx_hal_exti.c ****     return HAL_ERROR;
 609              		.loc 1 385 12
 610 000e 0123     		movs	r3, #1
 611 0010 70E0     		b	.L34
 612              	.L33:
 386:Drivers/STM32G4xx_HAL_Driver/Src/stm32g4xx_hal_exti.c ****   }
 387:Drivers/STM32G4xx_HAL_Driver/Src/stm32g4xx_hal_exti.c **** 
 388:Drivers/STM32G4xx_HAL_Driver/Src/stm32g4xx_hal_exti.c ****   /* Check the parameter */
 389:Drivers/STM32G4xx_HAL_Driver/Src/stm32g4xx_hal_exti.c ****   assert_param(IS_EXTI_LINE(hexti->Line));
 390:Drivers/STM32G4xx_HAL_Driver/Src/stm32g4xx_hal_exti.c **** 
 391:Drivers/STM32G4xx_HAL_Driver/Src/stm32g4xx_hal_exti.c ****   /* compute line register offset and line mask */
 392:Drivers/STM32G4xx_HAL_Driver/Src/stm32g4xx_hal_exti.c ****   offset = ((hexti->Line & EXTI_REG_MASK) >> EXTI_REG_SHIFT);
 613              		.loc 1 392 19
 614 0012 7B68     		ldr	r3, [r7, #4]
 615 0014 1B68     		ldr	r3, [r3]
 616              		.loc 1 392 43
 617 0016 1B0C     		lsrs	r3, r3, #16
 618              		.loc 1 392 10
 619 0018 03F00103 		and	r3, r3, #1
 620 001c FB61     		str	r3, [r7, #28]
 393:Drivers/STM32G4xx_HAL_Driver/Src/stm32g4xx_hal_exti.c ****   /* compute line position */
 394:Drivers/STM32G4xx_HAL_Driver/Src/stm32g4xx_hal_exti.c ****   linepos = (hexti->Line & EXTI_PIN_MASK);
 621              		.loc 1 394 19
 622 001e 7B68     		ldr	r3, [r7, #4]
 623 0020 1B68     		ldr	r3, [r3]
 624              		.loc 1 394 11
 625 0022 03F01F03 		and	r3, r3, #31
 626 0026 BB61     		str	r3, [r7, #24]
 395:Drivers/STM32G4xx_HAL_Driver/Src/stm32g4xx_hal_exti.c ****   /* compute line mask */
 396:Drivers/STM32G4xx_HAL_Driver/Src/stm32g4xx_hal_exti.c ****   maskline = (1uL << linepos);
 627              		.loc 1 396 12
 628 0028 0122     		movs	r2, #1
 629 002a BB69     		ldr	r3, [r7, #24]
 630 002c 02FA03F3 		lsl	r3, r2, r3
 631 0030 7B61     		str	r3, [r7, #20]
 397:Drivers/STM32G4xx_HAL_Driver/Src/stm32g4xx_hal_exti.c **** 
 398:Drivers/STM32G4xx_HAL_Driver/Src/stm32g4xx_hal_exti.c ****   /* 1] Clear interrupt mode */
 399:Drivers/STM32G4xx_HAL_Driver/Src/stm32g4xx_hal_exti.c ****   regaddr = (&EXTI->IMR1 + (EXTI_MODE_OFFSET * offset));
 632              		.loc 1 399 26
ARM GAS  /tmp/ccMg6edV.s 			page 19


 633 0032 FB69     		ldr	r3, [r7, #28]
 634 0034 5B01     		lsls	r3, r3, #5
 635              		.loc 1 399 11
 636 0036 03F18043 		add	r3, r3, #1073741824
 637 003a 03F58233 		add	r3, r3, #66560
 638 003e 3B61     		str	r3, [r7, #16]
 400:Drivers/STM32G4xx_HAL_Driver/Src/stm32g4xx_hal_exti.c ****   regval = (*regaddr & ~maskline);
 639              		.loc 1 400 13
 640 0040 3B69     		ldr	r3, [r7, #16]
 641 0042 1A68     		ldr	r2, [r3]
 642              		.loc 1 400 24
 643 0044 7B69     		ldr	r3, [r7, #20]
 644 0046 DB43     		mvns	r3, r3
 645              		.loc 1 400 10
 646 0048 1340     		ands	r3, r3, r2
 647 004a FB60     		str	r3, [r7, #12]
 401:Drivers/STM32G4xx_HAL_Driver/Src/stm32g4xx_hal_exti.c ****   *regaddr = regval;
 648              		.loc 1 401 12
 649 004c 3B69     		ldr	r3, [r7, #16]
 650 004e FA68     		ldr	r2, [r7, #12]
 651 0050 1A60     		str	r2, [r3]
 402:Drivers/STM32G4xx_HAL_Driver/Src/stm32g4xx_hal_exti.c **** 
 403:Drivers/STM32G4xx_HAL_Driver/Src/stm32g4xx_hal_exti.c ****   /* 2] Clear event mode */
 404:Drivers/STM32G4xx_HAL_Driver/Src/stm32g4xx_hal_exti.c ****   regaddr = (&EXTI->EMR1 + (EXTI_MODE_OFFSET * offset));
 652              		.loc 1 404 26
 653 0052 FB69     		ldr	r3, [r7, #28]
 654 0054 5A01     		lsls	r2, r3, #5
 655              		.loc 1 404 11
 656 0056 2A4B     		ldr	r3, .L36
 657 0058 1344     		add	r3, r3, r2
 658 005a 3B61     		str	r3, [r7, #16]
 405:Drivers/STM32G4xx_HAL_Driver/Src/stm32g4xx_hal_exti.c ****   regval = (*regaddr & ~maskline);
 659              		.loc 1 405 13
 660 005c 3B69     		ldr	r3, [r7, #16]
 661 005e 1A68     		ldr	r2, [r3]
 662              		.loc 1 405 24
 663 0060 7B69     		ldr	r3, [r7, #20]
 664 0062 DB43     		mvns	r3, r3
 665              		.loc 1 405 10
 666 0064 1340     		ands	r3, r3, r2
 667 0066 FB60     		str	r3, [r7, #12]
 406:Drivers/STM32G4xx_HAL_Driver/Src/stm32g4xx_hal_exti.c ****   *regaddr = regval;
 668              		.loc 1 406 12
 669 0068 3B69     		ldr	r3, [r7, #16]
 670 006a FA68     		ldr	r2, [r7, #12]
 671 006c 1A60     		str	r2, [r3]
 407:Drivers/STM32G4xx_HAL_Driver/Src/stm32g4xx_hal_exti.c **** 
 408:Drivers/STM32G4xx_HAL_Driver/Src/stm32g4xx_hal_exti.c ****   /* 3] Clear triggers in case of configurable lines */
 409:Drivers/STM32G4xx_HAL_Driver/Src/stm32g4xx_hal_exti.c ****   if ((hexti->Line & EXTI_CONFIG) != 0x00u)
 672              		.loc 1 409 13
 673 006e 7B68     		ldr	r3, [r7, #4]
 674 0070 1B68     		ldr	r3, [r3]
 675              		.loc 1 409 20
 676 0072 03F00073 		and	r3, r3, #33554432
 677              		.loc 1 409 6
 678 0076 002B     		cmp	r3, #0
 679 0078 3BD0     		beq	.L35
ARM GAS  /tmp/ccMg6edV.s 			page 20


 410:Drivers/STM32G4xx_HAL_Driver/Src/stm32g4xx_hal_exti.c ****   {
 411:Drivers/STM32G4xx_HAL_Driver/Src/stm32g4xx_hal_exti.c ****     regaddr = (&EXTI->RTSR1 + (EXTI_CONFIG_OFFSET * offset));
 680              		.loc 1 411 29
 681 007a FB69     		ldr	r3, [r7, #28]
 682 007c 5A01     		lsls	r2, r3, #5
 683              		.loc 1 411 13
 684 007e 214B     		ldr	r3, .L36+4
 685 0080 1344     		add	r3, r3, r2
 686 0082 3B61     		str	r3, [r7, #16]
 412:Drivers/STM32G4xx_HAL_Driver/Src/stm32g4xx_hal_exti.c ****     regval = (*regaddr & ~maskline);
 687              		.loc 1 412 15
 688 0084 3B69     		ldr	r3, [r7, #16]
 689 0086 1A68     		ldr	r2, [r3]
 690              		.loc 1 412 26
 691 0088 7B69     		ldr	r3, [r7, #20]
 692 008a DB43     		mvns	r3, r3
 693              		.loc 1 412 12
 694 008c 1340     		ands	r3, r3, r2
 695 008e FB60     		str	r3, [r7, #12]
 413:Drivers/STM32G4xx_HAL_Driver/Src/stm32g4xx_hal_exti.c ****     *regaddr = regval;
 696              		.loc 1 413 14
 697 0090 3B69     		ldr	r3, [r7, #16]
 698 0092 FA68     		ldr	r2, [r7, #12]
 699 0094 1A60     		str	r2, [r3]
 414:Drivers/STM32G4xx_HAL_Driver/Src/stm32g4xx_hal_exti.c **** 
 415:Drivers/STM32G4xx_HAL_Driver/Src/stm32g4xx_hal_exti.c ****     regaddr = (&EXTI->FTSR1 + (EXTI_CONFIG_OFFSET * offset));
 700              		.loc 1 415 29
 701 0096 FB69     		ldr	r3, [r7, #28]
 702 0098 5A01     		lsls	r2, r3, #5
 703              		.loc 1 415 13
 704 009a 1B4B     		ldr	r3, .L36+8
 705 009c 1344     		add	r3, r3, r2
 706 009e 3B61     		str	r3, [r7, #16]
 416:Drivers/STM32G4xx_HAL_Driver/Src/stm32g4xx_hal_exti.c ****     regval = (*regaddr & ~maskline);
 707              		.loc 1 416 15
 708 00a0 3B69     		ldr	r3, [r7, #16]
 709 00a2 1A68     		ldr	r2, [r3]
 710              		.loc 1 416 26
 711 00a4 7B69     		ldr	r3, [r7, #20]
 712 00a6 DB43     		mvns	r3, r3
 713              		.loc 1 416 12
 714 00a8 1340     		ands	r3, r3, r2
 715 00aa FB60     		str	r3, [r7, #12]
 417:Drivers/STM32G4xx_HAL_Driver/Src/stm32g4xx_hal_exti.c ****     *regaddr = regval;
 716              		.loc 1 417 14
 717 00ac 3B69     		ldr	r3, [r7, #16]
 718 00ae FA68     		ldr	r2, [r7, #12]
 719 00b0 1A60     		str	r2, [r3]
 418:Drivers/STM32G4xx_HAL_Driver/Src/stm32g4xx_hal_exti.c **** 
 419:Drivers/STM32G4xx_HAL_Driver/Src/stm32g4xx_hal_exti.c ****     /* Get Gpio port selection for gpio lines */
 420:Drivers/STM32G4xx_HAL_Driver/Src/stm32g4xx_hal_exti.c ****     if ((hexti->Line & EXTI_GPIO) == EXTI_GPIO)
 720              		.loc 1 420 15
 721 00b2 7B68     		ldr	r3, [r7, #4]
 722 00b4 1B68     		ldr	r3, [r3]
 723              		.loc 1 420 22
 724 00b6 03F0C063 		and	r3, r3, #100663296
 725              		.loc 1 420 8
ARM GAS  /tmp/ccMg6edV.s 			page 21


 726 00ba B3F1C06F 		cmp	r3, #100663296
 727 00be 18D1     		bne	.L35
 421:Drivers/STM32G4xx_HAL_Driver/Src/stm32g4xx_hal_exti.c ****     {
 422:Drivers/STM32G4xx_HAL_Driver/Src/stm32g4xx_hal_exti.c ****       assert_param(IS_EXTI_GPIO_PIN(linepos));
 423:Drivers/STM32G4xx_HAL_Driver/Src/stm32g4xx_hal_exti.c **** 
 424:Drivers/STM32G4xx_HAL_Driver/Src/stm32g4xx_hal_exti.c ****       regval = SYSCFG->EXTICR[linepos >> 2u];
 728              		.loc 1 424 22
 729 00c0 124A     		ldr	r2, .L36+12
 730              		.loc 1 424 39
 731 00c2 BB69     		ldr	r3, [r7, #24]
 732 00c4 9B08     		lsrs	r3, r3, #2
 733              		.loc 1 424 14
 734 00c6 0233     		adds	r3, r3, #2
 735 00c8 52F82330 		ldr	r3, [r2, r3, lsl #2]
 736 00cc FB60     		str	r3, [r7, #12]
 425:Drivers/STM32G4xx_HAL_Driver/Src/stm32g4xx_hal_exti.c ****       regval &= ~(SYSCFG_EXTICR1_EXTI0 << (SYSCFG_EXTICR1_EXTI1_Pos * (linepos & 0x03u)));
 737              		.loc 1 425 80
 738 00ce BB69     		ldr	r3, [r7, #24]
 739 00d0 03F00303 		and	r3, r3, #3
 740              		.loc 1 425 69
 741 00d4 9B00     		lsls	r3, r3, #2
 742              		.loc 1 425 40
 743 00d6 0722     		movs	r2, #7
 744 00d8 02FA03F3 		lsl	r3, r2, r3
 745              		.loc 1 425 17
 746 00dc DB43     		mvns	r3, r3
 747              		.loc 1 425 14
 748 00de FA68     		ldr	r2, [r7, #12]
 749 00e0 1340     		ands	r3, r3, r2
 750 00e2 FB60     		str	r3, [r7, #12]
 426:Drivers/STM32G4xx_HAL_Driver/Src/stm32g4xx_hal_exti.c ****       SYSCFG->EXTICR[linepos >> 2u] = regval;
 751              		.loc 1 426 13
 752 00e4 0949     		ldr	r1, .L36+12
 753              		.loc 1 426 30
 754 00e6 BB69     		ldr	r3, [r7, #24]
 755 00e8 9B08     		lsrs	r3, r3, #2
 756              		.loc 1 426 37
 757 00ea 0233     		adds	r3, r3, #2
 758 00ec FA68     		ldr	r2, [r7, #12]
 759 00ee 41F82320 		str	r2, [r1, r3, lsl #2]
 760              	.L35:
 427:Drivers/STM32G4xx_HAL_Driver/Src/stm32g4xx_hal_exti.c ****     }
 428:Drivers/STM32G4xx_HAL_Driver/Src/stm32g4xx_hal_exti.c ****   }
 429:Drivers/STM32G4xx_HAL_Driver/Src/stm32g4xx_hal_exti.c **** 
 430:Drivers/STM32G4xx_HAL_Driver/Src/stm32g4xx_hal_exti.c ****   return HAL_OK;
 761              		.loc 1 430 10
 762 00f2 0023     		movs	r3, #0
 763              	.L34:
 431:Drivers/STM32G4xx_HAL_Driver/Src/stm32g4xx_hal_exti.c **** }
 764              		.loc 1 431 1
 765 00f4 1846     		mov	r0, r3
 766 00f6 2437     		adds	r7, r7, #36
 767              	.LCFI15:
 768              		.cfi_def_cfa_offset 4
 769 00f8 BD46     		mov	sp, r7
 770              	.LCFI16:
 771              		.cfi_def_cfa_register 13
ARM GAS  /tmp/ccMg6edV.s 			page 22


 772              		@ sp needed
 773 00fa 5DF8047B 		ldr	r7, [sp], #4
 774              	.LCFI17:
 775              		.cfi_restore 7
 776              		.cfi_def_cfa_offset 0
 777 00fe 7047     		bx	lr
 778              	.L37:
 779              		.align	2
 780              	.L36:
 781 0100 04040140 		.word	1073808388
 782 0104 08040140 		.word	1073808392
 783 0108 0C040140 		.word	1073808396
 784 010c 00000140 		.word	1073807360
 785              		.cfi_endproc
 786              	.LFE327:
 788              		.section	.text.HAL_EXTI_RegisterCallback,"ax",%progbits
 789              		.align	1
 790              		.global	HAL_EXTI_RegisterCallback
 791              		.syntax unified
 792              		.thumb
 793              		.thumb_func
 794              		.fpu fpv4-sp-d16
 796              	HAL_EXTI_RegisterCallback:
 797              	.LFB328:
 432:Drivers/STM32G4xx_HAL_Driver/Src/stm32g4xx_hal_exti.c **** 
 433:Drivers/STM32G4xx_HAL_Driver/Src/stm32g4xx_hal_exti.c **** 
 434:Drivers/STM32G4xx_HAL_Driver/Src/stm32g4xx_hal_exti.c **** /**
 435:Drivers/STM32G4xx_HAL_Driver/Src/stm32g4xx_hal_exti.c ****   * @brief  Register callback for a dedicated Exti line.
 436:Drivers/STM32G4xx_HAL_Driver/Src/stm32g4xx_hal_exti.c ****   * @param  hexti Exti handle.
 437:Drivers/STM32G4xx_HAL_Driver/Src/stm32g4xx_hal_exti.c ****   * @param  CallbackID User callback identifier.
 438:Drivers/STM32G4xx_HAL_Driver/Src/stm32g4xx_hal_exti.c ****   *         This parameter can be one of @arg @ref EXTI_CallbackIDTypeDef values.
 439:Drivers/STM32G4xx_HAL_Driver/Src/stm32g4xx_hal_exti.c ****   * @param  pPendingCbfn function pointer to be stored as callback.
 440:Drivers/STM32G4xx_HAL_Driver/Src/stm32g4xx_hal_exti.c ****   * @retval HAL Status.
 441:Drivers/STM32G4xx_HAL_Driver/Src/stm32g4xx_hal_exti.c ****   */
 442:Drivers/STM32G4xx_HAL_Driver/Src/stm32g4xx_hal_exti.c **** HAL_StatusTypeDef HAL_EXTI_RegisterCallback(EXTI_HandleTypeDef *hexti, EXTI_CallbackIDTypeDef Callb
 443:Drivers/STM32G4xx_HAL_Driver/Src/stm32g4xx_hal_exti.c **** {
 798              		.loc 1 443 1
 799              		.cfi_startproc
 800              		@ args = 0, pretend = 0, frame = 24
 801              		@ frame_needed = 1, uses_anonymous_args = 0
 802              		@ link register save eliminated.
 803 0000 80B4     		push	{r7}
 804              	.LCFI18:
 805              		.cfi_def_cfa_offset 4
 806              		.cfi_offset 7, -4
 807 0002 87B0     		sub	sp, sp, #28
 808              	.LCFI19:
 809              		.cfi_def_cfa_offset 32
 810 0004 00AF     		add	r7, sp, #0
 811              	.LCFI20:
 812              		.cfi_def_cfa_register 7
 813 0006 F860     		str	r0, [r7, #12]
 814 0008 0B46     		mov	r3, r1
 815 000a 7A60     		str	r2, [r7, #4]
 816 000c FB72     		strb	r3, [r7, #11]
 444:Drivers/STM32G4xx_HAL_Driver/Src/stm32g4xx_hal_exti.c ****   HAL_StatusTypeDef status = HAL_OK;
 817              		.loc 1 444 21
ARM GAS  /tmp/ccMg6edV.s 			page 23


 818 000e 0023     		movs	r3, #0
 819 0010 FB75     		strb	r3, [r7, #23]
 445:Drivers/STM32G4xx_HAL_Driver/Src/stm32g4xx_hal_exti.c **** 
 446:Drivers/STM32G4xx_HAL_Driver/Src/stm32g4xx_hal_exti.c ****   /* Check the parameters */
 447:Drivers/STM32G4xx_HAL_Driver/Src/stm32g4xx_hal_exti.c ****   assert_param(IS_EXTI_CB(CallbackID));
 448:Drivers/STM32G4xx_HAL_Driver/Src/stm32g4xx_hal_exti.c **** 
 449:Drivers/STM32G4xx_HAL_Driver/Src/stm32g4xx_hal_exti.c ****   switch (CallbackID)
 820              		.loc 1 449 3
 821 0012 FB7A     		ldrb	r3, [r7, #11]	@ zero_extendqisi2
 822 0014 002B     		cmp	r3, #0
 823 0016 03D1     		bne	.L39
 450:Drivers/STM32G4xx_HAL_Driver/Src/stm32g4xx_hal_exti.c ****   {
 451:Drivers/STM32G4xx_HAL_Driver/Src/stm32g4xx_hal_exti.c ****     /* set common callback */
 452:Drivers/STM32G4xx_HAL_Driver/Src/stm32g4xx_hal_exti.c ****     case  HAL_EXTI_COMMON_CB_ID:
 453:Drivers/STM32G4xx_HAL_Driver/Src/stm32g4xx_hal_exti.c ****       hexti->PendingCallback = pPendingCbfn;
 824              		.loc 1 453 30
 825 0018 FB68     		ldr	r3, [r7, #12]
 826 001a 7A68     		ldr	r2, [r7, #4]
 827 001c 5A60     		str	r2, [r3, #4]
 454:Drivers/STM32G4xx_HAL_Driver/Src/stm32g4xx_hal_exti.c ****       break;
 828              		.loc 1 454 7
 829 001e 05E0     		b	.L40
 830              	.L39:
 455:Drivers/STM32G4xx_HAL_Driver/Src/stm32g4xx_hal_exti.c **** 
 456:Drivers/STM32G4xx_HAL_Driver/Src/stm32g4xx_hal_exti.c ****     default:
 457:Drivers/STM32G4xx_HAL_Driver/Src/stm32g4xx_hal_exti.c ****       hexti->PendingCallback = NULL;
 831              		.loc 1 457 30
 832 0020 FB68     		ldr	r3, [r7, #12]
 833 0022 0022     		movs	r2, #0
 834 0024 5A60     		str	r2, [r3, #4]
 458:Drivers/STM32G4xx_HAL_Driver/Src/stm32g4xx_hal_exti.c ****       status = HAL_ERROR;
 835              		.loc 1 458 14
 836 0026 0123     		movs	r3, #1
 837 0028 FB75     		strb	r3, [r7, #23]
 459:Drivers/STM32G4xx_HAL_Driver/Src/stm32g4xx_hal_exti.c ****       break;
 838              		.loc 1 459 7
 839 002a 00BF     		nop
 840              	.L40:
 460:Drivers/STM32G4xx_HAL_Driver/Src/stm32g4xx_hal_exti.c ****   }
 461:Drivers/STM32G4xx_HAL_Driver/Src/stm32g4xx_hal_exti.c **** 
 462:Drivers/STM32G4xx_HAL_Driver/Src/stm32g4xx_hal_exti.c ****   return status;
 841              		.loc 1 462 10
 842 002c FB7D     		ldrb	r3, [r7, #23]	@ zero_extendqisi2
 463:Drivers/STM32G4xx_HAL_Driver/Src/stm32g4xx_hal_exti.c **** }
 843              		.loc 1 463 1
 844 002e 1846     		mov	r0, r3
 845 0030 1C37     		adds	r7, r7, #28
 846              	.LCFI21:
 847              		.cfi_def_cfa_offset 4
 848 0032 BD46     		mov	sp, r7
 849              	.LCFI22:
 850              		.cfi_def_cfa_register 13
 851              		@ sp needed
 852 0034 5DF8047B 		ldr	r7, [sp], #4
 853              	.LCFI23:
 854              		.cfi_restore 7
 855              		.cfi_def_cfa_offset 0
ARM GAS  /tmp/ccMg6edV.s 			page 24


 856 0038 7047     		bx	lr
 857              		.cfi_endproc
 858              	.LFE328:
 860              		.section	.text.HAL_EXTI_GetHandle,"ax",%progbits
 861              		.align	1
 862              		.global	HAL_EXTI_GetHandle
 863              		.syntax unified
 864              		.thumb
 865              		.thumb_func
 866              		.fpu fpv4-sp-d16
 868              	HAL_EXTI_GetHandle:
 869              	.LFB329:
 464:Drivers/STM32G4xx_HAL_Driver/Src/stm32g4xx_hal_exti.c **** 
 465:Drivers/STM32G4xx_HAL_Driver/Src/stm32g4xx_hal_exti.c **** 
 466:Drivers/STM32G4xx_HAL_Driver/Src/stm32g4xx_hal_exti.c **** /**
 467:Drivers/STM32G4xx_HAL_Driver/Src/stm32g4xx_hal_exti.c ****   * @brief  Store line number as handle private field.
 468:Drivers/STM32G4xx_HAL_Driver/Src/stm32g4xx_hal_exti.c ****   * @param  hexti Exti handle.
 469:Drivers/STM32G4xx_HAL_Driver/Src/stm32g4xx_hal_exti.c ****   * @param  ExtiLine Exti line number.
 470:Drivers/STM32G4xx_HAL_Driver/Src/stm32g4xx_hal_exti.c ****   *         This parameter can be from 0 to @ref EXTI_LINE_NB.
 471:Drivers/STM32G4xx_HAL_Driver/Src/stm32g4xx_hal_exti.c ****   * @retval HAL Status.
 472:Drivers/STM32G4xx_HAL_Driver/Src/stm32g4xx_hal_exti.c ****   */
 473:Drivers/STM32G4xx_HAL_Driver/Src/stm32g4xx_hal_exti.c **** HAL_StatusTypeDef HAL_EXTI_GetHandle(EXTI_HandleTypeDef *hexti, uint32_t ExtiLine)
 474:Drivers/STM32G4xx_HAL_Driver/Src/stm32g4xx_hal_exti.c **** {
 870              		.loc 1 474 1
 871              		.cfi_startproc
 872              		@ args = 0, pretend = 0, frame = 8
 873              		@ frame_needed = 1, uses_anonymous_args = 0
 874              		@ link register save eliminated.
 875 0000 80B4     		push	{r7}
 876              	.LCFI24:
 877              		.cfi_def_cfa_offset 4
 878              		.cfi_offset 7, -4
 879 0002 83B0     		sub	sp, sp, #12
 880              	.LCFI25:
 881              		.cfi_def_cfa_offset 16
 882 0004 00AF     		add	r7, sp, #0
 883              	.LCFI26:
 884              		.cfi_def_cfa_register 7
 885 0006 7860     		str	r0, [r7, #4]
 886 0008 3960     		str	r1, [r7]
 475:Drivers/STM32G4xx_HAL_Driver/Src/stm32g4xx_hal_exti.c ****   /* Check the parameters */
 476:Drivers/STM32G4xx_HAL_Driver/Src/stm32g4xx_hal_exti.c ****   assert_param(IS_EXTI_LINE(ExtiLine));
 477:Drivers/STM32G4xx_HAL_Driver/Src/stm32g4xx_hal_exti.c **** 
 478:Drivers/STM32G4xx_HAL_Driver/Src/stm32g4xx_hal_exti.c ****   /* Check null pointer */
 479:Drivers/STM32G4xx_HAL_Driver/Src/stm32g4xx_hal_exti.c ****   if (hexti == NULL)
 887              		.loc 1 479 6
 888 000a 7B68     		ldr	r3, [r7, #4]
 889 000c 002B     		cmp	r3, #0
 890 000e 01D1     		bne	.L43
 480:Drivers/STM32G4xx_HAL_Driver/Src/stm32g4xx_hal_exti.c ****   {
 481:Drivers/STM32G4xx_HAL_Driver/Src/stm32g4xx_hal_exti.c ****     return HAL_ERROR;
 891              		.loc 1 481 12
 892 0010 0123     		movs	r3, #1
 893 0012 03E0     		b	.L44
 894              	.L43:
 482:Drivers/STM32G4xx_HAL_Driver/Src/stm32g4xx_hal_exti.c ****   }
 483:Drivers/STM32G4xx_HAL_Driver/Src/stm32g4xx_hal_exti.c ****   else
ARM GAS  /tmp/ccMg6edV.s 			page 25


 484:Drivers/STM32G4xx_HAL_Driver/Src/stm32g4xx_hal_exti.c ****   {
 485:Drivers/STM32G4xx_HAL_Driver/Src/stm32g4xx_hal_exti.c ****     /* Store line number as handle private field */
 486:Drivers/STM32G4xx_HAL_Driver/Src/stm32g4xx_hal_exti.c ****     hexti->Line = ExtiLine;
 895              		.loc 1 486 17
 896 0014 7B68     		ldr	r3, [r7, #4]
 897 0016 3A68     		ldr	r2, [r7]
 898 0018 1A60     		str	r2, [r3]
 487:Drivers/STM32G4xx_HAL_Driver/Src/stm32g4xx_hal_exti.c **** 
 488:Drivers/STM32G4xx_HAL_Driver/Src/stm32g4xx_hal_exti.c ****     return HAL_OK;
 899              		.loc 1 488 12
 900 001a 0023     		movs	r3, #0
 901              	.L44:
 489:Drivers/STM32G4xx_HAL_Driver/Src/stm32g4xx_hal_exti.c ****   }
 490:Drivers/STM32G4xx_HAL_Driver/Src/stm32g4xx_hal_exti.c **** }
 902              		.loc 1 490 1
 903 001c 1846     		mov	r0, r3
 904 001e 0C37     		adds	r7, r7, #12
 905              	.LCFI27:
 906              		.cfi_def_cfa_offset 4
 907 0020 BD46     		mov	sp, r7
 908              	.LCFI28:
 909              		.cfi_def_cfa_register 13
 910              		@ sp needed
 911 0022 5DF8047B 		ldr	r7, [sp], #4
 912              	.LCFI29:
 913              		.cfi_restore 7
 914              		.cfi_def_cfa_offset 0
 915 0026 7047     		bx	lr
 916              		.cfi_endproc
 917              	.LFE329:
 919              		.section	.text.HAL_EXTI_IRQHandler,"ax",%progbits
 920              		.align	1
 921              		.global	HAL_EXTI_IRQHandler
 922              		.syntax unified
 923              		.thumb
 924              		.thumb_func
 925              		.fpu fpv4-sp-d16
 927              	HAL_EXTI_IRQHandler:
 928              	.LFB330:
 491:Drivers/STM32G4xx_HAL_Driver/Src/stm32g4xx_hal_exti.c **** 
 492:Drivers/STM32G4xx_HAL_Driver/Src/stm32g4xx_hal_exti.c **** 
 493:Drivers/STM32G4xx_HAL_Driver/Src/stm32g4xx_hal_exti.c **** /**
 494:Drivers/STM32G4xx_HAL_Driver/Src/stm32g4xx_hal_exti.c ****   * @}
 495:Drivers/STM32G4xx_HAL_Driver/Src/stm32g4xx_hal_exti.c ****   */
 496:Drivers/STM32G4xx_HAL_Driver/Src/stm32g4xx_hal_exti.c **** 
 497:Drivers/STM32G4xx_HAL_Driver/Src/stm32g4xx_hal_exti.c **** /** @addtogroup EXTI_Exported_Functions_Group2
 498:Drivers/STM32G4xx_HAL_Driver/Src/stm32g4xx_hal_exti.c ****   *  @brief EXTI IO functions.
 499:Drivers/STM32G4xx_HAL_Driver/Src/stm32g4xx_hal_exti.c ****   *
 500:Drivers/STM32G4xx_HAL_Driver/Src/stm32g4xx_hal_exti.c **** @verbatim
 501:Drivers/STM32G4xx_HAL_Driver/Src/stm32g4xx_hal_exti.c ****  ===============================================================================
 502:Drivers/STM32G4xx_HAL_Driver/Src/stm32g4xx_hal_exti.c ****                        ##### IO operation functions #####
 503:Drivers/STM32G4xx_HAL_Driver/Src/stm32g4xx_hal_exti.c ****  ===============================================================================
 504:Drivers/STM32G4xx_HAL_Driver/Src/stm32g4xx_hal_exti.c **** 
 505:Drivers/STM32G4xx_HAL_Driver/Src/stm32g4xx_hal_exti.c **** @endverbatim
 506:Drivers/STM32G4xx_HAL_Driver/Src/stm32g4xx_hal_exti.c ****   * @{
 507:Drivers/STM32G4xx_HAL_Driver/Src/stm32g4xx_hal_exti.c ****   */
 508:Drivers/STM32G4xx_HAL_Driver/Src/stm32g4xx_hal_exti.c **** 
ARM GAS  /tmp/ccMg6edV.s 			page 26


 509:Drivers/STM32G4xx_HAL_Driver/Src/stm32g4xx_hal_exti.c **** /**
 510:Drivers/STM32G4xx_HAL_Driver/Src/stm32g4xx_hal_exti.c ****   * @brief  Handle EXTI interrupt request.
 511:Drivers/STM32G4xx_HAL_Driver/Src/stm32g4xx_hal_exti.c ****   * @param  hexti Exti handle.
 512:Drivers/STM32G4xx_HAL_Driver/Src/stm32g4xx_hal_exti.c ****   * @retval none.
 513:Drivers/STM32G4xx_HAL_Driver/Src/stm32g4xx_hal_exti.c ****   */
 514:Drivers/STM32G4xx_HAL_Driver/Src/stm32g4xx_hal_exti.c **** void HAL_EXTI_IRQHandler(EXTI_HandleTypeDef *hexti)
 515:Drivers/STM32G4xx_HAL_Driver/Src/stm32g4xx_hal_exti.c **** {
 929              		.loc 1 515 1
 930              		.cfi_startproc
 931              		@ args = 0, pretend = 0, frame = 24
 932              		@ frame_needed = 1, uses_anonymous_args = 0
 933 0000 80B5     		push	{r7, lr}
 934              	.LCFI30:
 935              		.cfi_def_cfa_offset 8
 936              		.cfi_offset 7, -8
 937              		.cfi_offset 14, -4
 938 0002 86B0     		sub	sp, sp, #24
 939              	.LCFI31:
 940              		.cfi_def_cfa_offset 32
 941 0004 00AF     		add	r7, sp, #0
 942              	.LCFI32:
 943              		.cfi_def_cfa_register 7
 944 0006 7860     		str	r0, [r7, #4]
 516:Drivers/STM32G4xx_HAL_Driver/Src/stm32g4xx_hal_exti.c ****   __IO uint32_t *regaddr;
 517:Drivers/STM32G4xx_HAL_Driver/Src/stm32g4xx_hal_exti.c ****   uint32_t regval;
 518:Drivers/STM32G4xx_HAL_Driver/Src/stm32g4xx_hal_exti.c ****   uint32_t maskline;
 519:Drivers/STM32G4xx_HAL_Driver/Src/stm32g4xx_hal_exti.c ****   uint32_t offset;
 520:Drivers/STM32G4xx_HAL_Driver/Src/stm32g4xx_hal_exti.c **** 
 521:Drivers/STM32G4xx_HAL_Driver/Src/stm32g4xx_hal_exti.c ****   /* Compute line register offset */
 522:Drivers/STM32G4xx_HAL_Driver/Src/stm32g4xx_hal_exti.c ****   offset = ((hexti->Line & EXTI_REG_MASK) >> EXTI_REG_SHIFT);
 945              		.loc 1 522 19
 946 0008 7B68     		ldr	r3, [r7, #4]
 947 000a 1B68     		ldr	r3, [r3]
 948              		.loc 1 522 43
 949 000c 1B0C     		lsrs	r3, r3, #16
 950              		.loc 1 522 10
 951 000e 03F00103 		and	r3, r3, #1
 952 0012 7B61     		str	r3, [r7, #20]
 523:Drivers/STM32G4xx_HAL_Driver/Src/stm32g4xx_hal_exti.c ****   /* compute line mask */
 524:Drivers/STM32G4xx_HAL_Driver/Src/stm32g4xx_hal_exti.c ****   maskline = (1uL << (hexti->Line & EXTI_PIN_MASK));
 953              		.loc 1 524 28
 954 0014 7B68     		ldr	r3, [r7, #4]
 955 0016 1B68     		ldr	r3, [r3]
 956              		.loc 1 524 35
 957 0018 03F01F03 		and	r3, r3, #31
 958              		.loc 1 524 12
 959 001c 0122     		movs	r2, #1
 960 001e 02FA03F3 		lsl	r3, r2, r3
 961 0022 3B61     		str	r3, [r7, #16]
 525:Drivers/STM32G4xx_HAL_Driver/Src/stm32g4xx_hal_exti.c **** 
 526:Drivers/STM32G4xx_HAL_Driver/Src/stm32g4xx_hal_exti.c ****   /* Get pending bit  */
 527:Drivers/STM32G4xx_HAL_Driver/Src/stm32g4xx_hal_exti.c ****   regaddr = (&EXTI->PR1 + (EXTI_CONFIG_OFFSET * offset));
 962              		.loc 1 527 25
 963 0024 7B69     		ldr	r3, [r7, #20]
 964 0026 5A01     		lsls	r2, r3, #5
 965              		.loc 1 527 11
 966 0028 0C4B     		ldr	r3, .L48
ARM GAS  /tmp/ccMg6edV.s 			page 27


 967 002a 1344     		add	r3, r3, r2
 968 002c FB60     		str	r3, [r7, #12]
 528:Drivers/STM32G4xx_HAL_Driver/Src/stm32g4xx_hal_exti.c ****   regval = (*regaddr & maskline);
 969              		.loc 1 528 13
 970 002e FB68     		ldr	r3, [r7, #12]
 971 0030 1B68     		ldr	r3, [r3]
 972              		.loc 1 528 10
 973 0032 3A69     		ldr	r2, [r7, #16]
 974 0034 1340     		ands	r3, r3, r2
 975 0036 BB60     		str	r3, [r7, #8]
 529:Drivers/STM32G4xx_HAL_Driver/Src/stm32g4xx_hal_exti.c **** 
 530:Drivers/STM32G4xx_HAL_Driver/Src/stm32g4xx_hal_exti.c ****   if (regval != 0x00u)
 976              		.loc 1 530 6
 977 0038 BB68     		ldr	r3, [r7, #8]
 978 003a 002B     		cmp	r3, #0
 979 003c 09D0     		beq	.L47
 531:Drivers/STM32G4xx_HAL_Driver/Src/stm32g4xx_hal_exti.c ****   {
 532:Drivers/STM32G4xx_HAL_Driver/Src/stm32g4xx_hal_exti.c ****     /* Clear pending bit */
 533:Drivers/STM32G4xx_HAL_Driver/Src/stm32g4xx_hal_exti.c ****     *regaddr = maskline;
 980              		.loc 1 533 14
 981 003e FB68     		ldr	r3, [r7, #12]
 982 0040 3A69     		ldr	r2, [r7, #16]
 983 0042 1A60     		str	r2, [r3]
 534:Drivers/STM32G4xx_HAL_Driver/Src/stm32g4xx_hal_exti.c **** 
 535:Drivers/STM32G4xx_HAL_Driver/Src/stm32g4xx_hal_exti.c ****     /* Call pending callback */
 536:Drivers/STM32G4xx_HAL_Driver/Src/stm32g4xx_hal_exti.c ****     if (hexti->PendingCallback != NULL)
 984              		.loc 1 536 14
 985 0044 7B68     		ldr	r3, [r7, #4]
 986 0046 5B68     		ldr	r3, [r3, #4]
 987              		.loc 1 536 8
 988 0048 002B     		cmp	r3, #0
 989 004a 02D0     		beq	.L47
 537:Drivers/STM32G4xx_HAL_Driver/Src/stm32g4xx_hal_exti.c ****     {
 538:Drivers/STM32G4xx_HAL_Driver/Src/stm32g4xx_hal_exti.c ****       hexti->PendingCallback();
 990              		.loc 1 538 12
 991 004c 7B68     		ldr	r3, [r7, #4]
 992 004e 5B68     		ldr	r3, [r3, #4]
 993              		.loc 1 538 7
 994 0050 9847     		blx	r3
 995              	.LVL0:
 996              	.L47:
 539:Drivers/STM32G4xx_HAL_Driver/Src/stm32g4xx_hal_exti.c ****     }
 540:Drivers/STM32G4xx_HAL_Driver/Src/stm32g4xx_hal_exti.c ****   }
 541:Drivers/STM32G4xx_HAL_Driver/Src/stm32g4xx_hal_exti.c **** }
 997              		.loc 1 541 1
 998 0052 00BF     		nop
 999 0054 1837     		adds	r7, r7, #24
 1000              	.LCFI33:
 1001              		.cfi_def_cfa_offset 8
 1002 0056 BD46     		mov	sp, r7
 1003              	.LCFI34:
 1004              		.cfi_def_cfa_register 13
 1005              		@ sp needed
 1006 0058 80BD     		pop	{r7, pc}
 1007              	.L49:
 1008 005a 00BF     		.align	2
 1009              	.L48:
ARM GAS  /tmp/ccMg6edV.s 			page 28


 1010 005c 14040140 		.word	1073808404
 1011              		.cfi_endproc
 1012              	.LFE330:
 1014              		.section	.text.HAL_EXTI_GetPending,"ax",%progbits
 1015              		.align	1
 1016              		.global	HAL_EXTI_GetPending
 1017              		.syntax unified
 1018              		.thumb
 1019              		.thumb_func
 1020              		.fpu fpv4-sp-d16
 1022              	HAL_EXTI_GetPending:
 1023              	.LFB331:
 542:Drivers/STM32G4xx_HAL_Driver/Src/stm32g4xx_hal_exti.c **** 
 543:Drivers/STM32G4xx_HAL_Driver/Src/stm32g4xx_hal_exti.c **** /**
 544:Drivers/STM32G4xx_HAL_Driver/Src/stm32g4xx_hal_exti.c ****   * @brief  Get interrupt pending bit of a dedicated line.
 545:Drivers/STM32G4xx_HAL_Driver/Src/stm32g4xx_hal_exti.c ****   * @param  hexti Exti handle.
 546:Drivers/STM32G4xx_HAL_Driver/Src/stm32g4xx_hal_exti.c ****   * @param  Edge unused
 547:Drivers/STM32G4xx_HAL_Driver/Src/stm32g4xx_hal_exti.c ****   * @retval 1 if interrupt is pending else 0.
 548:Drivers/STM32G4xx_HAL_Driver/Src/stm32g4xx_hal_exti.c ****   */
 549:Drivers/STM32G4xx_HAL_Driver/Src/stm32g4xx_hal_exti.c **** uint32_t HAL_EXTI_GetPending(EXTI_HandleTypeDef *hexti, uint32_t Edge)
 550:Drivers/STM32G4xx_HAL_Driver/Src/stm32g4xx_hal_exti.c **** {
 1024              		.loc 1 550 1
 1025              		.cfi_startproc
 1026              		@ args = 0, pretend = 0, frame = 32
 1027              		@ frame_needed = 1, uses_anonymous_args = 0
 1028              		@ link register save eliminated.
 1029 0000 80B4     		push	{r7}
 1030              	.LCFI35:
 1031              		.cfi_def_cfa_offset 4
 1032              		.cfi_offset 7, -4
 1033 0002 89B0     		sub	sp, sp, #36
 1034              	.LCFI36:
 1035              		.cfi_def_cfa_offset 40
 1036 0004 00AF     		add	r7, sp, #0
 1037              	.LCFI37:
 1038              		.cfi_def_cfa_register 7
 1039 0006 7860     		str	r0, [r7, #4]
 1040 0008 3960     		str	r1, [r7]
 551:Drivers/STM32G4xx_HAL_Driver/Src/stm32g4xx_hal_exti.c ****   __IO uint32_t *regaddr;
 552:Drivers/STM32G4xx_HAL_Driver/Src/stm32g4xx_hal_exti.c ****   uint32_t regval;
 553:Drivers/STM32G4xx_HAL_Driver/Src/stm32g4xx_hal_exti.c ****   uint32_t linepos;
 554:Drivers/STM32G4xx_HAL_Driver/Src/stm32g4xx_hal_exti.c ****   uint32_t maskline;
 555:Drivers/STM32G4xx_HAL_Driver/Src/stm32g4xx_hal_exti.c ****   uint32_t offset;
 556:Drivers/STM32G4xx_HAL_Driver/Src/stm32g4xx_hal_exti.c **** 
 557:Drivers/STM32G4xx_HAL_Driver/Src/stm32g4xx_hal_exti.c ****   /* Check parameters */
 558:Drivers/STM32G4xx_HAL_Driver/Src/stm32g4xx_hal_exti.c ****   assert_param(IS_EXTI_LINE(hexti->Line));
 559:Drivers/STM32G4xx_HAL_Driver/Src/stm32g4xx_hal_exti.c ****   assert_param(IS_EXTI_CONFIG_LINE(hexti->Line));
 560:Drivers/STM32G4xx_HAL_Driver/Src/stm32g4xx_hal_exti.c ****   UNUSED(Edge);
 561:Drivers/STM32G4xx_HAL_Driver/Src/stm32g4xx_hal_exti.c **** 
 562:Drivers/STM32G4xx_HAL_Driver/Src/stm32g4xx_hal_exti.c ****   /* Compute line register offset */
 563:Drivers/STM32G4xx_HAL_Driver/Src/stm32g4xx_hal_exti.c ****   offset = ((hexti->Line & EXTI_REG_MASK) >> EXTI_REG_SHIFT);
 1041              		.loc 1 563 19
 1042 000a 7B68     		ldr	r3, [r7, #4]
 1043 000c 1B68     		ldr	r3, [r3]
 1044              		.loc 1 563 43
 1045 000e 1B0C     		lsrs	r3, r3, #16
 1046              		.loc 1 563 10
ARM GAS  /tmp/ccMg6edV.s 			page 29


 1047 0010 03F00103 		and	r3, r3, #1
 1048 0014 FB61     		str	r3, [r7, #28]
 564:Drivers/STM32G4xx_HAL_Driver/Src/stm32g4xx_hal_exti.c ****   /* Compute line position */
 565:Drivers/STM32G4xx_HAL_Driver/Src/stm32g4xx_hal_exti.c ****   linepos = (hexti->Line & EXTI_PIN_MASK);
 1049              		.loc 1 565 19
 1050 0016 7B68     		ldr	r3, [r7, #4]
 1051 0018 1B68     		ldr	r3, [r3]
 1052              		.loc 1 565 11
 1053 001a 03F01F03 		and	r3, r3, #31
 1054 001e BB61     		str	r3, [r7, #24]
 566:Drivers/STM32G4xx_HAL_Driver/Src/stm32g4xx_hal_exti.c ****   /* Compute line mask */
 567:Drivers/STM32G4xx_HAL_Driver/Src/stm32g4xx_hal_exti.c ****   maskline = (1uL << linepos);
 1055              		.loc 1 567 12
 1056 0020 0122     		movs	r2, #1
 1057 0022 BB69     		ldr	r3, [r7, #24]
 1058 0024 02FA03F3 		lsl	r3, r2, r3
 1059 0028 7B61     		str	r3, [r7, #20]
 568:Drivers/STM32G4xx_HAL_Driver/Src/stm32g4xx_hal_exti.c **** 
 569:Drivers/STM32G4xx_HAL_Driver/Src/stm32g4xx_hal_exti.c ****   /* Get pending bit */
 570:Drivers/STM32G4xx_HAL_Driver/Src/stm32g4xx_hal_exti.c ****   regaddr = (&EXTI->PR1 + (EXTI_CONFIG_OFFSET * offset));
 1060              		.loc 1 570 25
 1061 002a FB69     		ldr	r3, [r7, #28]
 1062 002c 5A01     		lsls	r2, r3, #5
 1063              		.loc 1 570 11
 1064 002e 094B     		ldr	r3, .L52
 1065 0030 1344     		add	r3, r3, r2
 1066 0032 3B61     		str	r3, [r7, #16]
 571:Drivers/STM32G4xx_HAL_Driver/Src/stm32g4xx_hal_exti.c **** 
 572:Drivers/STM32G4xx_HAL_Driver/Src/stm32g4xx_hal_exti.c ****   /* return 1 if bit is set else 0 */
 573:Drivers/STM32G4xx_HAL_Driver/Src/stm32g4xx_hal_exti.c ****   regval = ((*regaddr & maskline) >> linepos);
 1067              		.loc 1 573 14
 1068 0034 3B69     		ldr	r3, [r7, #16]
 1069 0036 1A68     		ldr	r2, [r3]
 1070              		.loc 1 573 23
 1071 0038 7B69     		ldr	r3, [r7, #20]
 1072 003a 1A40     		ands	r2, r2, r3
 1073              		.loc 1 573 10
 1074 003c BB69     		ldr	r3, [r7, #24]
 1075 003e 22FA03F3 		lsr	r3, r2, r3
 1076 0042 FB60     		str	r3, [r7, #12]
 574:Drivers/STM32G4xx_HAL_Driver/Src/stm32g4xx_hal_exti.c ****   return regval;
 1077              		.loc 1 574 10
 1078 0044 FB68     		ldr	r3, [r7, #12]
 575:Drivers/STM32G4xx_HAL_Driver/Src/stm32g4xx_hal_exti.c **** }
 1079              		.loc 1 575 1
 1080 0046 1846     		mov	r0, r3
 1081 0048 2437     		adds	r7, r7, #36
 1082              	.LCFI38:
 1083              		.cfi_def_cfa_offset 4
 1084 004a BD46     		mov	sp, r7
 1085              	.LCFI39:
 1086              		.cfi_def_cfa_register 13
 1087              		@ sp needed
 1088 004c 5DF8047B 		ldr	r7, [sp], #4
 1089              	.LCFI40:
 1090              		.cfi_restore 7
 1091              		.cfi_def_cfa_offset 0
ARM GAS  /tmp/ccMg6edV.s 			page 30


 1092 0050 7047     		bx	lr
 1093              	.L53:
 1094 0052 00BF     		.align	2
 1095              	.L52:
 1096 0054 14040140 		.word	1073808404
 1097              		.cfi_endproc
 1098              	.LFE331:
 1100              		.section	.text.HAL_EXTI_ClearPending,"ax",%progbits
 1101              		.align	1
 1102              		.global	HAL_EXTI_ClearPending
 1103              		.syntax unified
 1104              		.thumb
 1105              		.thumb_func
 1106              		.fpu fpv4-sp-d16
 1108              	HAL_EXTI_ClearPending:
 1109              	.LFB332:
 576:Drivers/STM32G4xx_HAL_Driver/Src/stm32g4xx_hal_exti.c **** 
 577:Drivers/STM32G4xx_HAL_Driver/Src/stm32g4xx_hal_exti.c **** 
 578:Drivers/STM32G4xx_HAL_Driver/Src/stm32g4xx_hal_exti.c **** /**
 579:Drivers/STM32G4xx_HAL_Driver/Src/stm32g4xx_hal_exti.c ****   * @brief  Clear interrupt pending bit of a dedicated line.
 580:Drivers/STM32G4xx_HAL_Driver/Src/stm32g4xx_hal_exti.c ****   * @param  hexti Exti handle.
 581:Drivers/STM32G4xx_HAL_Driver/Src/stm32g4xx_hal_exti.c ****   * @param  Edge unused
 582:Drivers/STM32G4xx_HAL_Driver/Src/stm32g4xx_hal_exti.c ****   * @retval None.
 583:Drivers/STM32G4xx_HAL_Driver/Src/stm32g4xx_hal_exti.c ****   */
 584:Drivers/STM32G4xx_HAL_Driver/Src/stm32g4xx_hal_exti.c **** void HAL_EXTI_ClearPending(EXTI_HandleTypeDef *hexti, uint32_t Edge)
 585:Drivers/STM32G4xx_HAL_Driver/Src/stm32g4xx_hal_exti.c **** {
 1110              		.loc 1 585 1
 1111              		.cfi_startproc
 1112              		@ args = 0, pretend = 0, frame = 24
 1113              		@ frame_needed = 1, uses_anonymous_args = 0
 1114              		@ link register save eliminated.
 1115 0000 80B4     		push	{r7}
 1116              	.LCFI41:
 1117              		.cfi_def_cfa_offset 4
 1118              		.cfi_offset 7, -4
 1119 0002 87B0     		sub	sp, sp, #28
 1120              	.LCFI42:
 1121              		.cfi_def_cfa_offset 32
 1122 0004 00AF     		add	r7, sp, #0
 1123              	.LCFI43:
 1124              		.cfi_def_cfa_register 7
 1125 0006 7860     		str	r0, [r7, #4]
 1126 0008 3960     		str	r1, [r7]
 586:Drivers/STM32G4xx_HAL_Driver/Src/stm32g4xx_hal_exti.c ****   __IO uint32_t *regaddr;
 587:Drivers/STM32G4xx_HAL_Driver/Src/stm32g4xx_hal_exti.c ****   uint32_t maskline;
 588:Drivers/STM32G4xx_HAL_Driver/Src/stm32g4xx_hal_exti.c ****   uint32_t offset;
 589:Drivers/STM32G4xx_HAL_Driver/Src/stm32g4xx_hal_exti.c **** 
 590:Drivers/STM32G4xx_HAL_Driver/Src/stm32g4xx_hal_exti.c ****   /* Check parameters */
 591:Drivers/STM32G4xx_HAL_Driver/Src/stm32g4xx_hal_exti.c ****   assert_param(IS_EXTI_LINE(hexti->Line));
 592:Drivers/STM32G4xx_HAL_Driver/Src/stm32g4xx_hal_exti.c ****   assert_param(IS_EXTI_CONFIG_LINE(hexti->Line));
 593:Drivers/STM32G4xx_HAL_Driver/Src/stm32g4xx_hal_exti.c ****   UNUSED(Edge);
 594:Drivers/STM32G4xx_HAL_Driver/Src/stm32g4xx_hal_exti.c **** 
 595:Drivers/STM32G4xx_HAL_Driver/Src/stm32g4xx_hal_exti.c ****   /* Compute line register offset */
 596:Drivers/STM32G4xx_HAL_Driver/Src/stm32g4xx_hal_exti.c ****   offset = ((hexti->Line & EXTI_REG_MASK) >> EXTI_REG_SHIFT);
 1127              		.loc 1 596 19
 1128 000a 7B68     		ldr	r3, [r7, #4]
 1129 000c 1B68     		ldr	r3, [r3]
ARM GAS  /tmp/ccMg6edV.s 			page 31


 1130              		.loc 1 596 43
 1131 000e 1B0C     		lsrs	r3, r3, #16
 1132              		.loc 1 596 10
 1133 0010 03F00103 		and	r3, r3, #1
 1134 0014 7B61     		str	r3, [r7, #20]
 597:Drivers/STM32G4xx_HAL_Driver/Src/stm32g4xx_hal_exti.c ****   /* Compute line mask */
 598:Drivers/STM32G4xx_HAL_Driver/Src/stm32g4xx_hal_exti.c ****   maskline = (1uL << (hexti->Line & EXTI_PIN_MASK));
 1135              		.loc 1 598 28
 1136 0016 7B68     		ldr	r3, [r7, #4]
 1137 0018 1B68     		ldr	r3, [r3]
 1138              		.loc 1 598 35
 1139 001a 03F01F03 		and	r3, r3, #31
 1140              		.loc 1 598 12
 1141 001e 0122     		movs	r2, #1
 1142 0020 02FA03F3 		lsl	r3, r2, r3
 1143 0024 3B61     		str	r3, [r7, #16]
 599:Drivers/STM32G4xx_HAL_Driver/Src/stm32g4xx_hal_exti.c **** 
 600:Drivers/STM32G4xx_HAL_Driver/Src/stm32g4xx_hal_exti.c ****   /* Get pending register address */
 601:Drivers/STM32G4xx_HAL_Driver/Src/stm32g4xx_hal_exti.c ****   regaddr = (&EXTI->PR1 + (EXTI_CONFIG_OFFSET * offset));
 1144              		.loc 1 601 25
 1145 0026 7B69     		ldr	r3, [r7, #20]
 1146 0028 5A01     		lsls	r2, r3, #5
 1147              		.loc 1 601 11
 1148 002a 064B     		ldr	r3, .L55
 1149 002c 1344     		add	r3, r3, r2
 1150 002e FB60     		str	r3, [r7, #12]
 602:Drivers/STM32G4xx_HAL_Driver/Src/stm32g4xx_hal_exti.c **** 
 603:Drivers/STM32G4xx_HAL_Driver/Src/stm32g4xx_hal_exti.c ****   /* Clear Pending bit */
 604:Drivers/STM32G4xx_HAL_Driver/Src/stm32g4xx_hal_exti.c ****   *regaddr =  maskline;
 1151              		.loc 1 604 12
 1152 0030 FB68     		ldr	r3, [r7, #12]
 1153 0032 3A69     		ldr	r2, [r7, #16]
 1154 0034 1A60     		str	r2, [r3]
 605:Drivers/STM32G4xx_HAL_Driver/Src/stm32g4xx_hal_exti.c **** }
 1155              		.loc 1 605 1
 1156 0036 00BF     		nop
 1157 0038 1C37     		adds	r7, r7, #28
 1158              	.LCFI44:
 1159              		.cfi_def_cfa_offset 4
 1160 003a BD46     		mov	sp, r7
 1161              	.LCFI45:
 1162              		.cfi_def_cfa_register 13
 1163              		@ sp needed
 1164 003c 5DF8047B 		ldr	r7, [sp], #4
 1165              	.LCFI46:
 1166              		.cfi_restore 7
 1167              		.cfi_def_cfa_offset 0
 1168 0040 7047     		bx	lr
 1169              	.L56:
 1170 0042 00BF     		.align	2
 1171              	.L55:
 1172 0044 14040140 		.word	1073808404
 1173              		.cfi_endproc
 1174              	.LFE332:
 1176              		.section	.text.HAL_EXTI_GenerateSWI,"ax",%progbits
 1177              		.align	1
 1178              		.global	HAL_EXTI_GenerateSWI
ARM GAS  /tmp/ccMg6edV.s 			page 32


 1179              		.syntax unified
 1180              		.thumb
 1181              		.thumb_func
 1182              		.fpu fpv4-sp-d16
 1184              	HAL_EXTI_GenerateSWI:
 1185              	.LFB333:
 606:Drivers/STM32G4xx_HAL_Driver/Src/stm32g4xx_hal_exti.c **** 
 607:Drivers/STM32G4xx_HAL_Driver/Src/stm32g4xx_hal_exti.c **** 
 608:Drivers/STM32G4xx_HAL_Driver/Src/stm32g4xx_hal_exti.c **** /**
 609:Drivers/STM32G4xx_HAL_Driver/Src/stm32g4xx_hal_exti.c ****   * @brief  Generate a software interrupt for a dedicated line.
 610:Drivers/STM32G4xx_HAL_Driver/Src/stm32g4xx_hal_exti.c ****   * @param  hexti Exti handle.
 611:Drivers/STM32G4xx_HAL_Driver/Src/stm32g4xx_hal_exti.c ****   * @retval None.
 612:Drivers/STM32G4xx_HAL_Driver/Src/stm32g4xx_hal_exti.c ****   */
 613:Drivers/STM32G4xx_HAL_Driver/Src/stm32g4xx_hal_exti.c **** void HAL_EXTI_GenerateSWI(EXTI_HandleTypeDef *hexti)
 614:Drivers/STM32G4xx_HAL_Driver/Src/stm32g4xx_hal_exti.c **** {
 1186              		.loc 1 614 1
 1187              		.cfi_startproc
 1188              		@ args = 0, pretend = 0, frame = 24
 1189              		@ frame_needed = 1, uses_anonymous_args = 0
 1190              		@ link register save eliminated.
 1191 0000 80B4     		push	{r7}
 1192              	.LCFI47:
 1193              		.cfi_def_cfa_offset 4
 1194              		.cfi_offset 7, -4
 1195 0002 87B0     		sub	sp, sp, #28
 1196              	.LCFI48:
 1197              		.cfi_def_cfa_offset 32
 1198 0004 00AF     		add	r7, sp, #0
 1199              	.LCFI49:
 1200              		.cfi_def_cfa_register 7
 1201 0006 7860     		str	r0, [r7, #4]
 615:Drivers/STM32G4xx_HAL_Driver/Src/stm32g4xx_hal_exti.c ****   __IO uint32_t *regaddr;
 616:Drivers/STM32G4xx_HAL_Driver/Src/stm32g4xx_hal_exti.c ****   uint32_t maskline;
 617:Drivers/STM32G4xx_HAL_Driver/Src/stm32g4xx_hal_exti.c ****   uint32_t offset;
 618:Drivers/STM32G4xx_HAL_Driver/Src/stm32g4xx_hal_exti.c **** 
 619:Drivers/STM32G4xx_HAL_Driver/Src/stm32g4xx_hal_exti.c ****   /* Check parameter */
 620:Drivers/STM32G4xx_HAL_Driver/Src/stm32g4xx_hal_exti.c ****   assert_param(IS_EXTI_LINE(hexti->Line));
 621:Drivers/STM32G4xx_HAL_Driver/Src/stm32g4xx_hal_exti.c ****   assert_param(IS_EXTI_CONFIG_LINE(hexti->Line));
 622:Drivers/STM32G4xx_HAL_Driver/Src/stm32g4xx_hal_exti.c **** 
 623:Drivers/STM32G4xx_HAL_Driver/Src/stm32g4xx_hal_exti.c ****   /* compute line register offset */
 624:Drivers/STM32G4xx_HAL_Driver/Src/stm32g4xx_hal_exti.c ****   offset = ((hexti->Line & EXTI_REG_MASK) >> EXTI_REG_SHIFT);
 1202              		.loc 1 624 19
 1203 0008 7B68     		ldr	r3, [r7, #4]
 1204 000a 1B68     		ldr	r3, [r3]
 1205              		.loc 1 624 43
 1206 000c 1B0C     		lsrs	r3, r3, #16
 1207              		.loc 1 624 10
 1208 000e 03F00103 		and	r3, r3, #1
 1209 0012 7B61     		str	r3, [r7, #20]
 625:Drivers/STM32G4xx_HAL_Driver/Src/stm32g4xx_hal_exti.c ****   /* compute line mask */
 626:Drivers/STM32G4xx_HAL_Driver/Src/stm32g4xx_hal_exti.c ****   maskline = (1uL << (hexti->Line & EXTI_PIN_MASK));
 1210              		.loc 1 626 28
 1211 0014 7B68     		ldr	r3, [r7, #4]
 1212 0016 1B68     		ldr	r3, [r3]
 1213              		.loc 1 626 35
 1214 0018 03F01F03 		and	r3, r3, #31
 1215              		.loc 1 626 12
ARM GAS  /tmp/ccMg6edV.s 			page 33


 1216 001c 0122     		movs	r2, #1
 1217 001e 02FA03F3 		lsl	r3, r2, r3
 1218 0022 3B61     		str	r3, [r7, #16]
 627:Drivers/STM32G4xx_HAL_Driver/Src/stm32g4xx_hal_exti.c **** 
 628:Drivers/STM32G4xx_HAL_Driver/Src/stm32g4xx_hal_exti.c ****   regaddr = (&EXTI->SWIER1 + (EXTI_CONFIG_OFFSET * offset));
 1219              		.loc 1 628 28
 1220 0024 7B69     		ldr	r3, [r7, #20]
 1221 0026 5A01     		lsls	r2, r3, #5
 1222              		.loc 1 628 11
 1223 0028 054B     		ldr	r3, .L58
 1224 002a 1344     		add	r3, r3, r2
 1225 002c FB60     		str	r3, [r7, #12]
 629:Drivers/STM32G4xx_HAL_Driver/Src/stm32g4xx_hal_exti.c ****   *regaddr = maskline;
 1226              		.loc 1 629 12
 1227 002e FB68     		ldr	r3, [r7, #12]
 1228 0030 3A69     		ldr	r2, [r7, #16]
 1229 0032 1A60     		str	r2, [r3]
 630:Drivers/STM32G4xx_HAL_Driver/Src/stm32g4xx_hal_exti.c **** }
 1230              		.loc 1 630 1
 1231 0034 00BF     		nop
 1232 0036 1C37     		adds	r7, r7, #28
 1233              	.LCFI50:
 1234              		.cfi_def_cfa_offset 4
 1235 0038 BD46     		mov	sp, r7
 1236              	.LCFI51:
 1237              		.cfi_def_cfa_register 13
 1238              		@ sp needed
 1239 003a 5DF8047B 		ldr	r7, [sp], #4
 1240              	.LCFI52:
 1241              		.cfi_restore 7
 1242              		.cfi_def_cfa_offset 0
 1243 003e 7047     		bx	lr
 1244              	.L59:
 1245              		.align	2
 1246              	.L58:
 1247 0040 10040140 		.word	1073808400
 1248              		.cfi_endproc
 1249              	.LFE333:
 1251              		.text
 1252              	.Letext0:
 1253              		.file 2 "/opt/gcc-arm-none-eabi-8-2019-q3-update/arm-none-eabi/include/machine/_default_types.h"
 1254              		.file 3 "/opt/gcc-arm-none-eabi-8-2019-q3-update/arm-none-eabi/include/sys/_stdint.h"
 1255              		.file 4 "Drivers/CMSIS/Include/core_cm4.h"
 1256              		.file 5 "Drivers/CMSIS/Device/ST/STM32G4xx/Include/system_stm32g4xx.h"
 1257              		.file 6 "Drivers/CMSIS/Device/ST/STM32G4xx/Include/stm32g474xx.h"
 1258              		.file 7 "Drivers/STM32G4xx_HAL_Driver/Inc/stm32g4xx_hal_def.h"
 1259              		.file 8 "Drivers/STM32G4xx_HAL_Driver/Inc/stm32g4xx_hal_exti.h"
 1260              		.file 9 "Drivers/STM32G4xx_HAL_Driver/Inc/stm32g4xx_hal_flash.h"
 1261              		.file 10 "Drivers/STM32G4xx_HAL_Driver/Inc/stm32g4xx_hal.h"
ARM GAS  /tmp/ccMg6edV.s 			page 34

