ARM GAS  /tmp/ccwcdcld.s 			page 1


   1              		.cpu cortex-m4
   2              		.eabi_attribute 27, 1
   3              		.eabi_attribute 28, 1
   4              		.eabi_attribute 20, 1
   5              		.eabi_attribute 21, 1
   6              		.eabi_attribute 23, 3
   7              		.eabi_attribute 24, 1
   8              		.eabi_attribute 25, 1
   9              		.eabi_attribute 26, 1
  10              		.eabi_attribute 30, 6
  11              		.eabi_attribute 34, 1
  12              		.eabi_attribute 18, 4
  13              		.file	"usb_device.c"
  14              		.text
  15              	.Ltext0:
  16              		.cfi_sections	.debug_frame
  17              		.comm	hUsbDeviceFS,708,4
  18              		.section	.text.MX_USB_Device_Init,"ax",%progbits
  19              		.align	1
  20              		.global	MX_USB_Device_Init
  21              		.arch armv7e-m
  22              		.syntax unified
  23              		.thumb
  24              		.thumb_func
  25              		.fpu fpv4-sp-d16
  27              	MX_USB_Device_Init:
  28              	.LFB328:
  29              		.file 1 "Src/usb_device.c"
   1:Src/usb_device.c **** /* USER CODE BEGIN Header */
   2:Src/usb_device.c **** /**
   3:Src/usb_device.c ****   ******************************************************************************
   4:Src/usb_device.c ****   * @file           : usb_device.c
   5:Src/usb_device.c ****   * @version        : v3.0_Cube
   6:Src/usb_device.c ****   * @brief          : This file implements the USB Device
   7:Src/usb_device.c ****   ******************************************************************************
   8:Src/usb_device.c ****   * @attention
   9:Src/usb_device.c ****   *
  10:Src/usb_device.c ****   * <h2><center>&copy; Copyright (c) 2019 STMicroelectronics.
  11:Src/usb_device.c ****   * All rights reserved.</center></h2>
  12:Src/usb_device.c ****   *
  13:Src/usb_device.c ****   * This software component is licensed by ST under Ultimate Liberty license
  14:Src/usb_device.c ****   * SLA0044, the "License"; You may not use this file except in compliance with
  15:Src/usb_device.c ****   * the License. You may obtain a copy of the License at:
  16:Src/usb_device.c ****   *                             www.st.com/SLA0044
  17:Src/usb_device.c ****   *
  18:Src/usb_device.c ****   ******************************************************************************
  19:Src/usb_device.c ****   */
  20:Src/usb_device.c **** /* USER CODE END Header */
  21:Src/usb_device.c **** 
  22:Src/usb_device.c **** /* Includes ------------------------------------------------------------------*/
  23:Src/usb_device.c ****  
  24:Src/usb_device.c **** #include "usb_device.h"
  25:Src/usb_device.c **** #include "usbd_core.h"
  26:Src/usb_device.c **** #include "usbd_desc.h"
  27:Src/usb_device.c **** #include "usb/usbd_rt.h"
  28:Src/usb_device.c **** //#include "usbd_cdc_if.h"
  29:Src/usb_device.c **** 
ARM GAS  /tmp/ccwcdcld.s 			page 2


  30:Src/usb_device.c **** /* USER CODE BEGIN Includes */
  31:Src/usb_device.c **** 
  32:Src/usb_device.c **** /* USER CODE END Includes */
  33:Src/usb_device.c **** 
  34:Src/usb_device.c **** /* USER CODE BEGIN PV */
  35:Src/usb_device.c **** /* Private variables ---------------------------------------------------------*/
  36:Src/usb_device.c **** 
  37:Src/usb_device.c **** /* USER CODE END PV */
  38:Src/usb_device.c **** 
  39:Src/usb_device.c **** /* USER CODE BEGIN PFP */
  40:Src/usb_device.c **** /* Private function prototypes -----------------------------------------------*/
  41:Src/usb_device.c **** 
  42:Src/usb_device.c **** /* USER CODE END PFP */
  43:Src/usb_device.c **** 
  44:Src/usb_device.c **** extern void Error_Handler(void);
  45:Src/usb_device.c **** /* USB Device Core handle declaration. */
  46:Src/usb_device.c **** USBD_HandleTypeDef hUsbDeviceFS;
  47:Src/usb_device.c **** extern USBD_DescriptorsTypeDef CDC_Desc;
  48:Src/usb_device.c **** 
  49:Src/usb_device.c **** /*
  50:Src/usb_device.c ****  * -- Insert your variables declaration here --
  51:Src/usb_device.c ****  */
  52:Src/usb_device.c **** /* USER CODE BEGIN 0 */
  53:Src/usb_device.c **** 
  54:Src/usb_device.c **** /* USER CODE END 0 */
  55:Src/usb_device.c **** 
  56:Src/usb_device.c **** /*
  57:Src/usb_device.c ****  * -- Insert your external function declaration here --
  58:Src/usb_device.c ****  */
  59:Src/usb_device.c **** /* USER CODE BEGIN 1 */
  60:Src/usb_device.c **** 
  61:Src/usb_device.c **** /* USER CODE END 1 */
  62:Src/usb_device.c **** 
  63:Src/usb_device.c **** /**
  64:Src/usb_device.c ****   * Init USB device Library, add supported class and start the library
  65:Src/usb_device.c ****   * @retval None
  66:Src/usb_device.c ****   */
  67:Src/usb_device.c **** void MX_USB_Device_Init(void)
  68:Src/usb_device.c **** {
  30              		.loc 1 68 1
  31              		.cfi_startproc
  32              		@ args = 0, pretend = 0, frame = 0
  33              		@ frame_needed = 1, uses_anonymous_args = 0
  34 0000 80B5     		push	{r7, lr}
  35              	.LCFI0:
  36              		.cfi_def_cfa_offset 8
  37              		.cfi_offset 7, -8
  38              		.cfi_offset 14, -4
  39 0002 00AF     		add	r7, sp, #0
  40              	.LCFI1:
  41              		.cfi_def_cfa_register 7
  69:Src/usb_device.c ****   /* USER CODE BEGIN USB_Device_Init_PreTreatment */
  70:Src/usb_device.c ****   
  71:Src/usb_device.c ****   /* USER CODE END USB_Device_Init_PreTreatment */
  72:Src/usb_device.c ****   
  73:Src/usb_device.c ****   /* Init Device Library, add supported class and start the library. */
  74:Src/usb_device.c ****   if (USBD_Init(&hUsbDeviceFS, &CDC_Desc, DEVICE_FS) != USBD_OK) {
ARM GAS  /tmp/ccwcdcld.s 			page 3


  42              		.loc 1 74 7
  43 0004 0022     		movs	r2, #0
  44 0006 0E49     		ldr	r1, .L6
  45 0008 0E48     		ldr	r0, .L6+4
  46 000a FFF7FEFF 		bl	USBD_Init
  47 000e 0346     		mov	r3, r0
  48              		.loc 1 74 6
  49 0010 002B     		cmp	r3, #0
  50 0012 01D0     		beq	.L2
  75:Src/usb_device.c ****     Error_Handler();
  51              		.loc 1 75 5
  52 0014 FFF7FEFF 		bl	Error_Handler
  53              	.L2:
  76:Src/usb_device.c ****   }
  77:Src/usb_device.c ****   if (USBD_RegisterClass(&hUsbDeviceFS, &USBD_RT) != USBD_OK) {
  54              		.loc 1 77 7
  55 0018 0B49     		ldr	r1, .L6+8
  56 001a 0A48     		ldr	r0, .L6+4
  57 001c FFF7FEFF 		bl	USBD_RegisterClass
  58 0020 0346     		mov	r3, r0
  59              		.loc 1 77 6
  60 0022 002B     		cmp	r3, #0
  61 0024 01D0     		beq	.L3
  78:Src/usb_device.c ****     Error_Handler();
  62              		.loc 1 78 5
  63 0026 FFF7FEFF 		bl	Error_Handler
  64              	.L3:
  79:Src/usb_device.c ****   }
  80:Src/usb_device.c ****   // if (USBD_CDC_RegisterInterface(&hUsbDeviceFS, &USBD_Interface_fops_FS) != USBD_OK) {
  81:Src/usb_device.c ****   //   Error_Handler();
  82:Src/usb_device.c ****   // }
  83:Src/usb_device.c ****   if (USBD_Start(&hUsbDeviceFS) != USBD_OK) {
  65              		.loc 1 83 7
  66 002a 0648     		ldr	r0, .L6+4
  67 002c FFF7FEFF 		bl	USBD_Start
  68 0030 0346     		mov	r3, r0
  69              		.loc 1 83 6
  70 0032 002B     		cmp	r3, #0
  71 0034 01D0     		beq	.L5
  84:Src/usb_device.c ****     Error_Handler();
  72              		.loc 1 84 5
  73 0036 FFF7FEFF 		bl	Error_Handler
  74              	.L5:
  85:Src/usb_device.c ****   }
  86:Src/usb_device.c ****   /* USER CODE BEGIN USB_Device_Init_PostTreatment */
  87:Src/usb_device.c ****   
  88:Src/usb_device.c ****   /* USER CODE END USB_Device_Init_PostTreatment */
  89:Src/usb_device.c **** }
  75              		.loc 1 89 1
  76 003a 00BF     		nop
  77 003c 80BD     		pop	{r7, pc}
  78              	.L7:
  79 003e 00BF     		.align	2
  80              	.L6:
  81 0040 00000000 		.word	CDC_Desc
  82 0044 00000000 		.word	hUsbDeviceFS
  83 0048 00000000 		.word	USBD_RT
ARM GAS  /tmp/ccwcdcld.s 			page 4


  84              		.cfi_endproc
  85              	.LFE328:
  87              		.text
  88              	.Letext0:
  89              		.file 2 "/opt/gcc-arm-none-eabi-8-2019-q3-update/arm-none-eabi/include/machine/_default_types.h"
  90              		.file 3 "/opt/gcc-arm-none-eabi-8-2019-q3-update/arm-none-eabi/include/sys/_stdint.h"
  91              		.file 4 "Drivers/CMSIS/Include/core_cm4.h"
  92              		.file 5 "Drivers/CMSIS/Device/ST/STM32G4xx/Include/system_stm32g4xx.h"
  93              		.file 6 "Drivers/STM32G4xx_HAL_Driver/Inc/stm32g4xx_hal_def.h"
  94              		.file 7 "Drivers/STM32G4xx_HAL_Driver/Inc/stm32g4xx_hal_flash.h"
  95              		.file 8 "Drivers/STM32G4xx_HAL_Driver/Inc/stm32g4xx_hal.h"
  96              		.file 9 "/opt/gcc-arm-none-eabi-8-2019-q3-update/lib/gcc/arm-none-eabi/8.3.1/include/stddef.h"
  97              		.file 10 "/opt/gcc-arm-none-eabi-8-2019-q3-update/arm-none-eabi/include/sys/_types.h"
  98              		.file 11 "/opt/gcc-arm-none-eabi-8-2019-q3-update/arm-none-eabi/include/sys/reent.h"
  99              		.file 12 "/opt/gcc-arm-none-eabi-8-2019-q3-update/arm-none-eabi/include/sys/lock.h"
 100              		.file 13 "/opt/gcc-arm-none-eabi-8-2019-q3-update/arm-none-eabi/include/stdlib.h"
 101              		.file 14 "Middlewares/ST/STM32_USB_Device_Library/Core/Inc/usbd_def.h"
 102              		.file 15 "Inc/usbd_desc.h"
 103              		.file 16 "Src/usb/usbd_rt.h"
ARM GAS  /tmp/ccwcdcld.s 			page 5


DEFINED SYMBOLS
                            *ABS*:0000000000000000 usb_device.c
                            *COM*:00000000000002c4 hUsbDeviceFS
     /tmp/ccwcdcld.s:19     .text.MX_USB_Device_Init:0000000000000000 $t
     /tmp/ccwcdcld.s:27     .text.MX_USB_Device_Init:0000000000000000 MX_USB_Device_Init
     /tmp/ccwcdcld.s:81     .text.MX_USB_Device_Init:0000000000000040 $d

UNDEFINED SYMBOLS
USBD_Init
Error_Handler
USBD_RegisterClass
USBD_Start
CDC_Desc
USBD_RT
