ARM GAS  /tmp/ccpi4Ild.s 			page 1


   1              		.cpu cortex-m4
   2              		.eabi_attribute 27, 1
   3              		.eabi_attribute 28, 1
   4              		.eabi_attribute 20, 1
   5              		.eabi_attribute 21, 1
   6              		.eabi_attribute 23, 3
   7              		.eabi_attribute 24, 1
   8              		.eabi_attribute 25, 1
   9              		.eabi_attribute 26, 1
  10              		.eabi_attribute 30, 6
  11              		.eabi_attribute 34, 1
  12              		.eabi_attribute 18, 4
  13              		.file	"usbd_conf.c"
  14              		.text
  15              	.Ltext0:
  16              		.cfi_sections	.debug_frame
  17              		.comm	hpcd_USB_FS,628,4
  18              		.section	.text.HAL_PCD_MspInit,"ax",%progbits
  19              		.align	1
  20              		.global	HAL_PCD_MspInit
  21              		.arch armv7e-m
  22              		.syntax unified
  23              		.thumb
  24              		.thumb_func
  25              		.fpu fpv4-sp-d16
  27              	HAL_PCD_MspInit:
  28              	.LFB328:
  29              		.file 1 "Src/usbd_conf.c"
   1:Src/usbd_conf.c **** /* USER CODE BEGIN Header */
   2:Src/usbd_conf.c **** /**
   3:Src/usbd_conf.c ****   ******************************************************************************
   4:Src/usbd_conf.c ****   * @file           : usbd_conf.c
   5:Src/usbd_conf.c ****   * @version        : v3.0_Cube
   6:Src/usbd_conf.c ****   * @brief          : This file implements the board support package for the USB device library
   7:Src/usbd_conf.c ****   ******************************************************************************
   8:Src/usbd_conf.c ****   * @attention
   9:Src/usbd_conf.c ****   *
  10:Src/usbd_conf.c ****   * <h2><center>&copy; Copyright (c) 2019 STMicroelectronics.
  11:Src/usbd_conf.c ****   * All rights reserved.</center></h2>
  12:Src/usbd_conf.c ****   *
  13:Src/usbd_conf.c ****   * This software component is licensed by ST under Ultimate Liberty license
  14:Src/usbd_conf.c ****   * SLA0044, the "License"; You may not use this file except in compliance with
  15:Src/usbd_conf.c ****   * the License. You may obtain a copy of the License at:
  16:Src/usbd_conf.c ****   *                             www.st.com/SLA0044
  17:Src/usbd_conf.c ****   *
  18:Src/usbd_conf.c ****   ******************************************************************************
  19:Src/usbd_conf.c ****   */
  20:Src/usbd_conf.c **** /* USER CODE END Header */
  21:Src/usbd_conf.c **** 
  22:Src/usbd_conf.c **** /* Includes ------------------------------------------------------------------*/
  23:Src/usbd_conf.c **** #include "stm32g4xx.h"
  24:Src/usbd_conf.c **** #include "stm32g4xx_hal.h"
  25:Src/usbd_conf.c **** #include "usbd_def.h"
  26:Src/usbd_conf.c **** #include "usbd_core.h"
  27:Src/usbd_conf.c **** 
  28:Src/usbd_conf.c **** #include "usbd_cdc.h"
  29:Src/usbd_conf.c **** 
ARM GAS  /tmp/ccpi4Ild.s 			page 2


  30:Src/usbd_conf.c **** /* USER CODE BEGIN Includes */
  31:Src/usbd_conf.c **** 
  32:Src/usbd_conf.c **** /* USER CODE END Includes */
  33:Src/usbd_conf.c **** 
  34:Src/usbd_conf.c **** /* Private typedef -----------------------------------------------------------*/
  35:Src/usbd_conf.c **** /* Private define ------------------------------------------------------------*/
  36:Src/usbd_conf.c **** /* Private macro -------------------------------------------------------------*/
  37:Src/usbd_conf.c **** 
  38:Src/usbd_conf.c **** /* Private variables ---------------------------------------------------------*/
  39:Src/usbd_conf.c **** /* USER CODE BEGIN PV */
  40:Src/usbd_conf.c **** 
  41:Src/usbd_conf.c **** /* USER CODE END PV */
  42:Src/usbd_conf.c **** 
  43:Src/usbd_conf.c **** PCD_HandleTypeDef hpcd_USB_FS;
  44:Src/usbd_conf.c **** void Error_Handler(void);
  45:Src/usbd_conf.c **** 
  46:Src/usbd_conf.c **** /* USER CODE BEGIN 0 */
  47:Src/usbd_conf.c **** 
  48:Src/usbd_conf.c **** /* USER CODE END 0 */
  49:Src/usbd_conf.c **** 
  50:Src/usbd_conf.c **** /* Exported function prototypes ----------------------------------------------*/
  51:Src/usbd_conf.c **** 
  52:Src/usbd_conf.c **** /* USER CODE BEGIN PFP */
  53:Src/usbd_conf.c **** /* Private function prototypes -----------------------------------------------*/
  54:Src/usbd_conf.c **** 
  55:Src/usbd_conf.c **** /* USER CODE END PFP */
  56:Src/usbd_conf.c **** 
  57:Src/usbd_conf.c **** /* Private functions ---------------------------------------------------------*/
  58:Src/usbd_conf.c **** static USBD_StatusTypeDef USBD_Get_USB_Status(HAL_StatusTypeDef hal_status);
  59:Src/usbd_conf.c **** /* USER CODE BEGIN 1 */
  60:Src/usbd_conf.c **** static void SystemClockConfig_Resume(void);
  61:Src/usbd_conf.c **** 
  62:Src/usbd_conf.c **** /* USER CODE END 1 */
  63:Src/usbd_conf.c **** extern void SystemClock_Config(void);
  64:Src/usbd_conf.c **** 
  65:Src/usbd_conf.c **** /*******************************************************************************
  66:Src/usbd_conf.c ****                        LL Driver Callbacks (PCD -> USB Device Library)
  67:Src/usbd_conf.c **** *******************************************************************************/
  68:Src/usbd_conf.c **** /* MSP Init */
  69:Src/usbd_conf.c **** 
  70:Src/usbd_conf.c **** #if (USE_HAL_PCD_REGISTER_CALLBACK == 1U)
  71:Src/usbd_conf.c **** static void HAL_PCD_MspInit(PCD_HandleTypeDef* pcdHandle)
  72:Src/usbd_conf.c **** #else
  73:Src/usbd_conf.c **** void HAL_PCD_MspInit(PCD_HandleTypeDef* pcdHandle)
  74:Src/usbd_conf.c **** #endif /* USE_HAL_PCD_REGISTER_CALLBACK */
  75:Src/usbd_conf.c **** {
  30              		.loc 1 75 1
  31              		.cfi_startproc
  32              		@ args = 0, pretend = 0, frame = 40
  33              		@ frame_needed = 1, uses_anonymous_args = 0
  34 0000 80B5     		push	{r7, lr}
  35              	.LCFI0:
  36              		.cfi_def_cfa_offset 8
  37              		.cfi_offset 7, -8
  38              		.cfi_offset 14, -4
  39 0002 8AB0     		sub	sp, sp, #40
  40              	.LCFI1:
ARM GAS  /tmp/ccpi4Ild.s 			page 3


  41              		.cfi_def_cfa_offset 48
  42 0004 00AF     		add	r7, sp, #0
  43              	.LCFI2:
  44              		.cfi_def_cfa_register 7
  45 0006 7860     		str	r0, [r7, #4]
  76:Src/usbd_conf.c ****   GPIO_InitTypeDef GPIO_InitStruct = {0};
  46              		.loc 1 76 20
  47 0008 07F11403 		add	r3, r7, #20
  48 000c 0022     		movs	r2, #0
  49 000e 1A60     		str	r2, [r3]
  50 0010 5A60     		str	r2, [r3, #4]
  51 0012 9A60     		str	r2, [r3, #8]
  52 0014 DA60     		str	r2, [r3, #12]
  53 0016 1A61     		str	r2, [r3, #16]
  77:Src/usbd_conf.c ****   if(pcdHandle->Instance==USB)
  54              		.loc 1 77 15
  55 0018 7B68     		ldr	r3, [r7, #4]
  56 001a 1B68     		ldr	r3, [r3]
  57              		.loc 1 77 5
  58 001c 1B4A     		ldr	r2, .L4
  59 001e 9342     		cmp	r3, r2
  60 0020 2FD1     		bne	.L3
  61              	.LBB2:
  78:Src/usbd_conf.c ****   {
  79:Src/usbd_conf.c ****   /* USER CODE BEGIN USB_MspInit 0 */
  80:Src/usbd_conf.c **** 
  81:Src/usbd_conf.c ****   /* USER CODE END USB_MspInit 0 */
  82:Src/usbd_conf.c ****   
  83:Src/usbd_conf.c ****     __HAL_RCC_GPIOA_CLK_ENABLE();
  62              		.loc 1 83 5
  63 0022 1B4B     		ldr	r3, .L4+4
  64 0024 DB6C     		ldr	r3, [r3, #76]
  65 0026 1A4A     		ldr	r2, .L4+4
  66 0028 43F00103 		orr	r3, r3, #1
  67 002c D364     		str	r3, [r2, #76]
  68 002e 184B     		ldr	r3, .L4+4
  69 0030 DB6C     		ldr	r3, [r3, #76]
  70 0032 03F00103 		and	r3, r3, #1
  71 0036 3B61     		str	r3, [r7, #16]
  72 0038 3B69     		ldr	r3, [r7, #16]
  73              	.LBE2:
  84:Src/usbd_conf.c ****     /**USB GPIO Configuration    
  85:Src/usbd_conf.c ****     PA11     ------> USB_DM
  86:Src/usbd_conf.c ****     PA12     ------> USB_DP 
  87:Src/usbd_conf.c ****     */
  88:Src/usbd_conf.c ****     GPIO_InitStruct.Pin = GPIO_PIN_11|GPIO_PIN_12;
  74              		.loc 1 88 25
  75 003a 4FF4C053 		mov	r3, #6144
  76 003e 7B61     		str	r3, [r7, #20]
  89:Src/usbd_conf.c ****     GPIO_InitStruct.Mode = GPIO_MODE_AF_PP;
  77              		.loc 1 89 26
  78 0040 0223     		movs	r3, #2
  79 0042 BB61     		str	r3, [r7, #24]
  90:Src/usbd_conf.c ****     GPIO_InitStruct.Pull = GPIO_NOPULL;
  80              		.loc 1 90 26
  81 0044 0023     		movs	r3, #0
  82 0046 FB61     		str	r3, [r7, #28]
ARM GAS  /tmp/ccpi4Ild.s 			page 4


  91:Src/usbd_conf.c ****     GPIO_InitStruct.Speed = GPIO_SPEED_FREQ_LOW;
  83              		.loc 1 91 27
  84 0048 0023     		movs	r3, #0
  85 004a 3B62     		str	r3, [r7, #32]
  92:Src/usbd_conf.c ****     HAL_GPIO_Init(GPIOA, &GPIO_InitStruct);
  86              		.loc 1 92 5
  87 004c 07F11403 		add	r3, r7, #20
  88 0050 1946     		mov	r1, r3
  89 0052 4FF09040 		mov	r0, #1207959552
  90 0056 FFF7FEFF 		bl	HAL_GPIO_Init
  91              	.LBB3:
  93:Src/usbd_conf.c **** 
  94:Src/usbd_conf.c ****     /* Peripheral clock enable */
  95:Src/usbd_conf.c ****     __HAL_RCC_USB_CLK_ENABLE();
  92              		.loc 1 95 5
  93 005a 0D4B     		ldr	r3, .L4+4
  94 005c 9B6D     		ldr	r3, [r3, #88]
  95 005e 0C4A     		ldr	r2, .L4+4
  96 0060 43F40003 		orr	r3, r3, #8388608
  97 0064 9365     		str	r3, [r2, #88]
  98 0066 0A4B     		ldr	r3, .L4+4
  99 0068 9B6D     		ldr	r3, [r3, #88]
 100 006a 03F40003 		and	r3, r3, #8388608
 101 006e FB60     		str	r3, [r7, #12]
 102 0070 FB68     		ldr	r3, [r7, #12]
 103              	.LBE3:
  96:Src/usbd_conf.c **** 
  97:Src/usbd_conf.c ****     /* Peripheral interrupt init */
  98:Src/usbd_conf.c ****     HAL_NVIC_SetPriority(USB_LP_IRQn, 0, 0);
 104              		.loc 1 98 5
 105 0072 0022     		movs	r2, #0
 106 0074 0021     		movs	r1, #0
 107 0076 1420     		movs	r0, #20
 108 0078 FFF7FEFF 		bl	HAL_NVIC_SetPriority
  99:Src/usbd_conf.c ****     HAL_NVIC_EnableIRQ(USB_LP_IRQn);
 109              		.loc 1 99 5
 110 007c 1420     		movs	r0, #20
 111 007e FFF7FEFF 		bl	HAL_NVIC_EnableIRQ
 112              	.L3:
 100:Src/usbd_conf.c ****   /* USER CODE BEGIN USB_MspInit 1 */
 101:Src/usbd_conf.c **** 
 102:Src/usbd_conf.c ****   /* USER CODE END USB_MspInit 1 */
 103:Src/usbd_conf.c ****   }
 104:Src/usbd_conf.c **** }
 113              		.loc 1 104 1
 114 0082 00BF     		nop
 115 0084 2837     		adds	r7, r7, #40
 116              	.LCFI3:
 117              		.cfi_def_cfa_offset 8
 118 0086 BD46     		mov	sp, r7
 119              	.LCFI4:
 120              		.cfi_def_cfa_register 13
 121              		@ sp needed
 122 0088 80BD     		pop	{r7, pc}
 123              	.L5:
 124 008a 00BF     		.align	2
 125              	.L4:
ARM GAS  /tmp/ccpi4Ild.s 			page 5


 126 008c 005C0040 		.word	1073765376
 127 0090 00100240 		.word	1073876992
 128              		.cfi_endproc
 129              	.LFE328:
 131              		.section	.text.HAL_PCD_MspDeInit,"ax",%progbits
 132              		.align	1
 133              		.global	HAL_PCD_MspDeInit
 134              		.syntax unified
 135              		.thumb
 136              		.thumb_func
 137              		.fpu fpv4-sp-d16
 139              	HAL_PCD_MspDeInit:
 140              	.LFB329:
 105:Src/usbd_conf.c **** 
 106:Src/usbd_conf.c **** #if (USE_HAL_PCD_REGISTER_CALLBACK == 1U)
 107:Src/usbd_conf.c **** static void HAL_PCD_MspDeInit(PCD_HandleTypeDef* pcdHandle)
 108:Src/usbd_conf.c **** #else
 109:Src/usbd_conf.c **** void HAL_PCD_MspDeInit(PCD_HandleTypeDef* pcdHandle)
 110:Src/usbd_conf.c **** #endif /* USE_HAL_PCD_REGISTER_CALLBACK */
 111:Src/usbd_conf.c **** {
 141              		.loc 1 111 1
 142              		.cfi_startproc
 143              		@ args = 0, pretend = 0, frame = 8
 144              		@ frame_needed = 1, uses_anonymous_args = 0
 145 0000 80B5     		push	{r7, lr}
 146              	.LCFI5:
 147              		.cfi_def_cfa_offset 8
 148              		.cfi_offset 7, -8
 149              		.cfi_offset 14, -4
 150 0002 82B0     		sub	sp, sp, #8
 151              	.LCFI6:
 152              		.cfi_def_cfa_offset 16
 153 0004 00AF     		add	r7, sp, #0
 154              	.LCFI7:
 155              		.cfi_def_cfa_register 7
 156 0006 7860     		str	r0, [r7, #4]
 112:Src/usbd_conf.c ****   if(pcdHandle->Instance==USB)
 157              		.loc 1 112 15
 158 0008 7B68     		ldr	r3, [r7, #4]
 159 000a 1B68     		ldr	r3, [r3]
 160              		.loc 1 112 5
 161 000c 0A4A     		ldr	r2, .L9
 162 000e 9342     		cmp	r3, r2
 163 0010 0ED1     		bne	.L8
 113:Src/usbd_conf.c ****   {
 114:Src/usbd_conf.c ****   /* USER CODE BEGIN USB_MspDeInit 0 */
 115:Src/usbd_conf.c **** 
 116:Src/usbd_conf.c ****   /* USER CODE END USB_MspDeInit 0 */
 117:Src/usbd_conf.c ****     /* Peripheral clock disable */
 118:Src/usbd_conf.c ****     __HAL_RCC_USB_CLK_DISABLE();
 164              		.loc 1 118 5
 165 0012 0A4B     		ldr	r3, .L9+4
 166 0014 9B6D     		ldr	r3, [r3, #88]
 167 0016 094A     		ldr	r2, .L9+4
 168 0018 23F40003 		bic	r3, r3, #8388608
 169 001c 9365     		str	r3, [r2, #88]
 119:Src/usbd_conf.c ****   
ARM GAS  /tmp/ccpi4Ild.s 			page 6


 120:Src/usbd_conf.c ****     /**USB GPIO Configuration    
 121:Src/usbd_conf.c ****     PA11     ------> USB_DM
 122:Src/usbd_conf.c ****     PA12     ------> USB_DP 
 123:Src/usbd_conf.c ****     */
 124:Src/usbd_conf.c ****     HAL_GPIO_DeInit(GPIOA, GPIO_PIN_11|GPIO_PIN_12);
 170              		.loc 1 124 5
 171 001e 4FF4C051 		mov	r1, #6144
 172 0022 4FF09040 		mov	r0, #1207959552
 173 0026 FFF7FEFF 		bl	HAL_GPIO_DeInit
 125:Src/usbd_conf.c **** 
 126:Src/usbd_conf.c ****     /* Peripheral interrupt Deinit*/
 127:Src/usbd_conf.c ****     HAL_NVIC_DisableIRQ(USB_LP_IRQn);
 174              		.loc 1 127 5
 175 002a 1420     		movs	r0, #20
 176 002c FFF7FEFF 		bl	HAL_NVIC_DisableIRQ
 177              	.L8:
 128:Src/usbd_conf.c **** 
 129:Src/usbd_conf.c ****   /* USER CODE BEGIN USB_MspDeInit 1 */
 130:Src/usbd_conf.c **** 
 131:Src/usbd_conf.c ****   /* USER CODE END USB_MspDeInit 1 */
 132:Src/usbd_conf.c ****   }
 133:Src/usbd_conf.c **** }
 178              		.loc 1 133 1
 179 0030 00BF     		nop
 180 0032 0837     		adds	r7, r7, #8
 181              	.LCFI8:
 182              		.cfi_def_cfa_offset 8
 183 0034 BD46     		mov	sp, r7
 184              	.LCFI9:
 185              		.cfi_def_cfa_register 13
 186              		@ sp needed
 187 0036 80BD     		pop	{r7, pc}
 188              	.L10:
 189              		.align	2
 190              	.L9:
 191 0038 005C0040 		.word	1073765376
 192 003c 00100240 		.word	1073876992
 193              		.cfi_endproc
 194              	.LFE329:
 196              		.section	.text.HAL_PCD_SetupStageCallback,"ax",%progbits
 197              		.align	1
 198              		.global	HAL_PCD_SetupStageCallback
 199              		.syntax unified
 200              		.thumb
 201              		.thumb_func
 202              		.fpu fpv4-sp-d16
 204              	HAL_PCD_SetupStageCallback:
 205              	.LFB330:
 134:Src/usbd_conf.c **** 
 135:Src/usbd_conf.c **** /**
 136:Src/usbd_conf.c ****   * @brief  Setup stage callback
 137:Src/usbd_conf.c ****   * @param  hpcd: PCD handle
 138:Src/usbd_conf.c ****   * @retval None
 139:Src/usbd_conf.c ****   */
 140:Src/usbd_conf.c **** #if (USE_HAL_PCD_REGISTER_CALLBACKS == 1U)
 141:Src/usbd_conf.c **** static void PCD_SetupStageCallback(PCD_HandleTypeDef *hpcd)
 142:Src/usbd_conf.c **** #else
ARM GAS  /tmp/ccpi4Ild.s 			page 7


 143:Src/usbd_conf.c **** void HAL_PCD_SetupStageCallback(PCD_HandleTypeDef *hpcd)
 144:Src/usbd_conf.c **** #endif /* USE_HAL_PCD_REGISTER_CALLBACKS */
 145:Src/usbd_conf.c **** {
 206              		.loc 1 145 1
 207              		.cfi_startproc
 208              		@ args = 0, pretend = 0, frame = 8
 209              		@ frame_needed = 1, uses_anonymous_args = 0
 210 0000 80B5     		push	{r7, lr}
 211              	.LCFI10:
 212              		.cfi_def_cfa_offset 8
 213              		.cfi_offset 7, -8
 214              		.cfi_offset 14, -4
 215 0002 82B0     		sub	sp, sp, #8
 216              	.LCFI11:
 217              		.cfi_def_cfa_offset 16
 218 0004 00AF     		add	r7, sp, #0
 219              	.LCFI12:
 220              		.cfi_def_cfa_register 7
 221 0006 7860     		str	r0, [r7, #4]
 146:Src/usbd_conf.c ****   /* USER CODE BEGIN HAL_PCD_SetupStageCallback_PreTreatment */
 147:Src/usbd_conf.c ****   
 148:Src/usbd_conf.c ****   /* USER CODE END  HAL_PCD_SetupStageCallback_PreTreatment */
 149:Src/usbd_conf.c ****   USBD_LL_SetupStage((USBD_HandleTypeDef*)hpcd->pData, (uint8_t *)hpcd->Setup);  
 222              		.loc 1 149 47
 223 0008 7B68     		ldr	r3, [r7, #4]
 224 000a D3F87022 		ldr	r2, [r3, #624]
 225              		.loc 1 149 67
 226 000e 7B68     		ldr	r3, [r7, #4]
 227 0010 03F50C73 		add	r3, r3, #560
 228              		.loc 1 149 3
 229 0014 1946     		mov	r1, r3
 230 0016 1046     		mov	r0, r2
 231 0018 FFF7FEFF 		bl	USBD_LL_SetupStage
 150:Src/usbd_conf.c ****   /* USER CODE BEGIN HAL_PCD_SetupStageCallback_PostTreatment */
 151:Src/usbd_conf.c ****   
 152:Src/usbd_conf.c ****   /* USER CODE END  HAL_PCD_SetupStageCallback_PostTreatment */
 153:Src/usbd_conf.c **** }
 232              		.loc 1 153 1
 233 001c 00BF     		nop
 234 001e 0837     		adds	r7, r7, #8
 235              	.LCFI13:
 236              		.cfi_def_cfa_offset 8
 237 0020 BD46     		mov	sp, r7
 238              	.LCFI14:
 239              		.cfi_def_cfa_register 13
 240              		@ sp needed
 241 0022 80BD     		pop	{r7, pc}
 242              		.cfi_endproc
 243              	.LFE330:
 245              		.section	.text.HAL_PCD_DataOutStageCallback,"ax",%progbits
 246              		.align	1
 247              		.global	HAL_PCD_DataOutStageCallback
 248              		.syntax unified
 249              		.thumb
 250              		.thumb_func
 251              		.fpu fpv4-sp-d16
 253              	HAL_PCD_DataOutStageCallback:
ARM GAS  /tmp/ccpi4Ild.s 			page 8


 254              	.LFB331:
 154:Src/usbd_conf.c **** 
 155:Src/usbd_conf.c **** /**
 156:Src/usbd_conf.c ****   * @brief  Data Out stage callback.
 157:Src/usbd_conf.c ****   * @param  hpcd: PCD handle
 158:Src/usbd_conf.c ****   * @param  epnum: Endpoint number
 159:Src/usbd_conf.c ****   * @retval None
 160:Src/usbd_conf.c ****   */
 161:Src/usbd_conf.c **** #if (USE_HAL_PCD_REGISTER_CALLBACKS == 1U)
 162:Src/usbd_conf.c **** static void PCD_DataOutStageCallback(PCD_HandleTypeDef *hpcd, uint8_t epnum)
 163:Src/usbd_conf.c **** #else
 164:Src/usbd_conf.c **** void HAL_PCD_DataOutStageCallback(PCD_HandleTypeDef *hpcd, uint8_t epnum)
 165:Src/usbd_conf.c **** #endif /* USE_HAL_PCD_REGISTER_CALLBACKS */
 166:Src/usbd_conf.c **** {
 255              		.loc 1 166 1
 256              		.cfi_startproc
 257              		@ args = 0, pretend = 0, frame = 8
 258              		@ frame_needed = 1, uses_anonymous_args = 0
 259 0000 80B5     		push	{r7, lr}
 260              	.LCFI15:
 261              		.cfi_def_cfa_offset 8
 262              		.cfi_offset 7, -8
 263              		.cfi_offset 14, -4
 264 0002 82B0     		sub	sp, sp, #8
 265              	.LCFI16:
 266              		.cfi_def_cfa_offset 16
 267 0004 00AF     		add	r7, sp, #0
 268              	.LCFI17:
 269              		.cfi_def_cfa_register 7
 270 0006 7860     		str	r0, [r7, #4]
 271 0008 0B46     		mov	r3, r1
 272 000a FB70     		strb	r3, [r7, #3]
 167:Src/usbd_conf.c ****   /* USER CODE BEGIN HAL_PCD_DataOutStageCallback_PreTreatment */
 168:Src/usbd_conf.c ****   
 169:Src/usbd_conf.c ****   /* USER CODE END HAL_PCD_DataOutStageCallback_PreTreatment */
 170:Src/usbd_conf.c ****   USBD_LL_DataOutStage((USBD_HandleTypeDef*)hpcd->pData, epnum, hpcd->OUT_ep[epnum].xfer_buff);  
 273              		.loc 1 170 49
 274 000c 7B68     		ldr	r3, [r7, #4]
 275 000e D3F87002 		ldr	r0, [r3, #624]
 276              		.loc 1 170 3
 277 0012 FB78     		ldrb	r3, [r7, #3]	@ zero_extendqisi2
 278 0014 7A68     		ldr	r2, [r7, #4]
 279 0016 5B01     		lsls	r3, r3, #5
 280 0018 1344     		add	r3, r3, r2
 281 001a 03F59E73 		add	r3, r3, #316
 282 001e 1A68     		ldr	r2, [r3]
 283 0020 FB78     		ldrb	r3, [r7, #3]	@ zero_extendqisi2
 284 0022 1946     		mov	r1, r3
 285 0024 FFF7FEFF 		bl	USBD_LL_DataOutStage
 171:Src/usbd_conf.c ****   /* USER CODE BEGIN HAL_PCD_DataOutStageCallback_PostTreatment */
 172:Src/usbd_conf.c ****   
 173:Src/usbd_conf.c ****   /* USER CODE END HAL_PCD_DataOutStageCallback_PostTreatment */
 174:Src/usbd_conf.c **** }
 286              		.loc 1 174 1
 287 0028 00BF     		nop
 288 002a 0837     		adds	r7, r7, #8
 289              	.LCFI18:
ARM GAS  /tmp/ccpi4Ild.s 			page 9


 290              		.cfi_def_cfa_offset 8
 291 002c BD46     		mov	sp, r7
 292              	.LCFI19:
 293              		.cfi_def_cfa_register 13
 294              		@ sp needed
 295 002e 80BD     		pop	{r7, pc}
 296              		.cfi_endproc
 297              	.LFE331:
 299              		.section	.text.HAL_PCD_DataInStageCallback,"ax",%progbits
 300              		.align	1
 301              		.global	HAL_PCD_DataInStageCallback
 302              		.syntax unified
 303              		.thumb
 304              		.thumb_func
 305              		.fpu fpv4-sp-d16
 307              	HAL_PCD_DataInStageCallback:
 308              	.LFB332:
 175:Src/usbd_conf.c **** 
 176:Src/usbd_conf.c **** /**
 177:Src/usbd_conf.c ****   * @brief  Data In stage callback.
 178:Src/usbd_conf.c ****   * @param  hpcd: PCD handle
 179:Src/usbd_conf.c ****   * @param  epnum: Endpoint number
 180:Src/usbd_conf.c ****   * @retval None
 181:Src/usbd_conf.c ****   */
 182:Src/usbd_conf.c **** #if (USE_HAL_PCD_REGISTER_CALLBACKS == 1U)
 183:Src/usbd_conf.c **** static void PCD_DataInStageCallback(PCD_HandleTypeDef *hpcd, uint8_t epnum)
 184:Src/usbd_conf.c **** #else
 185:Src/usbd_conf.c **** void HAL_PCD_DataInStageCallback(PCD_HandleTypeDef *hpcd, uint8_t epnum)
 186:Src/usbd_conf.c **** #endif /* USE_HAL_PCD_REGISTER_CALLBACKS */
 187:Src/usbd_conf.c **** {
 309              		.loc 1 187 1
 310              		.cfi_startproc
 311              		@ args = 0, pretend = 0, frame = 8
 312              		@ frame_needed = 1, uses_anonymous_args = 0
 313 0000 80B5     		push	{r7, lr}
 314              	.LCFI20:
 315              		.cfi_def_cfa_offset 8
 316              		.cfi_offset 7, -8
 317              		.cfi_offset 14, -4
 318 0002 82B0     		sub	sp, sp, #8
 319              	.LCFI21:
 320              		.cfi_def_cfa_offset 16
 321 0004 00AF     		add	r7, sp, #0
 322              	.LCFI22:
 323              		.cfi_def_cfa_register 7
 324 0006 7860     		str	r0, [r7, #4]
 325 0008 0B46     		mov	r3, r1
 326 000a FB70     		strb	r3, [r7, #3]
 188:Src/usbd_conf.c ****   /* USER CODE BEGIN HAL_PCD_DataInStageCallback_PreTreatment */
 189:Src/usbd_conf.c ****   
 190:Src/usbd_conf.c ****   /* USER CODE END HAL_PCD_DataInStageCallback_PreTreatment */  
 191:Src/usbd_conf.c ****   USBD_LL_DataInStage((USBD_HandleTypeDef*)hpcd->pData, epnum, hpcd->IN_ep[epnum].xfer_buff);  
 327              		.loc 1 191 48
 328 000c 7B68     		ldr	r3, [r7, #4]
 329 000e D3F87002 		ldr	r0, [r3, #624]
 330              		.loc 1 191 3
 331 0012 FB78     		ldrb	r3, [r7, #3]	@ zero_extendqisi2
ARM GAS  /tmp/ccpi4Ild.s 			page 10


 332 0014 7A68     		ldr	r2, [r7, #4]
 333 0016 5B01     		lsls	r3, r3, #5
 334 0018 1344     		add	r3, r3, r2
 335 001a 3C33     		adds	r3, r3, #60
 336 001c 1A68     		ldr	r2, [r3]
 337 001e FB78     		ldrb	r3, [r7, #3]	@ zero_extendqisi2
 338 0020 1946     		mov	r1, r3
 339 0022 FFF7FEFF 		bl	USBD_LL_DataInStage
 192:Src/usbd_conf.c ****   /* USER CODE BEGIN HAL_PCD_DataInStageCallback_PostTreatment  */
 193:Src/usbd_conf.c ****   
 194:Src/usbd_conf.c ****   /* USER CODE END HAL_PCD_DataInStageCallback_PostTreatment */
 195:Src/usbd_conf.c **** }
 340              		.loc 1 195 1
 341 0026 00BF     		nop
 342 0028 0837     		adds	r7, r7, #8
 343              	.LCFI23:
 344              		.cfi_def_cfa_offset 8
 345 002a BD46     		mov	sp, r7
 346              	.LCFI24:
 347              		.cfi_def_cfa_register 13
 348              		@ sp needed
 349 002c 80BD     		pop	{r7, pc}
 350              		.cfi_endproc
 351              	.LFE332:
 353              		.section	.text.HAL_PCD_SOFCallback,"ax",%progbits
 354              		.align	1
 355              		.global	HAL_PCD_SOFCallback
 356              		.syntax unified
 357              		.thumb
 358              		.thumb_func
 359              		.fpu fpv4-sp-d16
 361              	HAL_PCD_SOFCallback:
 362              	.LFB333:
 196:Src/usbd_conf.c **** 
 197:Src/usbd_conf.c **** /**
 198:Src/usbd_conf.c ****   * @brief  SOF callback.
 199:Src/usbd_conf.c ****   * @param  hpcd: PCD handle
 200:Src/usbd_conf.c ****   * @retval None
 201:Src/usbd_conf.c ****   */
 202:Src/usbd_conf.c **** #if (USE_HAL_PCD_REGISTER_CALLBACKS == 1U)
 203:Src/usbd_conf.c **** static void PCD_SOFCallback(PCD_HandleTypeDef *hpcd)
 204:Src/usbd_conf.c **** #else
 205:Src/usbd_conf.c **** void HAL_PCD_SOFCallback(PCD_HandleTypeDef *hpcd)
 206:Src/usbd_conf.c **** #endif /* USE_HAL_PCD_REGISTER_CALLBACKS */
 207:Src/usbd_conf.c **** {
 363              		.loc 1 207 1
 364              		.cfi_startproc
 365              		@ args = 0, pretend = 0, frame = 8
 366              		@ frame_needed = 1, uses_anonymous_args = 0
 367 0000 80B5     		push	{r7, lr}
 368              	.LCFI25:
 369              		.cfi_def_cfa_offset 8
 370              		.cfi_offset 7, -8
 371              		.cfi_offset 14, -4
 372 0002 82B0     		sub	sp, sp, #8
 373              	.LCFI26:
 374              		.cfi_def_cfa_offset 16
ARM GAS  /tmp/ccpi4Ild.s 			page 11


 375 0004 00AF     		add	r7, sp, #0
 376              	.LCFI27:
 377              		.cfi_def_cfa_register 7
 378 0006 7860     		str	r0, [r7, #4]
 208:Src/usbd_conf.c ****   /* USER CODE BEGIN HAL_PCD_SOFCallback_PreTreatment */
 209:Src/usbd_conf.c ****   
 210:Src/usbd_conf.c ****   /* USER CODE END HAL_PCD_SOFCallback_PreTreatment */  
 211:Src/usbd_conf.c ****   USBD_LL_SOF((USBD_HandleTypeDef*)hpcd->pData);  
 379              		.loc 1 211 40
 380 0008 7B68     		ldr	r3, [r7, #4]
 381 000a D3F87032 		ldr	r3, [r3, #624]
 382              		.loc 1 211 3
 383 000e 1846     		mov	r0, r3
 384 0010 FFF7FEFF 		bl	USBD_LL_SOF
 212:Src/usbd_conf.c ****   /* USER CODE BEGIN HAL_PCD_SOFCallback_PostTreatment */
 213:Src/usbd_conf.c ****   
 214:Src/usbd_conf.c ****   /* USER CODE END HAL_PCD_SOFCallback_PostTreatment */
 215:Src/usbd_conf.c **** }
 385              		.loc 1 215 1
 386 0014 00BF     		nop
 387 0016 0837     		adds	r7, r7, #8
 388              	.LCFI28:
 389              		.cfi_def_cfa_offset 8
 390 0018 BD46     		mov	sp, r7
 391              	.LCFI29:
 392              		.cfi_def_cfa_register 13
 393              		@ sp needed
 394 001a 80BD     		pop	{r7, pc}
 395              		.cfi_endproc
 396              	.LFE333:
 398              		.section	.text.HAL_PCD_ResetCallback,"ax",%progbits
 399              		.align	1
 400              		.global	HAL_PCD_ResetCallback
 401              		.syntax unified
 402              		.thumb
 403              		.thumb_func
 404              		.fpu fpv4-sp-d16
 406              	HAL_PCD_ResetCallback:
 407              	.LFB334:
 216:Src/usbd_conf.c **** 
 217:Src/usbd_conf.c **** /**
 218:Src/usbd_conf.c ****   * @brief  Reset callback.
 219:Src/usbd_conf.c ****   * @param  hpcd: PCD handle
 220:Src/usbd_conf.c ****   * @retval None
 221:Src/usbd_conf.c ****   */
 222:Src/usbd_conf.c **** #if (USE_HAL_PCD_REGISTER_CALLBACKS == 1U)
 223:Src/usbd_conf.c **** static void PCD_ResetCallback(PCD_HandleTypeDef *hpcd)
 224:Src/usbd_conf.c **** #else
 225:Src/usbd_conf.c **** void HAL_PCD_ResetCallback(PCD_HandleTypeDef *hpcd)
 226:Src/usbd_conf.c **** #endif /* USE_HAL_PCD_REGISTER_CALLBACKS */
 227:Src/usbd_conf.c **** { 
 408              		.loc 1 227 1
 409              		.cfi_startproc
 410              		@ args = 0, pretend = 0, frame = 16
 411              		@ frame_needed = 1, uses_anonymous_args = 0
 412 0000 80B5     		push	{r7, lr}
 413              	.LCFI30:
ARM GAS  /tmp/ccpi4Ild.s 			page 12


 414              		.cfi_def_cfa_offset 8
 415              		.cfi_offset 7, -8
 416              		.cfi_offset 14, -4
 417 0002 84B0     		sub	sp, sp, #16
 418              	.LCFI31:
 419              		.cfi_def_cfa_offset 24
 420 0004 00AF     		add	r7, sp, #0
 421              	.LCFI32:
 422              		.cfi_def_cfa_register 7
 423 0006 7860     		str	r0, [r7, #4]
 228:Src/usbd_conf.c ****   /* USER CODE BEGIN HAL_PCD_ResetCallback_PreTreatment */
 229:Src/usbd_conf.c ****   
 230:Src/usbd_conf.c ****   /* USER CODE END HAL_PCD_ResetCallback_PreTreatment */
 231:Src/usbd_conf.c ****   USBD_SpeedTypeDef speed = USBD_SPEED_FULL;
 424              		.loc 1 231 21
 425 0008 0123     		movs	r3, #1
 426 000a FB73     		strb	r3, [r7, #15]
 232:Src/usbd_conf.c **** 
 233:Src/usbd_conf.c ****   if ( hpcd->Init.speed != PCD_SPEED_FULL)
 427              		.loc 1 233 18
 428 000c 7B68     		ldr	r3, [r7, #4]
 429 000e 9B68     		ldr	r3, [r3, #8]
 430              		.loc 1 233 6
 431 0010 022B     		cmp	r3, #2
 432 0012 01D0     		beq	.L16
 234:Src/usbd_conf.c ****   {
 235:Src/usbd_conf.c ****     Error_Handler();
 433              		.loc 1 235 5
 434 0014 FFF7FEFF 		bl	Error_Handler
 435              	.L16:
 236:Src/usbd_conf.c ****   }
 237:Src/usbd_conf.c ****     /* Set Speed. */
 238:Src/usbd_conf.c ****   USBD_LL_SetSpeed((USBD_HandleTypeDef*)hpcd->pData, speed);
 436              		.loc 1 238 45
 437 0018 7B68     		ldr	r3, [r7, #4]
 438 001a D3F87032 		ldr	r3, [r3, #624]
 439              		.loc 1 238 3
 440 001e FA7B     		ldrb	r2, [r7, #15]	@ zero_extendqisi2
 441 0020 1146     		mov	r1, r2
 442 0022 1846     		mov	r0, r3
 443 0024 FFF7FEFF 		bl	USBD_LL_SetSpeed
 239:Src/usbd_conf.c **** 
 240:Src/usbd_conf.c ****   /* Reset Device. */
 241:Src/usbd_conf.c ****   USBD_LL_Reset((USBD_HandleTypeDef*)hpcd->pData);
 444              		.loc 1 241 42
 445 0028 7B68     		ldr	r3, [r7, #4]
 446 002a D3F87032 		ldr	r3, [r3, #624]
 447              		.loc 1 241 3
 448 002e 1846     		mov	r0, r3
 449 0030 FFF7FEFF 		bl	USBD_LL_Reset
 242:Src/usbd_conf.c ****   /* USER CODE BEGIN HAL_PCD_ResetCallback_PostTreatment */
 243:Src/usbd_conf.c ****   
 244:Src/usbd_conf.c ****   /* USER CODE END HAL_PCD_ResetCallback_PostTreatment */
 245:Src/usbd_conf.c **** }
 450              		.loc 1 245 1
 451 0034 00BF     		nop
 452 0036 1037     		adds	r7, r7, #16
ARM GAS  /tmp/ccpi4Ild.s 			page 13


 453              	.LCFI33:
 454              		.cfi_def_cfa_offset 8
 455 0038 BD46     		mov	sp, r7
 456              	.LCFI34:
 457              		.cfi_def_cfa_register 13
 458              		@ sp needed
 459 003a 80BD     		pop	{r7, pc}
 460              		.cfi_endproc
 461              	.LFE334:
 463              		.section	.text.HAL_PCD_SuspendCallback,"ax",%progbits
 464              		.align	1
 465              		.global	HAL_PCD_SuspendCallback
 466              		.syntax unified
 467              		.thumb
 468              		.thumb_func
 469              		.fpu fpv4-sp-d16
 471              	HAL_PCD_SuspendCallback:
 472              	.LFB335:
 246:Src/usbd_conf.c **** 
 247:Src/usbd_conf.c **** /**
 248:Src/usbd_conf.c ****   * @brief  Suspend callback.
 249:Src/usbd_conf.c ****   * When Low power mode is enabled the debug cannot be used (IAR, Keil doesn't support it)
 250:Src/usbd_conf.c ****   * @param  hpcd: PCD handle
 251:Src/usbd_conf.c ****   * @retval None
 252:Src/usbd_conf.c ****   */
 253:Src/usbd_conf.c **** #if (USE_HAL_PCD_REGISTER_CALLBACKS == 1U)
 254:Src/usbd_conf.c **** static void PCD_SuspendCallback(PCD_HandleTypeDef *hpcd)
 255:Src/usbd_conf.c **** #else
 256:Src/usbd_conf.c **** void HAL_PCD_SuspendCallback(PCD_HandleTypeDef *hpcd)
 257:Src/usbd_conf.c **** #endif /* USE_HAL_PCD_REGISTER_CALLBACKS */
 258:Src/usbd_conf.c **** {
 473              		.loc 1 258 1
 474              		.cfi_startproc
 475              		@ args = 0, pretend = 0, frame = 8
 476              		@ frame_needed = 1, uses_anonymous_args = 0
 477 0000 80B5     		push	{r7, lr}
 478              	.LCFI35:
 479              		.cfi_def_cfa_offset 8
 480              		.cfi_offset 7, -8
 481              		.cfi_offset 14, -4
 482 0002 82B0     		sub	sp, sp, #8
 483              	.LCFI36:
 484              		.cfi_def_cfa_offset 16
 485 0004 00AF     		add	r7, sp, #0
 486              	.LCFI37:
 487              		.cfi_def_cfa_register 7
 488 0006 7860     		str	r0, [r7, #4]
 259:Src/usbd_conf.c ****   /* USER CODE BEGIN HAL_PCD_SuspendCallback_PreTreatment */
 260:Src/usbd_conf.c ****   
 261:Src/usbd_conf.c ****   /* USER CODE END HAL_PCD_SuspendCallback_PreTreatment */
 262:Src/usbd_conf.c ****   /* Inform USB library that core enters in suspend Mode. */
 263:Src/usbd_conf.c ****   USBD_LL_Suspend((USBD_HandleTypeDef*)hpcd->pData);
 489              		.loc 1 263 44
 490 0008 7B68     		ldr	r3, [r7, #4]
 491 000a D3F87032 		ldr	r3, [r3, #624]
 492              		.loc 1 263 3
 493 000e 1846     		mov	r0, r3
ARM GAS  /tmp/ccpi4Ild.s 			page 14


 494 0010 FFF7FEFF 		bl	USBD_LL_Suspend
 264:Src/usbd_conf.c ****   /* Enter in STOP mode. */
 265:Src/usbd_conf.c ****   /* USER CODE BEGIN 2 */
 266:Src/usbd_conf.c ****   if (hpcd->Init.low_power_enable)
 495              		.loc 1 266 17
 496 0014 7B68     		ldr	r3, [r7, #4]
 497 0016 9B69     		ldr	r3, [r3, #24]
 498              		.loc 1 266 6
 499 0018 002B     		cmp	r3, #0
 500 001a 05D0     		beq	.L19
 267:Src/usbd_conf.c ****   {
 268:Src/usbd_conf.c ****     /* Set SLEEPDEEP bit and SleepOnExit of Cortex System Control Register. */
 269:Src/usbd_conf.c ****     SCB->SCR |= (uint32_t)((uint32_t)(SCB_SCR_SLEEPDEEP_Msk | SCB_SCR_SLEEPONEXIT_Msk));
 501              		.loc 1 269 14
 502 001c 044B     		ldr	r3, .L20
 503 001e 1B69     		ldr	r3, [r3, #16]
 504 0020 034A     		ldr	r2, .L20
 505 0022 43F00603 		orr	r3, r3, #6
 506 0026 1361     		str	r3, [r2, #16]
 507              	.L19:
 270:Src/usbd_conf.c ****   }
 271:Src/usbd_conf.c ****   /* USER CODE END 2 */
 272:Src/usbd_conf.c ****   /* USER CODE BEGIN HAL_PCD_SuspendCallback_PostTreatment */
 273:Src/usbd_conf.c ****   
 274:Src/usbd_conf.c ****   /* USER CODE END HAL_PCD_SuspendCallback_PostTreatment */
 275:Src/usbd_conf.c **** }
 508              		.loc 1 275 1
 509 0028 00BF     		nop
 510 002a 0837     		adds	r7, r7, #8
 511              	.LCFI38:
 512              		.cfi_def_cfa_offset 8
 513 002c BD46     		mov	sp, r7
 514              	.LCFI39:
 515              		.cfi_def_cfa_register 13
 516              		@ sp needed
 517 002e 80BD     		pop	{r7, pc}
 518              	.L21:
 519              		.align	2
 520              	.L20:
 521 0030 00ED00E0 		.word	-536810240
 522              		.cfi_endproc
 523              	.LFE335:
 525              		.section	.text.HAL_PCD_ResumeCallback,"ax",%progbits
 526              		.align	1
 527              		.global	HAL_PCD_ResumeCallback
 528              		.syntax unified
 529              		.thumb
 530              		.thumb_func
 531              		.fpu fpv4-sp-d16
 533              	HAL_PCD_ResumeCallback:
 534              	.LFB336:
 276:Src/usbd_conf.c **** 
 277:Src/usbd_conf.c **** /**
 278:Src/usbd_conf.c ****   * @brief  Resume callback.
 279:Src/usbd_conf.c ****   * When Low power mode is enabled the debug cannot be used (IAR, Keil doesn't support it)
 280:Src/usbd_conf.c ****   * @param  hpcd: PCD handle
 281:Src/usbd_conf.c ****   * @retval None
ARM GAS  /tmp/ccpi4Ild.s 			page 15


 282:Src/usbd_conf.c ****   */
 283:Src/usbd_conf.c **** #if (USE_HAL_PCD_REGISTER_CALLBACKS == 1U)
 284:Src/usbd_conf.c **** static void PCD_ResumeCallback(PCD_HandleTypeDef *hpcd)
 285:Src/usbd_conf.c **** #else
 286:Src/usbd_conf.c **** void HAL_PCD_ResumeCallback(PCD_HandleTypeDef *hpcd)
 287:Src/usbd_conf.c **** #endif /* USE_HAL_PCD_REGISTER_CALLBACKS */
 288:Src/usbd_conf.c **** {
 535              		.loc 1 288 1
 536              		.cfi_startproc
 537              		@ args = 0, pretend = 0, frame = 8
 538              		@ frame_needed = 1, uses_anonymous_args = 0
 539 0000 80B5     		push	{r7, lr}
 540              	.LCFI40:
 541              		.cfi_def_cfa_offset 8
 542              		.cfi_offset 7, -8
 543              		.cfi_offset 14, -4
 544 0002 82B0     		sub	sp, sp, #8
 545              	.LCFI41:
 546              		.cfi_def_cfa_offset 16
 547 0004 00AF     		add	r7, sp, #0
 548              	.LCFI42:
 549              		.cfi_def_cfa_register 7
 550 0006 7860     		str	r0, [r7, #4]
 289:Src/usbd_conf.c ****   /* USER CODE BEGIN HAL_PCD_ResumeCallback_PreTreatment */
 290:Src/usbd_conf.c ****   
 291:Src/usbd_conf.c ****   /* USER CODE END HAL_PCD_ResumeCallback_PreTreatment */
 292:Src/usbd_conf.c **** 
 293:Src/usbd_conf.c ****   /* USER CODE BEGIN 3 */
 294:Src/usbd_conf.c ****   if (hpcd->Init.low_power_enable)
 551              		.loc 1 294 17
 552 0008 7B68     		ldr	r3, [r7, #4]
 553 000a 9B69     		ldr	r3, [r3, #24]
 554              		.loc 1 294 6
 555 000c 002B     		cmp	r3, #0
 556 000e 07D0     		beq	.L23
 295:Src/usbd_conf.c ****   {
 296:Src/usbd_conf.c ****     /* Reset SLEEPDEEP bit of Cortex System Control Register. */
 297:Src/usbd_conf.c ****     SCB->SCR &= (uint32_t)~((uint32_t)(SCB_SCR_SLEEPDEEP_Msk | SCB_SCR_SLEEPONEXIT_Msk));
 557              		.loc 1 297 14
 558 0010 084B     		ldr	r3, .L24
 559 0012 1B69     		ldr	r3, [r3, #16]
 560 0014 074A     		ldr	r2, .L24
 561 0016 23F00603 		bic	r3, r3, #6
 562 001a 1361     		str	r3, [r2, #16]
 298:Src/usbd_conf.c ****     SystemClockConfig_Resume();
 563              		.loc 1 298 5
 564 001c FFF7FEFF 		bl	SystemClockConfig_Resume
 565              	.L23:
 299:Src/usbd_conf.c ****   }
 300:Src/usbd_conf.c ****   /* USER CODE END 3 */
 301:Src/usbd_conf.c ****  
 302:Src/usbd_conf.c ****   USBD_LL_Resume((USBD_HandleTypeDef*)hpcd->pData);
 566              		.loc 1 302 43
 567 0020 7B68     		ldr	r3, [r7, #4]
 568 0022 D3F87032 		ldr	r3, [r3, #624]
 569              		.loc 1 302 3
 570 0026 1846     		mov	r0, r3
ARM GAS  /tmp/ccpi4Ild.s 			page 16


 571 0028 FFF7FEFF 		bl	USBD_LL_Resume
 303:Src/usbd_conf.c ****   /* USER CODE BEGIN HAL_PCD_ResumeCallback_PostTreatment */
 304:Src/usbd_conf.c ****   
 305:Src/usbd_conf.c ****   /* USER CODE END HAL_PCD_ResumeCallback_PostTreatment */
 306:Src/usbd_conf.c **** }
 572              		.loc 1 306 1
 573 002c 00BF     		nop
 574 002e 0837     		adds	r7, r7, #8
 575              	.LCFI43:
 576              		.cfi_def_cfa_offset 8
 577 0030 BD46     		mov	sp, r7
 578              	.LCFI44:
 579              		.cfi_def_cfa_register 13
 580              		@ sp needed
 581 0032 80BD     		pop	{r7, pc}
 582              	.L25:
 583              		.align	2
 584              	.L24:
 585 0034 00ED00E0 		.word	-536810240
 586              		.cfi_endproc
 587              	.LFE336:
 589              		.section	.text.HAL_PCD_ISOOUTIncompleteCallback,"ax",%progbits
 590              		.align	1
 591              		.global	HAL_PCD_ISOOUTIncompleteCallback
 592              		.syntax unified
 593              		.thumb
 594              		.thumb_func
 595              		.fpu fpv4-sp-d16
 597              	HAL_PCD_ISOOUTIncompleteCallback:
 598              	.LFB337:
 307:Src/usbd_conf.c **** 
 308:Src/usbd_conf.c **** /**
 309:Src/usbd_conf.c ****   * @brief  ISOOUTIncomplete callback.
 310:Src/usbd_conf.c ****   * @param  hpcd: PCD handle
 311:Src/usbd_conf.c ****   * @param  epnum: Endpoint number
 312:Src/usbd_conf.c ****   * @retval None
 313:Src/usbd_conf.c ****   */
 314:Src/usbd_conf.c **** #if (USE_HAL_PCD_REGISTER_CALLBACKS == 1U)
 315:Src/usbd_conf.c **** static void PCD_ISOOUTIncompleteCallback(PCD_HandleTypeDef *hpcd, uint8_t epnum)
 316:Src/usbd_conf.c **** #else
 317:Src/usbd_conf.c **** void HAL_PCD_ISOOUTIncompleteCallback(PCD_HandleTypeDef *hpcd, uint8_t epnum)
 318:Src/usbd_conf.c **** #endif /* USE_HAL_PCD_REGISTER_CALLBACKS */
 319:Src/usbd_conf.c **** {
 599              		.loc 1 319 1
 600              		.cfi_startproc
 601              		@ args = 0, pretend = 0, frame = 8
 602              		@ frame_needed = 1, uses_anonymous_args = 0
 603 0000 80B5     		push	{r7, lr}
 604              	.LCFI45:
 605              		.cfi_def_cfa_offset 8
 606              		.cfi_offset 7, -8
 607              		.cfi_offset 14, -4
 608 0002 82B0     		sub	sp, sp, #8
 609              	.LCFI46:
 610              		.cfi_def_cfa_offset 16
 611 0004 00AF     		add	r7, sp, #0
 612              	.LCFI47:
ARM GAS  /tmp/ccpi4Ild.s 			page 17


 613              		.cfi_def_cfa_register 7
 614 0006 7860     		str	r0, [r7, #4]
 615 0008 0B46     		mov	r3, r1
 616 000a FB70     		strb	r3, [r7, #3]
 320:Src/usbd_conf.c ****   /* USER CODE BEGIN HAL_PCD_ISOOUTIncompleteCallback_PreTreatment */
 321:Src/usbd_conf.c ****   
 322:Src/usbd_conf.c ****   /* USER CODE END HAL_PCD_ISOOUTIncompleteCallback_PreTreatment */
 323:Src/usbd_conf.c ****   USBD_LL_IsoOUTIncomplete((USBD_HandleTypeDef*)hpcd->pData, epnum);
 617              		.loc 1 323 53
 618 000c 7B68     		ldr	r3, [r7, #4]
 619 000e D3F87032 		ldr	r3, [r3, #624]
 620              		.loc 1 323 3
 621 0012 FA78     		ldrb	r2, [r7, #3]	@ zero_extendqisi2
 622 0014 1146     		mov	r1, r2
 623 0016 1846     		mov	r0, r3
 624 0018 FFF7FEFF 		bl	USBD_LL_IsoOUTIncomplete
 324:Src/usbd_conf.c ****   /* USER CODE BEGIN HAL_PCD_ISOOUTIncompleteCallback_PostTreatment */
 325:Src/usbd_conf.c ****   
 326:Src/usbd_conf.c ****   /* USER CODE END HAL_PCD_ISOOUTIncompleteCallback_PostTreatment */
 327:Src/usbd_conf.c **** }
 625              		.loc 1 327 1
 626 001c 00BF     		nop
 627 001e 0837     		adds	r7, r7, #8
 628              	.LCFI48:
 629              		.cfi_def_cfa_offset 8
 630 0020 BD46     		mov	sp, r7
 631              	.LCFI49:
 632              		.cfi_def_cfa_register 13
 633              		@ sp needed
 634 0022 80BD     		pop	{r7, pc}
 635              		.cfi_endproc
 636              	.LFE337:
 638              		.section	.text.HAL_PCD_ISOINIncompleteCallback,"ax",%progbits
 639              		.align	1
 640              		.global	HAL_PCD_ISOINIncompleteCallback
 641              		.syntax unified
 642              		.thumb
 643              		.thumb_func
 644              		.fpu fpv4-sp-d16
 646              	HAL_PCD_ISOINIncompleteCallback:
 647              	.LFB338:
 328:Src/usbd_conf.c **** 
 329:Src/usbd_conf.c **** /**
 330:Src/usbd_conf.c ****   * @brief  ISOINIncomplete callback.
 331:Src/usbd_conf.c ****   * @param  hpcd: PCD handle
 332:Src/usbd_conf.c ****   * @param  epnum: Endpoint number
 333:Src/usbd_conf.c ****   * @retval None
 334:Src/usbd_conf.c ****   */
 335:Src/usbd_conf.c **** #if (USE_HAL_PCD_REGISTER_CALLBACKS == 1U)
 336:Src/usbd_conf.c **** static void PCD_ISOINIncompleteCallback(PCD_HandleTypeDef *hpcd, uint8_t epnum)
 337:Src/usbd_conf.c **** #else
 338:Src/usbd_conf.c **** void HAL_PCD_ISOINIncompleteCallback(PCD_HandleTypeDef *hpcd, uint8_t epnum)
 339:Src/usbd_conf.c **** #endif /* USE_HAL_PCD_REGISTER_CALLBACKS */
 340:Src/usbd_conf.c **** {
 648              		.loc 1 340 1
 649              		.cfi_startproc
 650              		@ args = 0, pretend = 0, frame = 8
ARM GAS  /tmp/ccpi4Ild.s 			page 18


 651              		@ frame_needed = 1, uses_anonymous_args = 0
 652 0000 80B5     		push	{r7, lr}
 653              	.LCFI50:
 654              		.cfi_def_cfa_offset 8
 655              		.cfi_offset 7, -8
 656              		.cfi_offset 14, -4
 657 0002 82B0     		sub	sp, sp, #8
 658              	.LCFI51:
 659              		.cfi_def_cfa_offset 16
 660 0004 00AF     		add	r7, sp, #0
 661              	.LCFI52:
 662              		.cfi_def_cfa_register 7
 663 0006 7860     		str	r0, [r7, #4]
 664 0008 0B46     		mov	r3, r1
 665 000a FB70     		strb	r3, [r7, #3]
 341:Src/usbd_conf.c ****   /* USER CODE BEGIN HAL_PCD_ISOINIncompleteCallback_PreTreatment */
 342:Src/usbd_conf.c ****   
 343:Src/usbd_conf.c ****   /* USER CODE END HAL_PCD_ISOINIncompleteCallback_PreTreatment */
 344:Src/usbd_conf.c ****   USBD_LL_IsoINIncomplete((USBD_HandleTypeDef*)hpcd->pData, epnum);
 666              		.loc 1 344 52
 667 000c 7B68     		ldr	r3, [r7, #4]
 668 000e D3F87032 		ldr	r3, [r3, #624]
 669              		.loc 1 344 3
 670 0012 FA78     		ldrb	r2, [r7, #3]	@ zero_extendqisi2
 671 0014 1146     		mov	r1, r2
 672 0016 1846     		mov	r0, r3
 673 0018 FFF7FEFF 		bl	USBD_LL_IsoINIncomplete
 345:Src/usbd_conf.c ****   /* USER CODE BEGIN HAL_PCD_ISOINIncompleteCallback_PostTreatment */
 346:Src/usbd_conf.c ****   
 347:Src/usbd_conf.c ****   /* USER CODE END HAL_PCD_ISOINIncompleteCallback_PostTreatment */
 348:Src/usbd_conf.c **** }
 674              		.loc 1 348 1
 675 001c 00BF     		nop
 676 001e 0837     		adds	r7, r7, #8
 677              	.LCFI53:
 678              		.cfi_def_cfa_offset 8
 679 0020 BD46     		mov	sp, r7
 680              	.LCFI54:
 681              		.cfi_def_cfa_register 13
 682              		@ sp needed
 683 0022 80BD     		pop	{r7, pc}
 684              		.cfi_endproc
 685              	.LFE338:
 687              		.section	.text.HAL_PCD_ConnectCallback,"ax",%progbits
 688              		.align	1
 689              		.global	HAL_PCD_ConnectCallback
 690              		.syntax unified
 691              		.thumb
 692              		.thumb_func
 693              		.fpu fpv4-sp-d16
 695              	HAL_PCD_ConnectCallback:
 696              	.LFB339:
 349:Src/usbd_conf.c **** 
 350:Src/usbd_conf.c **** /**
 351:Src/usbd_conf.c ****   * @brief  Connect callback.
 352:Src/usbd_conf.c ****   * @param  hpcd: PCD handle
 353:Src/usbd_conf.c ****   * @retval None
ARM GAS  /tmp/ccpi4Ild.s 			page 19


 354:Src/usbd_conf.c ****   */
 355:Src/usbd_conf.c **** #if (USE_HAL_PCD_REGISTER_CALLBACKS == 1U)
 356:Src/usbd_conf.c **** static void PCD_ConnectCallback(PCD_HandleTypeDef *hpcd)
 357:Src/usbd_conf.c **** #else
 358:Src/usbd_conf.c **** void HAL_PCD_ConnectCallback(PCD_HandleTypeDef *hpcd)
 359:Src/usbd_conf.c **** #endif /* USE_HAL_PCD_REGISTER_CALLBACKS */
 360:Src/usbd_conf.c **** {
 697              		.loc 1 360 1
 698              		.cfi_startproc
 699              		@ args = 0, pretend = 0, frame = 8
 700              		@ frame_needed = 1, uses_anonymous_args = 0
 701 0000 80B5     		push	{r7, lr}
 702              	.LCFI55:
 703              		.cfi_def_cfa_offset 8
 704              		.cfi_offset 7, -8
 705              		.cfi_offset 14, -4
 706 0002 82B0     		sub	sp, sp, #8
 707              	.LCFI56:
 708              		.cfi_def_cfa_offset 16
 709 0004 00AF     		add	r7, sp, #0
 710              	.LCFI57:
 711              		.cfi_def_cfa_register 7
 712 0006 7860     		str	r0, [r7, #4]
 361:Src/usbd_conf.c ****   /* USER CODE BEGIN HAL_PCD_ConnectCallback_PreTreatment */
 362:Src/usbd_conf.c ****   
 363:Src/usbd_conf.c ****   /* USER CODE END HAL_PCD_ConnectCallback_PreTreatment */
 364:Src/usbd_conf.c ****   USBD_LL_DevConnected((USBD_HandleTypeDef*)hpcd->pData);
 713              		.loc 1 364 49
 714 0008 7B68     		ldr	r3, [r7, #4]
 715 000a D3F87032 		ldr	r3, [r3, #624]
 716              		.loc 1 364 3
 717 000e 1846     		mov	r0, r3
 718 0010 FFF7FEFF 		bl	USBD_LL_DevConnected
 365:Src/usbd_conf.c ****   /* USER CODE BEGIN HAL_PCD_ConnectCallback_PostTreatment */
 366:Src/usbd_conf.c ****   
 367:Src/usbd_conf.c ****   /* USER CODE END HAL_PCD_ConnectCallback_PostTreatment */
 368:Src/usbd_conf.c **** }
 719              		.loc 1 368 1
 720 0014 00BF     		nop
 721 0016 0837     		adds	r7, r7, #8
 722              	.LCFI58:
 723              		.cfi_def_cfa_offset 8
 724 0018 BD46     		mov	sp, r7
 725              	.LCFI59:
 726              		.cfi_def_cfa_register 13
 727              		@ sp needed
 728 001a 80BD     		pop	{r7, pc}
 729              		.cfi_endproc
 730              	.LFE339:
 732              		.section	.text.HAL_PCD_DisconnectCallback,"ax",%progbits
 733              		.align	1
 734              		.global	HAL_PCD_DisconnectCallback
 735              		.syntax unified
 736              		.thumb
 737              		.thumb_func
 738              		.fpu fpv4-sp-d16
 740              	HAL_PCD_DisconnectCallback:
ARM GAS  /tmp/ccpi4Ild.s 			page 20


 741              	.LFB340:
 369:Src/usbd_conf.c **** 
 370:Src/usbd_conf.c **** /**
 371:Src/usbd_conf.c ****   * @brief  Disconnect callback.
 372:Src/usbd_conf.c ****   * @param  hpcd: PCD handle
 373:Src/usbd_conf.c ****   * @retval None
 374:Src/usbd_conf.c ****   */
 375:Src/usbd_conf.c **** #if (USE_HAL_PCD_REGISTER_CALLBACKS == 1U)
 376:Src/usbd_conf.c **** static void PCD_DisconnectCallback(PCD_HandleTypeDef *hpcd)
 377:Src/usbd_conf.c **** #else
 378:Src/usbd_conf.c **** void HAL_PCD_DisconnectCallback(PCD_HandleTypeDef *hpcd)
 379:Src/usbd_conf.c **** #endif /* USE_HAL_PCD_REGISTER_CALLBACKS */
 380:Src/usbd_conf.c **** {
 742              		.loc 1 380 1
 743              		.cfi_startproc
 744              		@ args = 0, pretend = 0, frame = 8
 745              		@ frame_needed = 1, uses_anonymous_args = 0
 746 0000 80B5     		push	{r7, lr}
 747              	.LCFI60:
 748              		.cfi_def_cfa_offset 8
 749              		.cfi_offset 7, -8
 750              		.cfi_offset 14, -4
 751 0002 82B0     		sub	sp, sp, #8
 752              	.LCFI61:
 753              		.cfi_def_cfa_offset 16
 754 0004 00AF     		add	r7, sp, #0
 755              	.LCFI62:
 756              		.cfi_def_cfa_register 7
 757 0006 7860     		str	r0, [r7, #4]
 381:Src/usbd_conf.c ****   /* USER CODE BEGIN HAL_PCD_DisconnectCallback_PreTreatment */
 382:Src/usbd_conf.c ****   
 383:Src/usbd_conf.c ****   /* USER CODE END HAL_PCD_DisconnectCallback_PreTreatment */
 384:Src/usbd_conf.c ****   USBD_LL_DevDisconnected((USBD_HandleTypeDef*)hpcd->pData);
 758              		.loc 1 384 52
 759 0008 7B68     		ldr	r3, [r7, #4]
 760 000a D3F87032 		ldr	r3, [r3, #624]
 761              		.loc 1 384 3
 762 000e 1846     		mov	r0, r3
 763 0010 FFF7FEFF 		bl	USBD_LL_DevDisconnected
 385:Src/usbd_conf.c ****   /* USER CODE BEGIN HAL_PCD_DisconnectCallback_PostTreatment */
 386:Src/usbd_conf.c ****   
 387:Src/usbd_conf.c ****   /* USER CODE END HAL_PCD_DisconnectCallback_PostTreatment */
 388:Src/usbd_conf.c **** }
 764              		.loc 1 388 1
 765 0014 00BF     		nop
 766 0016 0837     		adds	r7, r7, #8
 767              	.LCFI63:
 768              		.cfi_def_cfa_offset 8
 769 0018 BD46     		mov	sp, r7
 770              	.LCFI64:
 771              		.cfi_def_cfa_register 13
 772              		@ sp needed
 773 001a 80BD     		pop	{r7, pc}
 774              		.cfi_endproc
 775              	.LFE340:
 777              		.section	.text.USBD_LL_Init,"ax",%progbits
 778              		.align	1
ARM GAS  /tmp/ccpi4Ild.s 			page 21


 779              		.global	USBD_LL_Init
 780              		.syntax unified
 781              		.thumb
 782              		.thumb_func
 783              		.fpu fpv4-sp-d16
 785              	USBD_LL_Init:
 786              	.LFB341:
 389:Src/usbd_conf.c **** 
 390:Src/usbd_conf.c ****   /* USER CODE BEGIN LowLevelInterface */
 391:Src/usbd_conf.c ****   
 392:Src/usbd_conf.c ****   /* USER CODE END LowLevelInterface */
 393:Src/usbd_conf.c **** 
 394:Src/usbd_conf.c **** /*******************************************************************************
 395:Src/usbd_conf.c ****                        LL Driver Interface (USB Device Library --> PCD)
 396:Src/usbd_conf.c **** *******************************************************************************/
 397:Src/usbd_conf.c **** 
 398:Src/usbd_conf.c **** /**
 399:Src/usbd_conf.c ****   * @brief  Initializes the low level portion of the device driver.
 400:Src/usbd_conf.c ****   * @param  pdev: Device handle
 401:Src/usbd_conf.c ****   * @retval USBD status
 402:Src/usbd_conf.c ****   */
 403:Src/usbd_conf.c **** USBD_StatusTypeDef USBD_LL_Init(USBD_HandleTypeDef *pdev)
 404:Src/usbd_conf.c **** {
 787              		.loc 1 404 1
 788              		.cfi_startproc
 789              		@ args = 0, pretend = 0, frame = 8
 790              		@ frame_needed = 1, uses_anonymous_args = 0
 791 0000 80B5     		push	{r7, lr}
 792              	.LCFI65:
 793              		.cfi_def_cfa_offset 8
 794              		.cfi_offset 7, -8
 795              		.cfi_offset 14, -4
 796 0002 82B0     		sub	sp, sp, #8
 797              	.LCFI66:
 798              		.cfi_def_cfa_offset 16
 799 0004 00AF     		add	r7, sp, #0
 800              	.LCFI67:
 801              		.cfi_def_cfa_register 7
 802 0006 7860     		str	r0, [r7, #4]
 405:Src/usbd_conf.c ****   /* Init USB Ip. */
 406:Src/usbd_conf.c ****   hpcd_USB_FS.pData = pdev;
 803              		.loc 1 406 21
 804 0008 2B4A     		ldr	r2, .L33
 805 000a 7B68     		ldr	r3, [r7, #4]
 806 000c C2F87032 		str	r3, [r2, #624]
 407:Src/usbd_conf.c ****   /* Link the driver to the stack. */
 408:Src/usbd_conf.c ****   pdev->pData = &hpcd_USB_FS;
 807              		.loc 1 408 15
 808 0010 7B68     		ldr	r3, [r7, #4]
 809 0012 294A     		ldr	r2, .L33
 810 0014 C3F8C022 		str	r2, [r3, #704]
 409:Src/usbd_conf.c **** 
 410:Src/usbd_conf.c ****   hpcd_USB_FS.Instance = USB;
 811              		.loc 1 410 24
 812 0018 274B     		ldr	r3, .L33
 813 001a 284A     		ldr	r2, .L33+4
 814 001c 1A60     		str	r2, [r3]
ARM GAS  /tmp/ccpi4Ild.s 			page 22


 411:Src/usbd_conf.c ****   hpcd_USB_FS.Init.dev_endpoints = 8;
 815              		.loc 1 411 34
 816 001e 264B     		ldr	r3, .L33
 817 0020 0822     		movs	r2, #8
 818 0022 5A60     		str	r2, [r3, #4]
 412:Src/usbd_conf.c ****   hpcd_USB_FS.Init.speed = PCD_SPEED_FULL;
 819              		.loc 1 412 26
 820 0024 244B     		ldr	r3, .L33
 821 0026 0222     		movs	r2, #2
 822 0028 9A60     		str	r2, [r3, #8]
 413:Src/usbd_conf.c ****   hpcd_USB_FS.Init.phy_itface = PCD_PHY_EMBEDDED;
 823              		.loc 1 413 31
 824 002a 234B     		ldr	r3, .L33
 825 002c 0222     		movs	r2, #2
 826 002e 1A61     		str	r2, [r3, #16]
 414:Src/usbd_conf.c ****   hpcd_USB_FS.Init.Sof_enable = DISABLE;
 827              		.loc 1 414 31
 828 0030 214B     		ldr	r3, .L33
 829 0032 0022     		movs	r2, #0
 830 0034 5A61     		str	r2, [r3, #20]
 415:Src/usbd_conf.c ****   hpcd_USB_FS.Init.low_power_enable = DISABLE;
 831              		.loc 1 415 37
 832 0036 204B     		ldr	r3, .L33
 833 0038 0022     		movs	r2, #0
 834 003a 9A61     		str	r2, [r3, #24]
 416:Src/usbd_conf.c ****   hpcd_USB_FS.Init.lpm_enable = DISABLE;
 835              		.loc 1 416 31
 836 003c 1E4B     		ldr	r3, .L33
 837 003e 0022     		movs	r2, #0
 838 0040 DA61     		str	r2, [r3, #28]
 417:Src/usbd_conf.c ****   hpcd_USB_FS.Init.battery_charging_enable = DISABLE;
 839              		.loc 1 417 44
 840 0042 1D4B     		ldr	r3, .L33
 841 0044 0022     		movs	r2, #0
 842 0046 1A62     		str	r2, [r3, #32]
 418:Src/usbd_conf.c **** 
 419:Src/usbd_conf.c ****   #if (USE_HAL_PCD_REGISTER_CALLBACKS == 1U)
 420:Src/usbd_conf.c ****   /* register Msp Callbacks (before the Init) */
 421:Src/usbd_conf.c ****   HAL_PCD_RegisterCallback(&hpcd_USB_FS, HAL_PCD_MSPINIT_CB_ID, PCD_MspInit);
 422:Src/usbd_conf.c ****   HAL_PCD_RegisterCallback(&hpcd_USB_FS, HAL_PCD_MSPDEINIT_CB_ID, PCD_MspDeInit);
 423:Src/usbd_conf.c ****   #endif /* USE_HAL_PCD_REGISTER_CALLBACKS */
 424:Src/usbd_conf.c **** 
 425:Src/usbd_conf.c ****   if (HAL_PCD_Init(&hpcd_USB_FS) != HAL_OK)
 843              		.loc 1 425 7
 844 0048 1B48     		ldr	r0, .L33
 845 004a FFF7FEFF 		bl	HAL_PCD_Init
 846 004e 0346     		mov	r3, r0
 847              		.loc 1 425 6
 848 0050 002B     		cmp	r3, #0
 849 0052 01D0     		beq	.L31
 426:Src/usbd_conf.c ****   {
 427:Src/usbd_conf.c ****     Error_Handler( );
 850              		.loc 1 427 5
 851 0054 FFF7FEFF 		bl	Error_Handler
 852              	.L31:
 428:Src/usbd_conf.c ****   }
 429:Src/usbd_conf.c **** 
ARM GAS  /tmp/ccpi4Ild.s 			page 23


 430:Src/usbd_conf.c **** #if (USE_HAL_PCD_REGISTER_CALLBACKS == 1U)
 431:Src/usbd_conf.c ****   /* Register USB PCD CallBacks */
 432:Src/usbd_conf.c ****   HAL_PCD_RegisterCallback(&hpcd_USB_FS, HAL_PCD_SOF_CB_ID, PCD_SOFCallback);
 433:Src/usbd_conf.c ****   HAL_PCD_RegisterCallback(&hpcd_USB_FS, HAL_PCD_SETUPSTAGE_CB_ID, PCD_SetupStageCallback);
 434:Src/usbd_conf.c ****   HAL_PCD_RegisterCallback(&hpcd_USB_FS, HAL_PCD_RESET_CB_ID, PCD_ResetCallback);
 435:Src/usbd_conf.c ****   HAL_PCD_RegisterCallback(&hpcd_USB_FS, HAL_PCD_SUSPEND_CB_ID, PCD_SuspendCallback);
 436:Src/usbd_conf.c ****   HAL_PCD_RegisterCallback(&hpcd_USB_FS, HAL_PCD_RESUME_CB_ID, PCD_ResumeCallback);
 437:Src/usbd_conf.c ****   HAL_PCD_RegisterCallback(&hpcd_USB_FS, HAL_PCD_CONNECT_CB_ID, PCD_ConnectCallback);
 438:Src/usbd_conf.c ****   HAL_PCD_RegisterCallback(&hpcd_USB_FS, HAL_PCD_DISCONNECT_CB_ID, PCD_DisconnectCallback);
 439:Src/usbd_conf.c ****   /* USER CODE BEGIN RegisterCallBackFirstPart */
 440:Src/usbd_conf.c ****   
 441:Src/usbd_conf.c ****   /* USER CODE END RegisterCallBackFirstPart */
 442:Src/usbd_conf.c ****   HAL_PCD_RegisterDataOutStageCallback(&hpcd_USB_FS, PCD_DataOutStageCallback);
 443:Src/usbd_conf.c ****   HAL_PCD_RegisterDataInStageCallback(&hpcd_USB_FS, PCD_DataInStageCallback);
 444:Src/usbd_conf.c ****   HAL_PCD_RegisterIsoOutIncpltCallback(&hpcd_USB_FS, PCD_ISOOUTIncompleteCallback);
 445:Src/usbd_conf.c ****   HAL_PCD_RegisterIsoInIncpltCallback(&hpcd_USB_FS, PCD_ISOINIncompleteCallback);
 446:Src/usbd_conf.c ****   /* USER CODE BEGIN RegisterCallBackSecondPart */
 447:Src/usbd_conf.c ****   
 448:Src/usbd_conf.c ****   /* USER CODE END RegisterCallBackSecondPart */
 449:Src/usbd_conf.c **** #endif /* USE_HAL_PCD_REGISTER_CALLBACKS */
 450:Src/usbd_conf.c ****   /* USER CODE BEGIN EndPoint_Configuration */
 451:Src/usbd_conf.c ****   HAL_PCDEx_PMAConfig((PCD_HandleTypeDef*)pdev->pData , 0x00 , PCD_SNG_BUF, 0x18);
 853              		.loc 1 451 47
 854 0058 7B68     		ldr	r3, [r7, #4]
 855 005a D3F8C002 		ldr	r0, [r3, #704]
 856              		.loc 1 451 3
 857 005e 1823     		movs	r3, #24
 858 0060 0022     		movs	r2, #0
 859 0062 0021     		movs	r1, #0
 860 0064 FFF7FEFF 		bl	HAL_PCDEx_PMAConfig
 452:Src/usbd_conf.c ****   HAL_PCDEx_PMAConfig((PCD_HandleTypeDef*)pdev->pData , 0x80 , PCD_SNG_BUF, 0x58);
 861              		.loc 1 452 47
 862 0068 7B68     		ldr	r3, [r7, #4]
 863 006a D3F8C002 		ldr	r0, [r3, #704]
 864              		.loc 1 452 3
 865 006e 5823     		movs	r3, #88
 866 0070 0022     		movs	r2, #0
 867 0072 8021     		movs	r1, #128
 868 0074 FFF7FEFF 		bl	HAL_PCDEx_PMAConfig
 453:Src/usbd_conf.c ****   /* USER CODE END EndPoint_Configuration */
 454:Src/usbd_conf.c ****   /* USER CODE BEGIN EndPoint_Configuration_CDC */
 455:Src/usbd_conf.c ****   HAL_PCDEx_PMAConfig((PCD_HandleTypeDef*)pdev->pData , 0x81 , PCD_SNG_BUF, 0xC0);
 869              		.loc 1 455 47
 870 0078 7B68     		ldr	r3, [r7, #4]
 871 007a D3F8C002 		ldr	r0, [r3, #704]
 872              		.loc 1 455 3
 873 007e C023     		movs	r3, #192
 874 0080 0022     		movs	r2, #0
 875 0082 8121     		movs	r1, #129
 876 0084 FFF7FEFF 		bl	HAL_PCDEx_PMAConfig
 456:Src/usbd_conf.c ****   HAL_PCDEx_PMAConfig((PCD_HandleTypeDef*)pdev->pData , 0x01 , PCD_SNG_BUF, 0x110);
 877              		.loc 1 456 47
 878 0088 7B68     		ldr	r3, [r7, #4]
 879 008a D3F8C002 		ldr	r0, [r3, #704]
 880              		.loc 1 456 3
 881 008e 4FF48873 		mov	r3, #272
 882 0092 0022     		movs	r2, #0
ARM GAS  /tmp/ccpi4Ild.s 			page 24


 883 0094 0121     		movs	r1, #1
 884 0096 FFF7FEFF 		bl	HAL_PCDEx_PMAConfig
 457:Src/usbd_conf.c ****   HAL_PCDEx_PMAConfig((PCD_HandleTypeDef*)pdev->pData , 0x82 , PCD_SNG_BUF, 0x100);
 885              		.loc 1 457 47
 886 009a 7B68     		ldr	r3, [r7, #4]
 887 009c D3F8C002 		ldr	r0, [r3, #704]
 888              		.loc 1 457 3
 889 00a0 4FF48073 		mov	r3, #256
 890 00a4 0022     		movs	r2, #0
 891 00a6 8221     		movs	r1, #130
 892 00a8 FFF7FEFF 		bl	HAL_PCDEx_PMAConfig
 458:Src/usbd_conf.c ****   /* USER CODE END EndPoint_Configuration_CDC */
 459:Src/usbd_conf.c ****   return USBD_OK;
 893              		.loc 1 459 10
 894 00ac 0023     		movs	r3, #0
 460:Src/usbd_conf.c **** }
 895              		.loc 1 460 1
 896 00ae 1846     		mov	r0, r3
 897 00b0 0837     		adds	r7, r7, #8
 898              	.LCFI68:
 899              		.cfi_def_cfa_offset 8
 900 00b2 BD46     		mov	sp, r7
 901              	.LCFI69:
 902              		.cfi_def_cfa_register 13
 903              		@ sp needed
 904 00b4 80BD     		pop	{r7, pc}
 905              	.L34:
 906 00b6 00BF     		.align	2
 907              	.L33:
 908 00b8 00000000 		.word	hpcd_USB_FS
 909 00bc 005C0040 		.word	1073765376
 910              		.cfi_endproc
 911              	.LFE341:
 913              		.section	.text.USBD_LL_DeInit,"ax",%progbits
 914              		.align	1
 915              		.global	USBD_LL_DeInit
 916              		.syntax unified
 917              		.thumb
 918              		.thumb_func
 919              		.fpu fpv4-sp-d16
 921              	USBD_LL_DeInit:
 922              	.LFB342:
 461:Src/usbd_conf.c **** 
 462:Src/usbd_conf.c **** /**
 463:Src/usbd_conf.c ****   * @brief  De-Initializes the low level portion of the device driver.
 464:Src/usbd_conf.c ****   * @param  pdev: Device handle
 465:Src/usbd_conf.c ****   * @retval USBD status
 466:Src/usbd_conf.c ****   */
 467:Src/usbd_conf.c **** USBD_StatusTypeDef USBD_LL_DeInit(USBD_HandleTypeDef *pdev)
 468:Src/usbd_conf.c **** {
 923              		.loc 1 468 1
 924              		.cfi_startproc
 925              		@ args = 0, pretend = 0, frame = 16
 926              		@ frame_needed = 1, uses_anonymous_args = 0
 927 0000 80B5     		push	{r7, lr}
 928              	.LCFI70:
 929              		.cfi_def_cfa_offset 8
ARM GAS  /tmp/ccpi4Ild.s 			page 25


 930              		.cfi_offset 7, -8
 931              		.cfi_offset 14, -4
 932 0002 84B0     		sub	sp, sp, #16
 933              	.LCFI71:
 934              		.cfi_def_cfa_offset 24
 935 0004 00AF     		add	r7, sp, #0
 936              	.LCFI72:
 937              		.cfi_def_cfa_register 7
 938 0006 7860     		str	r0, [r7, #4]
 469:Src/usbd_conf.c ****   HAL_StatusTypeDef hal_status = HAL_OK;
 939              		.loc 1 469 21
 940 0008 0023     		movs	r3, #0
 941 000a FB73     		strb	r3, [r7, #15]
 470:Src/usbd_conf.c ****   USBD_StatusTypeDef usb_status = USBD_OK;
 942              		.loc 1 470 22
 943 000c 0023     		movs	r3, #0
 944 000e BB73     		strb	r3, [r7, #14]
 471:Src/usbd_conf.c **** 
 472:Src/usbd_conf.c ****   hal_status = HAL_PCD_DeInit(pdev->pData);
 945              		.loc 1 472 35
 946 0010 7B68     		ldr	r3, [r7, #4]
 947 0012 D3F8C032 		ldr	r3, [r3, #704]
 948              		.loc 1 472 16
 949 0016 1846     		mov	r0, r3
 950 0018 FFF7FEFF 		bl	HAL_PCD_DeInit
 951 001c 0346     		mov	r3, r0
 952 001e FB73     		strb	r3, [r7, #15]
 473:Src/usbd_conf.c **** 
 474:Src/usbd_conf.c ****   usb_status =  USBD_Get_USB_Status(hal_status);
 953              		.loc 1 474 17
 954 0020 FB7B     		ldrb	r3, [r7, #15]	@ zero_extendqisi2
 955 0022 1846     		mov	r0, r3
 956 0024 FFF7FEFF 		bl	USBD_Get_USB_Status
 957 0028 0346     		mov	r3, r0
 958 002a BB73     		strb	r3, [r7, #14]
 475:Src/usbd_conf.c ****  
 476:Src/usbd_conf.c ****   return usb_status; 
 959              		.loc 1 476 10
 960 002c BB7B     		ldrb	r3, [r7, #14]	@ zero_extendqisi2
 477:Src/usbd_conf.c **** }
 961              		.loc 1 477 1
 962 002e 1846     		mov	r0, r3
 963 0030 1037     		adds	r7, r7, #16
 964              	.LCFI73:
 965              		.cfi_def_cfa_offset 8
 966 0032 BD46     		mov	sp, r7
 967              	.LCFI74:
 968              		.cfi_def_cfa_register 13
 969              		@ sp needed
 970 0034 80BD     		pop	{r7, pc}
 971              		.cfi_endproc
 972              	.LFE342:
 974              		.section	.text.USBD_LL_Start,"ax",%progbits
 975              		.align	1
 976              		.global	USBD_LL_Start
 977              		.syntax unified
 978              		.thumb
ARM GAS  /tmp/ccpi4Ild.s 			page 26


 979              		.thumb_func
 980              		.fpu fpv4-sp-d16
 982              	USBD_LL_Start:
 983              	.LFB343:
 478:Src/usbd_conf.c **** 
 479:Src/usbd_conf.c **** /**
 480:Src/usbd_conf.c ****   * @brief  Starts the low level portion of the device driver.
 481:Src/usbd_conf.c ****   * @param  pdev: Device handle
 482:Src/usbd_conf.c ****   * @retval USBD status
 483:Src/usbd_conf.c ****   */
 484:Src/usbd_conf.c **** USBD_StatusTypeDef USBD_LL_Start(USBD_HandleTypeDef *pdev)
 485:Src/usbd_conf.c **** {
 984              		.loc 1 485 1
 985              		.cfi_startproc
 986              		@ args = 0, pretend = 0, frame = 16
 987              		@ frame_needed = 1, uses_anonymous_args = 0
 988 0000 80B5     		push	{r7, lr}
 989              	.LCFI75:
 990              		.cfi_def_cfa_offset 8
 991              		.cfi_offset 7, -8
 992              		.cfi_offset 14, -4
 993 0002 84B0     		sub	sp, sp, #16
 994              	.LCFI76:
 995              		.cfi_def_cfa_offset 24
 996 0004 00AF     		add	r7, sp, #0
 997              	.LCFI77:
 998              		.cfi_def_cfa_register 7
 999 0006 7860     		str	r0, [r7, #4]
 486:Src/usbd_conf.c ****   HAL_StatusTypeDef hal_status = HAL_OK;
 1000              		.loc 1 486 21
 1001 0008 0023     		movs	r3, #0
 1002 000a FB73     		strb	r3, [r7, #15]
 487:Src/usbd_conf.c ****   USBD_StatusTypeDef usb_status = USBD_OK;
 1003              		.loc 1 487 22
 1004 000c 0023     		movs	r3, #0
 1005 000e BB73     		strb	r3, [r7, #14]
 488:Src/usbd_conf.c ****  
 489:Src/usbd_conf.c ****   hal_status = HAL_PCD_Start(pdev->pData);
 1006              		.loc 1 489 34
 1007 0010 7B68     		ldr	r3, [r7, #4]
 1008 0012 D3F8C032 		ldr	r3, [r3, #704]
 1009              		.loc 1 489 16
 1010 0016 1846     		mov	r0, r3
 1011 0018 FFF7FEFF 		bl	HAL_PCD_Start
 1012 001c 0346     		mov	r3, r0
 1013 001e FB73     		strb	r3, [r7, #15]
 490:Src/usbd_conf.c ****      
 491:Src/usbd_conf.c ****   usb_status =  USBD_Get_USB_Status(hal_status);
 1014              		.loc 1 491 17
 1015 0020 FB7B     		ldrb	r3, [r7, #15]	@ zero_extendqisi2
 1016 0022 1846     		mov	r0, r3
 1017 0024 FFF7FEFF 		bl	USBD_Get_USB_Status
 1018 0028 0346     		mov	r3, r0
 1019 002a BB73     		strb	r3, [r7, #14]
 492:Src/usbd_conf.c ****   
 493:Src/usbd_conf.c ****   return usb_status;
 1020              		.loc 1 493 10
ARM GAS  /tmp/ccpi4Ild.s 			page 27


 1021 002c BB7B     		ldrb	r3, [r7, #14]	@ zero_extendqisi2
 494:Src/usbd_conf.c **** }
 1022              		.loc 1 494 1
 1023 002e 1846     		mov	r0, r3
 1024 0030 1037     		adds	r7, r7, #16
 1025              	.LCFI78:
 1026              		.cfi_def_cfa_offset 8
 1027 0032 BD46     		mov	sp, r7
 1028              	.LCFI79:
 1029              		.cfi_def_cfa_register 13
 1030              		@ sp needed
 1031 0034 80BD     		pop	{r7, pc}
 1032              		.cfi_endproc
 1033              	.LFE343:
 1035              		.section	.text.USBD_LL_Stop,"ax",%progbits
 1036              		.align	1
 1037              		.global	USBD_LL_Stop
 1038              		.syntax unified
 1039              		.thumb
 1040              		.thumb_func
 1041              		.fpu fpv4-sp-d16
 1043              	USBD_LL_Stop:
 1044              	.LFB344:
 495:Src/usbd_conf.c **** 
 496:Src/usbd_conf.c **** /**
 497:Src/usbd_conf.c ****   * @brief  Stops the low level portion of the device driver.
 498:Src/usbd_conf.c ****   * @param  pdev: Device handle
 499:Src/usbd_conf.c ****   * @retval USBD status
 500:Src/usbd_conf.c ****   */
 501:Src/usbd_conf.c **** USBD_StatusTypeDef USBD_LL_Stop(USBD_HandleTypeDef *pdev)
 502:Src/usbd_conf.c **** {
 1045              		.loc 1 502 1
 1046              		.cfi_startproc
 1047              		@ args = 0, pretend = 0, frame = 16
 1048              		@ frame_needed = 1, uses_anonymous_args = 0
 1049 0000 80B5     		push	{r7, lr}
 1050              	.LCFI80:
 1051              		.cfi_def_cfa_offset 8
 1052              		.cfi_offset 7, -8
 1053              		.cfi_offset 14, -4
 1054 0002 84B0     		sub	sp, sp, #16
 1055              	.LCFI81:
 1056              		.cfi_def_cfa_offset 24
 1057 0004 00AF     		add	r7, sp, #0
 1058              	.LCFI82:
 1059              		.cfi_def_cfa_register 7
 1060 0006 7860     		str	r0, [r7, #4]
 503:Src/usbd_conf.c ****   HAL_StatusTypeDef hal_status = HAL_OK;
 1061              		.loc 1 503 21
 1062 0008 0023     		movs	r3, #0
 1063 000a FB73     		strb	r3, [r7, #15]
 504:Src/usbd_conf.c ****   USBD_StatusTypeDef usb_status = USBD_OK;
 1064              		.loc 1 504 22
 1065 000c 0023     		movs	r3, #0
 1066 000e BB73     		strb	r3, [r7, #14]
 505:Src/usbd_conf.c **** 
 506:Src/usbd_conf.c ****   hal_status = HAL_PCD_Stop(pdev->pData);
ARM GAS  /tmp/ccpi4Ild.s 			page 28


 1067              		.loc 1 506 33
 1068 0010 7B68     		ldr	r3, [r7, #4]
 1069 0012 D3F8C032 		ldr	r3, [r3, #704]
 1070              		.loc 1 506 16
 1071 0016 1846     		mov	r0, r3
 1072 0018 FFF7FEFF 		bl	HAL_PCD_Stop
 1073 001c 0346     		mov	r3, r0
 1074 001e FB73     		strb	r3, [r7, #15]
 507:Src/usbd_conf.c **** 
 508:Src/usbd_conf.c ****   usb_status =  USBD_Get_USB_Status(hal_status);
 1075              		.loc 1 508 17
 1076 0020 FB7B     		ldrb	r3, [r7, #15]	@ zero_extendqisi2
 1077 0022 1846     		mov	r0, r3
 1078 0024 FFF7FEFF 		bl	USBD_Get_USB_Status
 1079 0028 0346     		mov	r3, r0
 1080 002a BB73     		strb	r3, [r7, #14]
 509:Src/usbd_conf.c ****   
 510:Src/usbd_conf.c ****   return usb_status;
 1081              		.loc 1 510 10
 1082 002c BB7B     		ldrb	r3, [r7, #14]	@ zero_extendqisi2
 511:Src/usbd_conf.c **** }
 1083              		.loc 1 511 1
 1084 002e 1846     		mov	r0, r3
 1085 0030 1037     		adds	r7, r7, #16
 1086              	.LCFI83:
 1087              		.cfi_def_cfa_offset 8
 1088 0032 BD46     		mov	sp, r7
 1089              	.LCFI84:
 1090              		.cfi_def_cfa_register 13
 1091              		@ sp needed
 1092 0034 80BD     		pop	{r7, pc}
 1093              		.cfi_endproc
 1094              	.LFE344:
 1096              		.section	.text.USBD_LL_OpenEP,"ax",%progbits
 1097              		.align	1
 1098              		.global	USBD_LL_OpenEP
 1099              		.syntax unified
 1100              		.thumb
 1101              		.thumb_func
 1102              		.fpu fpv4-sp-d16
 1104              	USBD_LL_OpenEP:
 1105              	.LFB345:
 512:Src/usbd_conf.c **** 
 513:Src/usbd_conf.c **** /**
 514:Src/usbd_conf.c ****   * @brief  Opens an endpoint of the low level driver.
 515:Src/usbd_conf.c ****   * @param  pdev: Device handle
 516:Src/usbd_conf.c ****   * @param  ep_addr: Endpoint number
 517:Src/usbd_conf.c ****   * @param  ep_type: Endpoint type
 518:Src/usbd_conf.c ****   * @param  ep_mps: Endpoint max packet size
 519:Src/usbd_conf.c ****   * @retval USBD status
 520:Src/usbd_conf.c ****   */
 521:Src/usbd_conf.c **** USBD_StatusTypeDef USBD_LL_OpenEP(USBD_HandleTypeDef *pdev, uint8_t ep_addr, uint8_t ep_type, uint1
 522:Src/usbd_conf.c **** {
 1106              		.loc 1 522 1
 1107              		.cfi_startproc
 1108              		@ args = 0, pretend = 0, frame = 16
 1109              		@ frame_needed = 1, uses_anonymous_args = 0
ARM GAS  /tmp/ccpi4Ild.s 			page 29


 1110 0000 80B5     		push	{r7, lr}
 1111              	.LCFI85:
 1112              		.cfi_def_cfa_offset 8
 1113              		.cfi_offset 7, -8
 1114              		.cfi_offset 14, -4
 1115 0002 84B0     		sub	sp, sp, #16
 1116              	.LCFI86:
 1117              		.cfi_def_cfa_offset 24
 1118 0004 00AF     		add	r7, sp, #0
 1119              	.LCFI87:
 1120              		.cfi_def_cfa_register 7
 1121 0006 7860     		str	r0, [r7, #4]
 1122 0008 0846     		mov	r0, r1
 1123 000a 1146     		mov	r1, r2
 1124 000c 1A46     		mov	r2, r3
 1125 000e 0346     		mov	r3, r0
 1126 0010 FB70     		strb	r3, [r7, #3]
 1127 0012 0B46     		mov	r3, r1
 1128 0014 BB70     		strb	r3, [r7, #2]
 1129 0016 1346     		mov	r3, r2	@ movhi
 1130 0018 3B80     		strh	r3, [r7]	@ movhi
 523:Src/usbd_conf.c ****   HAL_StatusTypeDef hal_status = HAL_OK;
 1131              		.loc 1 523 21
 1132 001a 0023     		movs	r3, #0
 1133 001c FB73     		strb	r3, [r7, #15]
 524:Src/usbd_conf.c ****   USBD_StatusTypeDef usb_status = USBD_OK;
 1134              		.loc 1 524 22
 1135 001e 0023     		movs	r3, #0
 1136 0020 BB73     		strb	r3, [r7, #14]
 525:Src/usbd_conf.c **** 
 526:Src/usbd_conf.c ****   hal_status = HAL_PCD_EP_Open(pdev->pData, ep_addr, ep_mps, ep_type);
 1137              		.loc 1 526 36
 1138 0022 7B68     		ldr	r3, [r7, #4]
 1139 0024 D3F8C002 		ldr	r0, [r3, #704]
 1140              		.loc 1 526 16
 1141 0028 BB78     		ldrb	r3, [r7, #2]	@ zero_extendqisi2
 1142 002a 3A88     		ldrh	r2, [r7]
 1143 002c F978     		ldrb	r1, [r7, #3]	@ zero_extendqisi2
 1144 002e FFF7FEFF 		bl	HAL_PCD_EP_Open
 1145 0032 0346     		mov	r3, r0
 1146 0034 FB73     		strb	r3, [r7, #15]
 527:Src/usbd_conf.c **** 
 528:Src/usbd_conf.c ****   usb_status =  USBD_Get_USB_Status(hal_status);
 1147              		.loc 1 528 17
 1148 0036 FB7B     		ldrb	r3, [r7, #15]	@ zero_extendqisi2
 1149 0038 1846     		mov	r0, r3
 1150 003a FFF7FEFF 		bl	USBD_Get_USB_Status
 1151 003e 0346     		mov	r3, r0
 1152 0040 BB73     		strb	r3, [r7, #14]
 529:Src/usbd_conf.c ****  
 530:Src/usbd_conf.c ****   return usb_status;
 1153              		.loc 1 530 10
 1154 0042 BB7B     		ldrb	r3, [r7, #14]	@ zero_extendqisi2
 531:Src/usbd_conf.c **** }
 1155              		.loc 1 531 1
 1156 0044 1846     		mov	r0, r3
 1157 0046 1037     		adds	r7, r7, #16
ARM GAS  /tmp/ccpi4Ild.s 			page 30


 1158              	.LCFI88:
 1159              		.cfi_def_cfa_offset 8
 1160 0048 BD46     		mov	sp, r7
 1161              	.LCFI89:
 1162              		.cfi_def_cfa_register 13
 1163              		@ sp needed
 1164 004a 80BD     		pop	{r7, pc}
 1165              		.cfi_endproc
 1166              	.LFE345:
 1168              		.section	.text.USBD_LL_CloseEP,"ax",%progbits
 1169              		.align	1
 1170              		.global	USBD_LL_CloseEP
 1171              		.syntax unified
 1172              		.thumb
 1173              		.thumb_func
 1174              		.fpu fpv4-sp-d16
 1176              	USBD_LL_CloseEP:
 1177              	.LFB346:
 532:Src/usbd_conf.c **** 
 533:Src/usbd_conf.c **** /**
 534:Src/usbd_conf.c ****   * @brief  Closes an endpoint of the low level driver.
 535:Src/usbd_conf.c ****   * @param  pdev: Device handle
 536:Src/usbd_conf.c ****   * @param  ep_addr: Endpoint number
 537:Src/usbd_conf.c ****   * @retval USBD status
 538:Src/usbd_conf.c ****   */
 539:Src/usbd_conf.c **** USBD_StatusTypeDef USBD_LL_CloseEP(USBD_HandleTypeDef *pdev, uint8_t ep_addr)
 540:Src/usbd_conf.c **** {
 1178              		.loc 1 540 1
 1179              		.cfi_startproc
 1180              		@ args = 0, pretend = 0, frame = 16
 1181              		@ frame_needed = 1, uses_anonymous_args = 0
 1182 0000 80B5     		push	{r7, lr}
 1183              	.LCFI90:
 1184              		.cfi_def_cfa_offset 8
 1185              		.cfi_offset 7, -8
 1186              		.cfi_offset 14, -4
 1187 0002 84B0     		sub	sp, sp, #16
 1188              	.LCFI91:
 1189              		.cfi_def_cfa_offset 24
 1190 0004 00AF     		add	r7, sp, #0
 1191              	.LCFI92:
 1192              		.cfi_def_cfa_register 7
 1193 0006 7860     		str	r0, [r7, #4]
 1194 0008 0B46     		mov	r3, r1
 1195 000a FB70     		strb	r3, [r7, #3]
 541:Src/usbd_conf.c ****   HAL_StatusTypeDef hal_status = HAL_OK;
 1196              		.loc 1 541 21
 1197 000c 0023     		movs	r3, #0
 1198 000e FB73     		strb	r3, [r7, #15]
 542:Src/usbd_conf.c ****   USBD_StatusTypeDef usb_status = USBD_OK;
 1199              		.loc 1 542 22
 1200 0010 0023     		movs	r3, #0
 1201 0012 BB73     		strb	r3, [r7, #14]
 543:Src/usbd_conf.c ****   
 544:Src/usbd_conf.c ****   hal_status = HAL_PCD_EP_Close(pdev->pData, ep_addr);
 1202              		.loc 1 544 37
 1203 0014 7B68     		ldr	r3, [r7, #4]
ARM GAS  /tmp/ccpi4Ild.s 			page 31


 1204 0016 D3F8C032 		ldr	r3, [r3, #704]
 1205              		.loc 1 544 16
 1206 001a FA78     		ldrb	r2, [r7, #3]	@ zero_extendqisi2
 1207 001c 1146     		mov	r1, r2
 1208 001e 1846     		mov	r0, r3
 1209 0020 FFF7FEFF 		bl	HAL_PCD_EP_Close
 1210 0024 0346     		mov	r3, r0
 1211 0026 FB73     		strb	r3, [r7, #15]
 545:Src/usbd_conf.c ****       
 546:Src/usbd_conf.c ****   usb_status =  USBD_Get_USB_Status(hal_status);
 1212              		.loc 1 546 17
 1213 0028 FB7B     		ldrb	r3, [r7, #15]	@ zero_extendqisi2
 1214 002a 1846     		mov	r0, r3
 1215 002c FFF7FEFF 		bl	USBD_Get_USB_Status
 1216 0030 0346     		mov	r3, r0
 1217 0032 BB73     		strb	r3, [r7, #14]
 547:Src/usbd_conf.c **** 
 548:Src/usbd_conf.c ****   return usb_status;  
 1218              		.loc 1 548 10
 1219 0034 BB7B     		ldrb	r3, [r7, #14]	@ zero_extendqisi2
 549:Src/usbd_conf.c **** }
 1220              		.loc 1 549 1
 1221 0036 1846     		mov	r0, r3
 1222 0038 1037     		adds	r7, r7, #16
 1223              	.LCFI93:
 1224              		.cfi_def_cfa_offset 8
 1225 003a BD46     		mov	sp, r7
 1226              	.LCFI94:
 1227              		.cfi_def_cfa_register 13
 1228              		@ sp needed
 1229 003c 80BD     		pop	{r7, pc}
 1230              		.cfi_endproc
 1231              	.LFE346:
 1233              		.section	.text.USBD_LL_FlushEP,"ax",%progbits
 1234              		.align	1
 1235              		.global	USBD_LL_FlushEP
 1236              		.syntax unified
 1237              		.thumb
 1238              		.thumb_func
 1239              		.fpu fpv4-sp-d16
 1241              	USBD_LL_FlushEP:
 1242              	.LFB347:
 550:Src/usbd_conf.c **** 
 551:Src/usbd_conf.c **** /**
 552:Src/usbd_conf.c ****   * @brief  Flushes an endpoint of the Low Level Driver.
 553:Src/usbd_conf.c ****   * @param  pdev: Device handle
 554:Src/usbd_conf.c ****   * @param  ep_addr: Endpoint number
 555:Src/usbd_conf.c ****   * @retval USBD status
 556:Src/usbd_conf.c ****   */
 557:Src/usbd_conf.c **** USBD_StatusTypeDef USBD_LL_FlushEP(USBD_HandleTypeDef *pdev, uint8_t ep_addr)
 558:Src/usbd_conf.c **** {
 1243              		.loc 1 558 1
 1244              		.cfi_startproc
 1245              		@ args = 0, pretend = 0, frame = 16
 1246              		@ frame_needed = 1, uses_anonymous_args = 0
 1247 0000 80B5     		push	{r7, lr}
 1248              	.LCFI95:
ARM GAS  /tmp/ccpi4Ild.s 			page 32


 1249              		.cfi_def_cfa_offset 8
 1250              		.cfi_offset 7, -8
 1251              		.cfi_offset 14, -4
 1252 0002 84B0     		sub	sp, sp, #16
 1253              	.LCFI96:
 1254              		.cfi_def_cfa_offset 24
 1255 0004 00AF     		add	r7, sp, #0
 1256              	.LCFI97:
 1257              		.cfi_def_cfa_register 7
 1258 0006 7860     		str	r0, [r7, #4]
 1259 0008 0B46     		mov	r3, r1
 1260 000a FB70     		strb	r3, [r7, #3]
 559:Src/usbd_conf.c ****   HAL_StatusTypeDef hal_status = HAL_OK;
 1261              		.loc 1 559 21
 1262 000c 0023     		movs	r3, #0
 1263 000e FB73     		strb	r3, [r7, #15]
 560:Src/usbd_conf.c ****   USBD_StatusTypeDef usb_status = USBD_OK;
 1264              		.loc 1 560 22
 1265 0010 0023     		movs	r3, #0
 1266 0012 BB73     		strb	r3, [r7, #14]
 561:Src/usbd_conf.c ****   
 562:Src/usbd_conf.c ****   hal_status = HAL_PCD_EP_Flush(pdev->pData, ep_addr);
 1267              		.loc 1 562 37
 1268 0014 7B68     		ldr	r3, [r7, #4]
 1269 0016 D3F8C032 		ldr	r3, [r3, #704]
 1270              		.loc 1 562 16
 1271 001a FA78     		ldrb	r2, [r7, #3]	@ zero_extendqisi2
 1272 001c 1146     		mov	r1, r2
 1273 001e 1846     		mov	r0, r3
 1274 0020 FFF7FEFF 		bl	HAL_PCD_EP_Flush
 1275 0024 0346     		mov	r3, r0
 1276 0026 FB73     		strb	r3, [r7, #15]
 563:Src/usbd_conf.c ****       
 564:Src/usbd_conf.c ****   usb_status =  USBD_Get_USB_Status(hal_status);
 1277              		.loc 1 564 17
 1278 0028 FB7B     		ldrb	r3, [r7, #15]	@ zero_extendqisi2
 1279 002a 1846     		mov	r0, r3
 1280 002c FFF7FEFF 		bl	USBD_Get_USB_Status
 1281 0030 0346     		mov	r3, r0
 1282 0032 BB73     		strb	r3, [r7, #14]
 565:Src/usbd_conf.c ****   
 566:Src/usbd_conf.c ****   return usb_status;  
 1283              		.loc 1 566 10
 1284 0034 BB7B     		ldrb	r3, [r7, #14]	@ zero_extendqisi2
 567:Src/usbd_conf.c **** }
 1285              		.loc 1 567 1
 1286 0036 1846     		mov	r0, r3
 1287 0038 1037     		adds	r7, r7, #16
 1288              	.LCFI98:
 1289              		.cfi_def_cfa_offset 8
 1290 003a BD46     		mov	sp, r7
 1291              	.LCFI99:
 1292              		.cfi_def_cfa_register 13
 1293              		@ sp needed
 1294 003c 80BD     		pop	{r7, pc}
 1295              		.cfi_endproc
 1296              	.LFE347:
ARM GAS  /tmp/ccpi4Ild.s 			page 33


 1298              		.section	.text.USBD_LL_StallEP,"ax",%progbits
 1299              		.align	1
 1300              		.global	USBD_LL_StallEP
 1301              		.syntax unified
 1302              		.thumb
 1303              		.thumb_func
 1304              		.fpu fpv4-sp-d16
 1306              	USBD_LL_StallEP:
 1307              	.LFB348:
 568:Src/usbd_conf.c **** 
 569:Src/usbd_conf.c **** /**
 570:Src/usbd_conf.c ****   * @brief  Sets a Stall condition on an endpoint of the Low Level Driver.
 571:Src/usbd_conf.c ****   * @param  pdev: Device handle
 572:Src/usbd_conf.c ****   * @param  ep_addr: Endpoint number
 573:Src/usbd_conf.c ****   * @retval USBD status
 574:Src/usbd_conf.c ****   */
 575:Src/usbd_conf.c **** USBD_StatusTypeDef USBD_LL_StallEP(USBD_HandleTypeDef *pdev, uint8_t ep_addr)
 576:Src/usbd_conf.c **** {
 1308              		.loc 1 576 1
 1309              		.cfi_startproc
 1310              		@ args = 0, pretend = 0, frame = 16
 1311              		@ frame_needed = 1, uses_anonymous_args = 0
 1312 0000 80B5     		push	{r7, lr}
 1313              	.LCFI100:
 1314              		.cfi_def_cfa_offset 8
 1315              		.cfi_offset 7, -8
 1316              		.cfi_offset 14, -4
 1317 0002 84B0     		sub	sp, sp, #16
 1318              	.LCFI101:
 1319              		.cfi_def_cfa_offset 24
 1320 0004 00AF     		add	r7, sp, #0
 1321              	.LCFI102:
 1322              		.cfi_def_cfa_register 7
 1323 0006 7860     		str	r0, [r7, #4]
 1324 0008 0B46     		mov	r3, r1
 1325 000a FB70     		strb	r3, [r7, #3]
 577:Src/usbd_conf.c ****   HAL_StatusTypeDef hal_status = HAL_OK;
 1326              		.loc 1 577 21
 1327 000c 0023     		movs	r3, #0
 1328 000e FB73     		strb	r3, [r7, #15]
 578:Src/usbd_conf.c ****   USBD_StatusTypeDef usb_status = USBD_OK;
 1329              		.loc 1 578 22
 1330 0010 0023     		movs	r3, #0
 1331 0012 BB73     		strb	r3, [r7, #14]
 579:Src/usbd_conf.c ****   
 580:Src/usbd_conf.c ****   hal_status = HAL_PCD_EP_SetStall(pdev->pData, ep_addr);
 1332              		.loc 1 580 40
 1333 0014 7B68     		ldr	r3, [r7, #4]
 1334 0016 D3F8C032 		ldr	r3, [r3, #704]
 1335              		.loc 1 580 16
 1336 001a FA78     		ldrb	r2, [r7, #3]	@ zero_extendqisi2
 1337 001c 1146     		mov	r1, r2
 1338 001e 1846     		mov	r0, r3
 1339 0020 FFF7FEFF 		bl	HAL_PCD_EP_SetStall
 1340 0024 0346     		mov	r3, r0
 1341 0026 FB73     		strb	r3, [r7, #15]
 581:Src/usbd_conf.c **** 
ARM GAS  /tmp/ccpi4Ild.s 			page 34


 582:Src/usbd_conf.c ****   usb_status =  USBD_Get_USB_Status(hal_status);
 1342              		.loc 1 582 17
 1343 0028 FB7B     		ldrb	r3, [r7, #15]	@ zero_extendqisi2
 1344 002a 1846     		mov	r0, r3
 1345 002c FFF7FEFF 		bl	USBD_Get_USB_Status
 1346 0030 0346     		mov	r3, r0
 1347 0032 BB73     		strb	r3, [r7, #14]
 583:Src/usbd_conf.c ****  
 584:Src/usbd_conf.c ****   return usb_status;  
 1348              		.loc 1 584 10
 1349 0034 BB7B     		ldrb	r3, [r7, #14]	@ zero_extendqisi2
 585:Src/usbd_conf.c **** }
 1350              		.loc 1 585 1
 1351 0036 1846     		mov	r0, r3
 1352 0038 1037     		adds	r7, r7, #16
 1353              	.LCFI103:
 1354              		.cfi_def_cfa_offset 8
 1355 003a BD46     		mov	sp, r7
 1356              	.LCFI104:
 1357              		.cfi_def_cfa_register 13
 1358              		@ sp needed
 1359 003c 80BD     		pop	{r7, pc}
 1360              		.cfi_endproc
 1361              	.LFE348:
 1363              		.section	.text.USBD_LL_ClearStallEP,"ax",%progbits
 1364              		.align	1
 1365              		.global	USBD_LL_ClearStallEP
 1366              		.syntax unified
 1367              		.thumb
 1368              		.thumb_func
 1369              		.fpu fpv4-sp-d16
 1371              	USBD_LL_ClearStallEP:
 1372              	.LFB349:
 586:Src/usbd_conf.c **** 
 587:Src/usbd_conf.c **** /**
 588:Src/usbd_conf.c ****   * @brief  Clears a Stall condition on an endpoint of the Low Level Driver.
 589:Src/usbd_conf.c ****   * @param  pdev: Device handle
 590:Src/usbd_conf.c ****   * @param  ep_addr: Endpoint number
 591:Src/usbd_conf.c ****   * @retval USBD status
 592:Src/usbd_conf.c ****   */
 593:Src/usbd_conf.c **** USBD_StatusTypeDef USBD_LL_ClearStallEP(USBD_HandleTypeDef *pdev, uint8_t ep_addr)
 594:Src/usbd_conf.c **** {
 1373              		.loc 1 594 1
 1374              		.cfi_startproc
 1375              		@ args = 0, pretend = 0, frame = 16
 1376              		@ frame_needed = 1, uses_anonymous_args = 0
 1377 0000 80B5     		push	{r7, lr}
 1378              	.LCFI105:
 1379              		.cfi_def_cfa_offset 8
 1380              		.cfi_offset 7, -8
 1381              		.cfi_offset 14, -4
 1382 0002 84B0     		sub	sp, sp, #16
 1383              	.LCFI106:
 1384              		.cfi_def_cfa_offset 24
 1385 0004 00AF     		add	r7, sp, #0
 1386              	.LCFI107:
 1387              		.cfi_def_cfa_register 7
ARM GAS  /tmp/ccpi4Ild.s 			page 35


 1388 0006 7860     		str	r0, [r7, #4]
 1389 0008 0B46     		mov	r3, r1
 1390 000a FB70     		strb	r3, [r7, #3]
 595:Src/usbd_conf.c ****   HAL_StatusTypeDef hal_status = HAL_OK;
 1391              		.loc 1 595 21
 1392 000c 0023     		movs	r3, #0
 1393 000e FB73     		strb	r3, [r7, #15]
 596:Src/usbd_conf.c ****   USBD_StatusTypeDef usb_status = USBD_OK;
 1394              		.loc 1 596 22
 1395 0010 0023     		movs	r3, #0
 1396 0012 BB73     		strb	r3, [r7, #14]
 597:Src/usbd_conf.c ****   
 598:Src/usbd_conf.c ****   hal_status = HAL_PCD_EP_ClrStall(pdev->pData, ep_addr);  
 1397              		.loc 1 598 40
 1398 0014 7B68     		ldr	r3, [r7, #4]
 1399 0016 D3F8C032 		ldr	r3, [r3, #704]
 1400              		.loc 1 598 16
 1401 001a FA78     		ldrb	r2, [r7, #3]	@ zero_extendqisi2
 1402 001c 1146     		mov	r1, r2
 1403 001e 1846     		mov	r0, r3
 1404 0020 FFF7FEFF 		bl	HAL_PCD_EP_ClrStall
 1405 0024 0346     		mov	r3, r0
 1406 0026 FB73     		strb	r3, [r7, #15]
 599:Src/usbd_conf.c ****      
 600:Src/usbd_conf.c ****   usb_status =  USBD_Get_USB_Status(hal_status);
 1407              		.loc 1 600 17
 1408 0028 FB7B     		ldrb	r3, [r7, #15]	@ zero_extendqisi2
 1409 002a 1846     		mov	r0, r3
 1410 002c FFF7FEFF 		bl	USBD_Get_USB_Status
 1411 0030 0346     		mov	r3, r0
 1412 0032 BB73     		strb	r3, [r7, #14]
 601:Src/usbd_conf.c **** 
 602:Src/usbd_conf.c ****   return usb_status; 
 1413              		.loc 1 602 10
 1414 0034 BB7B     		ldrb	r3, [r7, #14]	@ zero_extendqisi2
 603:Src/usbd_conf.c **** }
 1415              		.loc 1 603 1
 1416 0036 1846     		mov	r0, r3
 1417 0038 1037     		adds	r7, r7, #16
 1418              	.LCFI108:
 1419              		.cfi_def_cfa_offset 8
 1420 003a BD46     		mov	sp, r7
 1421              	.LCFI109:
 1422              		.cfi_def_cfa_register 13
 1423              		@ sp needed
 1424 003c 80BD     		pop	{r7, pc}
 1425              		.cfi_endproc
 1426              	.LFE349:
 1428              		.section	.text.USBD_LL_IsStallEP,"ax",%progbits
 1429              		.align	1
 1430              		.global	USBD_LL_IsStallEP
 1431              		.syntax unified
 1432              		.thumb
 1433              		.thumb_func
 1434              		.fpu fpv4-sp-d16
 1436              	USBD_LL_IsStallEP:
 1437              	.LFB350:
ARM GAS  /tmp/ccpi4Ild.s 			page 36


 604:Src/usbd_conf.c **** 
 605:Src/usbd_conf.c **** /**
 606:Src/usbd_conf.c ****   * @brief  Returns Stall condition.
 607:Src/usbd_conf.c ****   * @param  pdev: Device handle
 608:Src/usbd_conf.c ****   * @param  ep_addr: Endpoint number
 609:Src/usbd_conf.c ****   * @retval Stall (1: Yes, 0: No)
 610:Src/usbd_conf.c ****   */
 611:Src/usbd_conf.c **** uint8_t USBD_LL_IsStallEP(USBD_HandleTypeDef *pdev, uint8_t ep_addr)
 612:Src/usbd_conf.c **** {
 1438              		.loc 1 612 1
 1439              		.cfi_startproc
 1440              		@ args = 0, pretend = 0, frame = 16
 1441              		@ frame_needed = 1, uses_anonymous_args = 0
 1442              		@ link register save eliminated.
 1443 0000 80B4     		push	{r7}
 1444              	.LCFI110:
 1445              		.cfi_def_cfa_offset 4
 1446              		.cfi_offset 7, -4
 1447 0002 85B0     		sub	sp, sp, #20
 1448              	.LCFI111:
 1449              		.cfi_def_cfa_offset 24
 1450 0004 00AF     		add	r7, sp, #0
 1451              	.LCFI112:
 1452              		.cfi_def_cfa_register 7
 1453 0006 7860     		str	r0, [r7, #4]
 1454 0008 0B46     		mov	r3, r1
 1455 000a FB70     		strb	r3, [r7, #3]
 613:Src/usbd_conf.c ****   PCD_HandleTypeDef *hpcd = (PCD_HandleTypeDef*) pdev->pData;
 1456              		.loc 1 613 22
 1457 000c 7B68     		ldr	r3, [r7, #4]
 1458 000e D3F8C032 		ldr	r3, [r3, #704]
 1459 0012 FB60     		str	r3, [r7, #12]
 614:Src/usbd_conf.c ****   
 615:Src/usbd_conf.c ****   if((ep_addr & 0x80) == 0x80)
 1460              		.loc 1 615 23
 1461 0014 97F90330 		ldrsb	r3, [r7, #3]
 1462              		.loc 1 615 5
 1463 0018 002B     		cmp	r3, #0
 1464 001a 08DA     		bge	.L52
 616:Src/usbd_conf.c ****   {
 617:Src/usbd_conf.c ****     return hpcd->IN_ep[ep_addr & 0x7F].is_stall; 
 1465              		.loc 1 617 32
 1466 001c FB78     		ldrb	r3, [r7, #3]	@ zero_extendqisi2
 1467 001e 03F07F03 		and	r3, r3, #127
 1468              		.loc 1 617 39
 1469 0022 FA68     		ldr	r2, [r7, #12]
 1470 0024 5B01     		lsls	r3, r3, #5
 1471 0026 1344     		add	r3, r3, r2
 1472 0028 2A33     		adds	r3, r3, #42
 1473 002a 1B78     		ldrb	r3, [r3]	@ zero_extendqisi2
 1474 002c 08E0     		b	.L53
 1475              	.L52:
 618:Src/usbd_conf.c ****   }
 619:Src/usbd_conf.c ****   else
 620:Src/usbd_conf.c ****   {
 621:Src/usbd_conf.c ****     return hpcd->OUT_ep[ep_addr & 0x7F].is_stall; 
 1476              		.loc 1 621 33
ARM GAS  /tmp/ccpi4Ild.s 			page 37


 1477 002e FB78     		ldrb	r3, [r7, #3]	@ zero_extendqisi2
 1478 0030 03F07F03 		and	r3, r3, #127
 1479              		.loc 1 621 40
 1480 0034 FA68     		ldr	r2, [r7, #12]
 1481 0036 5B01     		lsls	r3, r3, #5
 1482 0038 1344     		add	r3, r3, r2
 1483 003a 03F59573 		add	r3, r3, #298
 1484 003e 1B78     		ldrb	r3, [r3]	@ zero_extendqisi2
 1485              	.L53:
 622:Src/usbd_conf.c ****   }
 623:Src/usbd_conf.c **** }
 1486              		.loc 1 623 1
 1487 0040 1846     		mov	r0, r3
 1488 0042 1437     		adds	r7, r7, #20
 1489              	.LCFI113:
 1490              		.cfi_def_cfa_offset 4
 1491 0044 BD46     		mov	sp, r7
 1492              	.LCFI114:
 1493              		.cfi_def_cfa_register 13
 1494              		@ sp needed
 1495 0046 5DF8047B 		ldr	r7, [sp], #4
 1496              	.LCFI115:
 1497              		.cfi_restore 7
 1498              		.cfi_def_cfa_offset 0
 1499 004a 7047     		bx	lr
 1500              		.cfi_endproc
 1501              	.LFE350:
 1503              		.section	.text.USBD_LL_SetUSBAddress,"ax",%progbits
 1504              		.align	1
 1505              		.global	USBD_LL_SetUSBAddress
 1506              		.syntax unified
 1507              		.thumb
 1508              		.thumb_func
 1509              		.fpu fpv4-sp-d16
 1511              	USBD_LL_SetUSBAddress:
 1512              	.LFB351:
 624:Src/usbd_conf.c **** 
 625:Src/usbd_conf.c **** /**
 626:Src/usbd_conf.c ****   * @brief  Assigns a USB address to the device.
 627:Src/usbd_conf.c ****   * @param  pdev: Device handle
 628:Src/usbd_conf.c ****   * @param  dev_addr: Device address
 629:Src/usbd_conf.c ****   * @retval USBD status
 630:Src/usbd_conf.c ****   */
 631:Src/usbd_conf.c **** USBD_StatusTypeDef USBD_LL_SetUSBAddress(USBD_HandleTypeDef *pdev, uint8_t dev_addr)
 632:Src/usbd_conf.c **** {
 1513              		.loc 1 632 1
 1514              		.cfi_startproc
 1515              		@ args = 0, pretend = 0, frame = 16
 1516              		@ frame_needed = 1, uses_anonymous_args = 0
 1517 0000 80B5     		push	{r7, lr}
 1518              	.LCFI116:
 1519              		.cfi_def_cfa_offset 8
 1520              		.cfi_offset 7, -8
 1521              		.cfi_offset 14, -4
 1522 0002 84B0     		sub	sp, sp, #16
 1523              	.LCFI117:
 1524              		.cfi_def_cfa_offset 24
ARM GAS  /tmp/ccpi4Ild.s 			page 38


 1525 0004 00AF     		add	r7, sp, #0
 1526              	.LCFI118:
 1527              		.cfi_def_cfa_register 7
 1528 0006 7860     		str	r0, [r7, #4]
 1529 0008 0B46     		mov	r3, r1
 1530 000a FB70     		strb	r3, [r7, #3]
 633:Src/usbd_conf.c ****   HAL_StatusTypeDef hal_status = HAL_OK;
 1531              		.loc 1 633 21
 1532 000c 0023     		movs	r3, #0
 1533 000e FB73     		strb	r3, [r7, #15]
 634:Src/usbd_conf.c ****   USBD_StatusTypeDef usb_status = USBD_OK;
 1534              		.loc 1 634 22
 1535 0010 0023     		movs	r3, #0
 1536 0012 BB73     		strb	r3, [r7, #14]
 635:Src/usbd_conf.c ****   
 636:Src/usbd_conf.c ****   hal_status = HAL_PCD_SetAddress(pdev->pData, dev_addr);
 1537              		.loc 1 636 39
 1538 0014 7B68     		ldr	r3, [r7, #4]
 1539 0016 D3F8C032 		ldr	r3, [r3, #704]
 1540              		.loc 1 636 16
 1541 001a FA78     		ldrb	r2, [r7, #3]	@ zero_extendqisi2
 1542 001c 1146     		mov	r1, r2
 1543 001e 1846     		mov	r0, r3
 1544 0020 FFF7FEFF 		bl	HAL_PCD_SetAddress
 1545 0024 0346     		mov	r3, r0
 1546 0026 FB73     		strb	r3, [r7, #15]
 637:Src/usbd_conf.c ****      
 638:Src/usbd_conf.c ****   usb_status =  USBD_Get_USB_Status(hal_status);
 1547              		.loc 1 638 17
 1548 0028 FB7B     		ldrb	r3, [r7, #15]	@ zero_extendqisi2
 1549 002a 1846     		mov	r0, r3
 1550 002c FFF7FEFF 		bl	USBD_Get_USB_Status
 1551 0030 0346     		mov	r3, r0
 1552 0032 BB73     		strb	r3, [r7, #14]
 639:Src/usbd_conf.c ****  
 640:Src/usbd_conf.c ****   return usb_status;  
 1553              		.loc 1 640 10
 1554 0034 BB7B     		ldrb	r3, [r7, #14]	@ zero_extendqisi2
 641:Src/usbd_conf.c **** }
 1555              		.loc 1 641 1
 1556 0036 1846     		mov	r0, r3
 1557 0038 1037     		adds	r7, r7, #16
 1558              	.LCFI119:
 1559              		.cfi_def_cfa_offset 8
 1560 003a BD46     		mov	sp, r7
 1561              	.LCFI120:
 1562              		.cfi_def_cfa_register 13
 1563              		@ sp needed
 1564 003c 80BD     		pop	{r7, pc}
 1565              		.cfi_endproc
 1566              	.LFE351:
 1568              		.section	.text.USBD_LL_Transmit,"ax",%progbits
 1569              		.align	1
 1570              		.global	USBD_LL_Transmit
 1571              		.syntax unified
 1572              		.thumb
 1573              		.thumb_func
ARM GAS  /tmp/ccpi4Ild.s 			page 39


 1574              		.fpu fpv4-sp-d16
 1576              	USBD_LL_Transmit:
 1577              	.LFB352:
 642:Src/usbd_conf.c **** 
 643:Src/usbd_conf.c **** /**
 644:Src/usbd_conf.c ****   * @brief  Transmits data over an endpoint.
 645:Src/usbd_conf.c ****   * @param  pdev: Device handle
 646:Src/usbd_conf.c ****   * @param  ep_addr: Endpoint number
 647:Src/usbd_conf.c ****   * @param  pbuf: Pointer to data to be sent
 648:Src/usbd_conf.c ****   * @param  size: Data size    
 649:Src/usbd_conf.c ****   * @retval USBD status
 650:Src/usbd_conf.c ****   */
 651:Src/usbd_conf.c **** USBD_StatusTypeDef USBD_LL_Transmit(USBD_HandleTypeDef *pdev, uint8_t ep_addr, uint8_t *pbuf, uint1
 652:Src/usbd_conf.c **** {
 1578              		.loc 1 652 1
 1579              		.cfi_startproc
 1580              		@ args = 0, pretend = 0, frame = 24
 1581              		@ frame_needed = 1, uses_anonymous_args = 0
 1582 0000 80B5     		push	{r7, lr}
 1583              	.LCFI121:
 1584              		.cfi_def_cfa_offset 8
 1585              		.cfi_offset 7, -8
 1586              		.cfi_offset 14, -4
 1587 0002 86B0     		sub	sp, sp, #24
 1588              	.LCFI122:
 1589              		.cfi_def_cfa_offset 32
 1590 0004 00AF     		add	r7, sp, #0
 1591              	.LCFI123:
 1592              		.cfi_def_cfa_register 7
 1593 0006 F860     		str	r0, [r7, #12]
 1594 0008 7A60     		str	r2, [r7, #4]
 1595 000a 1A46     		mov	r2, r3
 1596 000c 0B46     		mov	r3, r1
 1597 000e FB72     		strb	r3, [r7, #11]
 1598 0010 1346     		mov	r3, r2	@ movhi
 1599 0012 3B81     		strh	r3, [r7, #8]	@ movhi
 653:Src/usbd_conf.c ****   HAL_StatusTypeDef hal_status = HAL_OK;
 1600              		.loc 1 653 21
 1601 0014 0023     		movs	r3, #0
 1602 0016 FB75     		strb	r3, [r7, #23]
 654:Src/usbd_conf.c ****   USBD_StatusTypeDef usb_status = USBD_OK;
 1603              		.loc 1 654 22
 1604 0018 0023     		movs	r3, #0
 1605 001a BB75     		strb	r3, [r7, #22]
 655:Src/usbd_conf.c **** 
 656:Src/usbd_conf.c ****   hal_status = HAL_PCD_EP_Transmit(pdev->pData, ep_addr, pbuf, size);
 1606              		.loc 1 656 40
 1607 001c FB68     		ldr	r3, [r7, #12]
 1608 001e D3F8C002 		ldr	r0, [r3, #704]
 1609              		.loc 1 656 16
 1610 0022 3B89     		ldrh	r3, [r7, #8]
 1611 0024 F97A     		ldrb	r1, [r7, #11]	@ zero_extendqisi2
 1612 0026 7A68     		ldr	r2, [r7, #4]
 1613 0028 FFF7FEFF 		bl	HAL_PCD_EP_Transmit
 1614 002c 0346     		mov	r3, r0
 1615 002e FB75     		strb	r3, [r7, #23]
 657:Src/usbd_conf.c ****      
ARM GAS  /tmp/ccpi4Ild.s 			page 40


 658:Src/usbd_conf.c ****   usb_status =  USBD_Get_USB_Status(hal_status);
 1616              		.loc 1 658 17
 1617 0030 FB7D     		ldrb	r3, [r7, #23]	@ zero_extendqisi2
 1618 0032 1846     		mov	r0, r3
 1619 0034 FFF7FEFF 		bl	USBD_Get_USB_Status
 1620 0038 0346     		mov	r3, r0
 1621 003a BB75     		strb	r3, [r7, #22]
 659:Src/usbd_conf.c ****   
 660:Src/usbd_conf.c ****   return usb_status;    
 1622              		.loc 1 660 10
 1623 003c BB7D     		ldrb	r3, [r7, #22]	@ zero_extendqisi2
 661:Src/usbd_conf.c **** }
 1624              		.loc 1 661 1
 1625 003e 1846     		mov	r0, r3
 1626 0040 1837     		adds	r7, r7, #24
 1627              	.LCFI124:
 1628              		.cfi_def_cfa_offset 8
 1629 0042 BD46     		mov	sp, r7
 1630              	.LCFI125:
 1631              		.cfi_def_cfa_register 13
 1632              		@ sp needed
 1633 0044 80BD     		pop	{r7, pc}
 1634              		.cfi_endproc
 1635              	.LFE352:
 1637              		.section	.text.USBD_LL_PrepareReceive,"ax",%progbits
 1638              		.align	1
 1639              		.global	USBD_LL_PrepareReceive
 1640              		.syntax unified
 1641              		.thumb
 1642              		.thumb_func
 1643              		.fpu fpv4-sp-d16
 1645              	USBD_LL_PrepareReceive:
 1646              	.LFB353:
 662:Src/usbd_conf.c **** 
 663:Src/usbd_conf.c **** /**
 664:Src/usbd_conf.c ****   * @brief  Prepares an endpoint for reception.
 665:Src/usbd_conf.c ****   * @param  pdev: Device handle
 666:Src/usbd_conf.c ****   * @param  ep_addr: Endpoint number
 667:Src/usbd_conf.c ****   * @param  pbuf: Pointer to data to be received
 668:Src/usbd_conf.c ****   * @param  size: Data size
 669:Src/usbd_conf.c ****   * @retval USBD status
 670:Src/usbd_conf.c ****   */
 671:Src/usbd_conf.c **** USBD_StatusTypeDef USBD_LL_PrepareReceive(USBD_HandleTypeDef *pdev, uint8_t ep_addr, uint8_t *pbuf,
 672:Src/usbd_conf.c **** {
 1647              		.loc 1 672 1
 1648              		.cfi_startproc
 1649              		@ args = 0, pretend = 0, frame = 24
 1650              		@ frame_needed = 1, uses_anonymous_args = 0
 1651 0000 80B5     		push	{r7, lr}
 1652              	.LCFI126:
 1653              		.cfi_def_cfa_offset 8
 1654              		.cfi_offset 7, -8
 1655              		.cfi_offset 14, -4
 1656 0002 86B0     		sub	sp, sp, #24
 1657              	.LCFI127:
 1658              		.cfi_def_cfa_offset 32
 1659 0004 00AF     		add	r7, sp, #0
ARM GAS  /tmp/ccpi4Ild.s 			page 41


 1660              	.LCFI128:
 1661              		.cfi_def_cfa_register 7
 1662 0006 F860     		str	r0, [r7, #12]
 1663 0008 7A60     		str	r2, [r7, #4]
 1664 000a 1A46     		mov	r2, r3
 1665 000c 0B46     		mov	r3, r1
 1666 000e FB72     		strb	r3, [r7, #11]
 1667 0010 1346     		mov	r3, r2	@ movhi
 1668 0012 3B81     		strh	r3, [r7, #8]	@ movhi
 673:Src/usbd_conf.c ****   HAL_StatusTypeDef hal_status = HAL_OK;
 1669              		.loc 1 673 21
 1670 0014 0023     		movs	r3, #0
 1671 0016 FB75     		strb	r3, [r7, #23]
 674:Src/usbd_conf.c ****   USBD_StatusTypeDef usb_status = USBD_OK;
 1672              		.loc 1 674 22
 1673 0018 0023     		movs	r3, #0
 1674 001a BB75     		strb	r3, [r7, #22]
 675:Src/usbd_conf.c **** 
 676:Src/usbd_conf.c ****   hal_status = HAL_PCD_EP_Receive(pdev->pData, ep_addr, pbuf, size);
 1675              		.loc 1 676 39
 1676 001c FB68     		ldr	r3, [r7, #12]
 1677 001e D3F8C002 		ldr	r0, [r3, #704]
 1678              		.loc 1 676 16
 1679 0022 3B89     		ldrh	r3, [r7, #8]
 1680 0024 F97A     		ldrb	r1, [r7, #11]	@ zero_extendqisi2
 1681 0026 7A68     		ldr	r2, [r7, #4]
 1682 0028 FFF7FEFF 		bl	HAL_PCD_EP_Receive
 1683 002c 0346     		mov	r3, r0
 1684 002e FB75     		strb	r3, [r7, #23]
 677:Src/usbd_conf.c ****      
 678:Src/usbd_conf.c ****   usb_status =  USBD_Get_USB_Status(hal_status);
 1685              		.loc 1 678 17
 1686 0030 FB7D     		ldrb	r3, [r7, #23]	@ zero_extendqisi2
 1687 0032 1846     		mov	r0, r3
 1688 0034 FFF7FEFF 		bl	USBD_Get_USB_Status
 1689 0038 0346     		mov	r3, r0
 1690 003a BB75     		strb	r3, [r7, #22]
 679:Src/usbd_conf.c ****   	
 680:Src/usbd_conf.c ****   return usb_status; 
 1691              		.loc 1 680 10
 1692 003c BB7D     		ldrb	r3, [r7, #22]	@ zero_extendqisi2
 681:Src/usbd_conf.c **** }
 1693              		.loc 1 681 1
 1694 003e 1846     		mov	r0, r3
 1695 0040 1837     		adds	r7, r7, #24
 1696              	.LCFI129:
 1697              		.cfi_def_cfa_offset 8
 1698 0042 BD46     		mov	sp, r7
 1699              	.LCFI130:
 1700              		.cfi_def_cfa_register 13
 1701              		@ sp needed
 1702 0044 80BD     		pop	{r7, pc}
 1703              		.cfi_endproc
 1704              	.LFE353:
 1706              		.section	.text.USBD_LL_GetRxDataSize,"ax",%progbits
 1707              		.align	1
 1708              		.global	USBD_LL_GetRxDataSize
ARM GAS  /tmp/ccpi4Ild.s 			page 42


 1709              		.syntax unified
 1710              		.thumb
 1711              		.thumb_func
 1712              		.fpu fpv4-sp-d16
 1714              	USBD_LL_GetRxDataSize:
 1715              	.LFB354:
 682:Src/usbd_conf.c **** 
 683:Src/usbd_conf.c **** /**
 684:Src/usbd_conf.c ****   * @brief  Returns the last transfered packet size.
 685:Src/usbd_conf.c ****   * @param  pdev: Device handle
 686:Src/usbd_conf.c ****   * @param  ep_addr: Endpoint number
 687:Src/usbd_conf.c ****   * @retval Recived Data Size
 688:Src/usbd_conf.c ****   */
 689:Src/usbd_conf.c **** uint32_t USBD_LL_GetRxDataSize(USBD_HandleTypeDef *pdev, uint8_t ep_addr)
 690:Src/usbd_conf.c **** {
 1716              		.loc 1 690 1
 1717              		.cfi_startproc
 1718              		@ args = 0, pretend = 0, frame = 8
 1719              		@ frame_needed = 1, uses_anonymous_args = 0
 1720 0000 80B5     		push	{r7, lr}
 1721              	.LCFI131:
 1722              		.cfi_def_cfa_offset 8
 1723              		.cfi_offset 7, -8
 1724              		.cfi_offset 14, -4
 1725 0002 82B0     		sub	sp, sp, #8
 1726              	.LCFI132:
 1727              		.cfi_def_cfa_offset 16
 1728 0004 00AF     		add	r7, sp, #0
 1729              	.LCFI133:
 1730              		.cfi_def_cfa_register 7
 1731 0006 7860     		str	r0, [r7, #4]
 1732 0008 0B46     		mov	r3, r1
 1733 000a FB70     		strb	r3, [r7, #3]
 691:Src/usbd_conf.c ****   return HAL_PCD_EP_GetRxCount((PCD_HandleTypeDef*) pdev->pData, ep_addr);
 1734              		.loc 1 691 57
 1735 000c 7B68     		ldr	r3, [r7, #4]
 1736 000e D3F8C032 		ldr	r3, [r3, #704]
 1737              		.loc 1 691 10
 1738 0012 FA78     		ldrb	r2, [r7, #3]	@ zero_extendqisi2
 1739 0014 1146     		mov	r1, r2
 1740 0016 1846     		mov	r0, r3
 1741 0018 FFF7FEFF 		bl	HAL_PCD_EP_GetRxCount
 1742 001c 0346     		mov	r3, r0
 692:Src/usbd_conf.c **** }
 1743              		.loc 1 692 1
 1744 001e 1846     		mov	r0, r3
 1745 0020 0837     		adds	r7, r7, #8
 1746              	.LCFI134:
 1747              		.cfi_def_cfa_offset 8
 1748 0022 BD46     		mov	sp, r7
 1749              	.LCFI135:
 1750              		.cfi_def_cfa_register 13
 1751              		@ sp needed
 1752 0024 80BD     		pop	{r7, pc}
 1753              		.cfi_endproc
 1754              	.LFE354:
 1756              		.section	.text.USBD_LL_Delay,"ax",%progbits
ARM GAS  /tmp/ccpi4Ild.s 			page 43


 1757              		.align	1
 1758              		.global	USBD_LL_Delay
 1759              		.syntax unified
 1760              		.thumb
 1761              		.thumb_func
 1762              		.fpu fpv4-sp-d16
 1764              	USBD_LL_Delay:
 1765              	.LFB355:
 693:Src/usbd_conf.c **** 
 694:Src/usbd_conf.c **** /**
 695:Src/usbd_conf.c ****   * @brief  Delays routine for the USB Device Library.
 696:Src/usbd_conf.c ****   * @param  Delay: Delay in ms
 697:Src/usbd_conf.c ****   * @retval None
 698:Src/usbd_conf.c ****   */
 699:Src/usbd_conf.c **** void USBD_LL_Delay(uint32_t Delay)
 700:Src/usbd_conf.c **** {
 1766              		.loc 1 700 1
 1767              		.cfi_startproc
 1768              		@ args = 0, pretend = 0, frame = 8
 1769              		@ frame_needed = 1, uses_anonymous_args = 0
 1770 0000 80B5     		push	{r7, lr}
 1771              	.LCFI136:
 1772              		.cfi_def_cfa_offset 8
 1773              		.cfi_offset 7, -8
 1774              		.cfi_offset 14, -4
 1775 0002 82B0     		sub	sp, sp, #8
 1776              	.LCFI137:
 1777              		.cfi_def_cfa_offset 16
 1778 0004 00AF     		add	r7, sp, #0
 1779              	.LCFI138:
 1780              		.cfi_def_cfa_register 7
 1781 0006 7860     		str	r0, [r7, #4]
 701:Src/usbd_conf.c ****   HAL_Delay(Delay);
 1782              		.loc 1 701 3
 1783 0008 7868     		ldr	r0, [r7, #4]
 1784 000a FFF7FEFF 		bl	HAL_Delay
 702:Src/usbd_conf.c **** }
 1785              		.loc 1 702 1
 1786 000e 00BF     		nop
 1787 0010 0837     		adds	r7, r7, #8
 1788              	.LCFI139:
 1789              		.cfi_def_cfa_offset 8
 1790 0012 BD46     		mov	sp, r7
 1791              	.LCFI140:
 1792              		.cfi_def_cfa_register 13
 1793              		@ sp needed
 1794 0014 80BD     		pop	{r7, pc}
 1795              		.cfi_endproc
 1796              	.LFE355:
 1798              		.section	.text.USBD_static_malloc,"ax",%progbits
 1799              		.align	1
 1800              		.global	USBD_static_malloc
 1801              		.syntax unified
 1802              		.thumb
 1803              		.thumb_func
 1804              		.fpu fpv4-sp-d16
 1806              	USBD_static_malloc:
ARM GAS  /tmp/ccpi4Ild.s 			page 44


 1807              	.LFB356:
 703:Src/usbd_conf.c **** 
 704:Src/usbd_conf.c **** /**
 705:Src/usbd_conf.c ****   * @brief  Static single allocation.
 706:Src/usbd_conf.c ****   * @param  size: Size of allocated memory
 707:Src/usbd_conf.c ****   * @retval None
 708:Src/usbd_conf.c ****   */
 709:Src/usbd_conf.c **** void *USBD_static_malloc(uint32_t size)
 710:Src/usbd_conf.c **** {
 1808              		.loc 1 710 1
 1809              		.cfi_startproc
 1810              		@ args = 0, pretend = 0, frame = 8
 1811              		@ frame_needed = 1, uses_anonymous_args = 0
 1812              		@ link register save eliminated.
 1813 0000 80B4     		push	{r7}
 1814              	.LCFI141:
 1815              		.cfi_def_cfa_offset 4
 1816              		.cfi_offset 7, -4
 1817 0002 83B0     		sub	sp, sp, #12
 1818              	.LCFI142:
 1819              		.cfi_def_cfa_offset 16
 1820 0004 00AF     		add	r7, sp, #0
 1821              	.LCFI143:
 1822              		.cfi_def_cfa_register 7
 1823 0006 7860     		str	r0, [r7, #4]
 711:Src/usbd_conf.c ****   static uint32_t mem[(sizeof(USBD_CDC_HandleTypeDef)/4)+1];/* On 32-bit boundary */
 712:Src/usbd_conf.c ****   return mem;
 1824              		.loc 1 712 10
 1825 0008 034B     		ldr	r3, .L65
 713:Src/usbd_conf.c **** }
 1826              		.loc 1 713 1
 1827 000a 1846     		mov	r0, r3
 1828 000c 0C37     		adds	r7, r7, #12
 1829              	.LCFI144:
 1830              		.cfi_def_cfa_offset 4
 1831 000e BD46     		mov	sp, r7
 1832              	.LCFI145:
 1833              		.cfi_def_cfa_register 13
 1834              		@ sp needed
 1835 0010 5DF8047B 		ldr	r7, [sp], #4
 1836              	.LCFI146:
 1837              		.cfi_restore 7
 1838              		.cfi_def_cfa_offset 0
 1839 0014 7047     		bx	lr
 1840              	.L66:
 1841 0016 00BF     		.align	2
 1842              	.L65:
 1843 0018 00000000 		.word	mem.12049
 1844              		.cfi_endproc
 1845              	.LFE356:
 1847              		.section	.text.USBD_static_free,"ax",%progbits
 1848              		.align	1
 1849              		.global	USBD_static_free
 1850              		.syntax unified
 1851              		.thumb
 1852              		.thumb_func
 1853              		.fpu fpv4-sp-d16
ARM GAS  /tmp/ccpi4Ild.s 			page 45


 1855              	USBD_static_free:
 1856              	.LFB357:
 714:Src/usbd_conf.c **** 
 715:Src/usbd_conf.c **** /**
 716:Src/usbd_conf.c ****   * @brief  Dummy memory free
 717:Src/usbd_conf.c ****   * @param  p: Pointer to allocated  memory address
 718:Src/usbd_conf.c ****   * @retval None
 719:Src/usbd_conf.c ****   */
 720:Src/usbd_conf.c **** void USBD_static_free(void *p)
 721:Src/usbd_conf.c **** {
 1857              		.loc 1 721 1
 1858              		.cfi_startproc
 1859              		@ args = 0, pretend = 0, frame = 8
 1860              		@ frame_needed = 1, uses_anonymous_args = 0
 1861              		@ link register save eliminated.
 1862 0000 80B4     		push	{r7}
 1863              	.LCFI147:
 1864              		.cfi_def_cfa_offset 4
 1865              		.cfi_offset 7, -4
 1866 0002 83B0     		sub	sp, sp, #12
 1867              	.LCFI148:
 1868              		.cfi_def_cfa_offset 16
 1869 0004 00AF     		add	r7, sp, #0
 1870              	.LCFI149:
 1871              		.cfi_def_cfa_register 7
 1872 0006 7860     		str	r0, [r7, #4]
 722:Src/usbd_conf.c **** 
 723:Src/usbd_conf.c **** }
 1873              		.loc 1 723 1
 1874 0008 00BF     		nop
 1875 000a 0C37     		adds	r7, r7, #12
 1876              	.LCFI150:
 1877              		.cfi_def_cfa_offset 4
 1878 000c BD46     		mov	sp, r7
 1879              	.LCFI151:
 1880              		.cfi_def_cfa_register 13
 1881              		@ sp needed
 1882 000e 5DF8047B 		ldr	r7, [sp], #4
 1883              	.LCFI152:
 1884              		.cfi_restore 7
 1885              		.cfi_def_cfa_offset 0
 1886 0012 7047     		bx	lr
 1887              		.cfi_endproc
 1888              	.LFE357:
 1890              		.section	.text.SystemClockConfig_Resume,"ax",%progbits
 1891              		.align	1
 1892              		.syntax unified
 1893              		.thumb
 1894              		.thumb_func
 1895              		.fpu fpv4-sp-d16
 1897              	SystemClockConfig_Resume:
 1898              	.LFB358:
 724:Src/usbd_conf.c **** 
 725:Src/usbd_conf.c **** /* USER CODE BEGIN 5 */
 726:Src/usbd_conf.c **** /**
 727:Src/usbd_conf.c ****   * @brief  Configures system clock after wake-up from USB resume callBack:
 728:Src/usbd_conf.c ****   *         enable HSI, PLL and select PLL as system clock source.
ARM GAS  /tmp/ccpi4Ild.s 			page 46


 729:Src/usbd_conf.c ****   * @retval None
 730:Src/usbd_conf.c ****   */
 731:Src/usbd_conf.c **** static void SystemClockConfig_Resume(void)
 732:Src/usbd_conf.c **** {
 1899              		.loc 1 732 1
 1900              		.cfi_startproc
 1901              		@ args = 0, pretend = 0, frame = 0
 1902              		@ frame_needed = 1, uses_anonymous_args = 0
 1903 0000 80B5     		push	{r7, lr}
 1904              	.LCFI153:
 1905              		.cfi_def_cfa_offset 8
 1906              		.cfi_offset 7, -8
 1907              		.cfi_offset 14, -4
 1908 0002 00AF     		add	r7, sp, #0
 1909              	.LCFI154:
 1910              		.cfi_def_cfa_register 7
 733:Src/usbd_conf.c ****   SystemClock_Config();
 1911              		.loc 1 733 3
 1912 0004 FFF7FEFF 		bl	SystemClock_Config
 734:Src/usbd_conf.c **** }
 1913              		.loc 1 734 1
 1914 0008 00BF     		nop
 1915 000a 80BD     		pop	{r7, pc}
 1916              		.cfi_endproc
 1917              	.LFE358:
 1919              		.section	.text.USBD_Get_USB_Status,"ax",%progbits
 1920              		.align	1
 1921              		.syntax unified
 1922              		.thumb
 1923              		.thumb_func
 1924              		.fpu fpv4-sp-d16
 1926              	USBD_Get_USB_Status:
 1927              	.LFB359:
 735:Src/usbd_conf.c **** /* USER CODE END 5 */
 736:Src/usbd_conf.c **** 
 737:Src/usbd_conf.c **** /**
 738:Src/usbd_conf.c ****   * @brief  Retuns the USB status depending on the HAL status:
 739:Src/usbd_conf.c ****   * @param  hal_status: HAL status
 740:Src/usbd_conf.c ****   * @retval USB status
 741:Src/usbd_conf.c ****   */
 742:Src/usbd_conf.c **** USBD_StatusTypeDef USBD_Get_USB_Status(HAL_StatusTypeDef hal_status)
 743:Src/usbd_conf.c **** {
 1928              		.loc 1 743 1
 1929              		.cfi_startproc
 1930              		@ args = 0, pretend = 0, frame = 16
 1931              		@ frame_needed = 1, uses_anonymous_args = 0
 1932              		@ link register save eliminated.
 1933 0000 80B4     		push	{r7}
 1934              	.LCFI155:
 1935              		.cfi_def_cfa_offset 4
 1936              		.cfi_offset 7, -4
 1937 0002 85B0     		sub	sp, sp, #20
 1938              	.LCFI156:
 1939              		.cfi_def_cfa_offset 24
 1940 0004 00AF     		add	r7, sp, #0
 1941              	.LCFI157:
 1942              		.cfi_def_cfa_register 7
ARM GAS  /tmp/ccpi4Ild.s 			page 47


 1943 0006 0346     		mov	r3, r0
 1944 0008 FB71     		strb	r3, [r7, #7]
 744:Src/usbd_conf.c ****   USBD_StatusTypeDef usb_status = USBD_OK;
 1945              		.loc 1 744 22
 1946 000a 0023     		movs	r3, #0
 1947 000c FB73     		strb	r3, [r7, #15]
 745:Src/usbd_conf.c **** 
 746:Src/usbd_conf.c ****   switch (hal_status)
 1948              		.loc 1 746 3
 1949 000e FB79     		ldrb	r3, [r7, #7]	@ zero_extendqisi2
 1950 0010 032B     		cmp	r3, #3
 1951 0012 17D8     		bhi	.L70
 1952 0014 01A2     		adr	r2, .L72
 1953 0016 52F823F0 		ldr	pc, [r2, r3, lsl #2]
 1954 001a 00BF     		.p2align 2
 1955              	.L72:
 1956 001c 2D000000 		.word	.L75+1
 1957 0020 33000000 		.word	.L74+1
 1958 0024 39000000 		.word	.L73+1
 1959 0028 3F000000 		.word	.L71+1
 1960              		.p2align 1
 1961              	.L75:
 747:Src/usbd_conf.c ****   {
 748:Src/usbd_conf.c ****     case HAL_OK :
 749:Src/usbd_conf.c ****       usb_status = USBD_OK;
 1962              		.loc 1 749 18
 1963 002c 0023     		movs	r3, #0
 1964 002e FB73     		strb	r3, [r7, #15]
 750:Src/usbd_conf.c ****     break;
 1965              		.loc 1 750 5
 1966 0030 0BE0     		b	.L76
 1967              	.L74:
 751:Src/usbd_conf.c ****     case HAL_ERROR :
 752:Src/usbd_conf.c ****       usb_status = USBD_FAIL;
 1968              		.loc 1 752 18
 1969 0032 0223     		movs	r3, #2
 1970 0034 FB73     		strb	r3, [r7, #15]
 753:Src/usbd_conf.c ****     break;
 1971              		.loc 1 753 5
 1972 0036 08E0     		b	.L76
 1973              	.L73:
 754:Src/usbd_conf.c ****     case HAL_BUSY :
 755:Src/usbd_conf.c ****       usb_status = USBD_BUSY;
 1974              		.loc 1 755 18
 1975 0038 0123     		movs	r3, #1
 1976 003a FB73     		strb	r3, [r7, #15]
 756:Src/usbd_conf.c ****     break;
 1977              		.loc 1 756 5
 1978 003c 05E0     		b	.L76
 1979              	.L71:
 757:Src/usbd_conf.c ****     case HAL_TIMEOUT :
 758:Src/usbd_conf.c ****       usb_status = USBD_FAIL;
 1980              		.loc 1 758 18
 1981 003e 0223     		movs	r3, #2
 1982 0040 FB73     		strb	r3, [r7, #15]
 759:Src/usbd_conf.c ****     break;
 1983              		.loc 1 759 5
ARM GAS  /tmp/ccpi4Ild.s 			page 48


 1984 0042 02E0     		b	.L76
 1985              	.L70:
 760:Src/usbd_conf.c ****     default :
 761:Src/usbd_conf.c ****       usb_status = USBD_FAIL;
 1986              		.loc 1 761 18
 1987 0044 0223     		movs	r3, #2
 1988 0046 FB73     		strb	r3, [r7, #15]
 762:Src/usbd_conf.c ****     break;
 1989              		.loc 1 762 5
 1990 0048 00BF     		nop
 1991              	.L76:
 763:Src/usbd_conf.c ****   }
 764:Src/usbd_conf.c ****   return usb_status;
 1992              		.loc 1 764 10
 1993 004a FB7B     		ldrb	r3, [r7, #15]	@ zero_extendqisi2
 765:Src/usbd_conf.c **** }
 1994              		.loc 1 765 1
 1995 004c 1846     		mov	r0, r3
 1996 004e 1437     		adds	r7, r7, #20
 1997              	.LCFI158:
 1998              		.cfi_def_cfa_offset 4
 1999 0050 BD46     		mov	sp, r7
 2000              	.LCFI159:
 2001              		.cfi_def_cfa_register 13
 2002              		@ sp needed
 2003 0052 5DF8047B 		ldr	r7, [sp], #4
 2004              	.LCFI160:
 2005              		.cfi_restore 7
 2006              		.cfi_def_cfa_offset 0
 2007 0056 7047     		bx	lr
 2008              		.cfi_endproc
 2009              	.LFE359:
 2011              		.section	.bss.mem.12049,"aw",%nobits
 2012              		.align	2
 2015              	mem.12049:
 2016 0000 00000000 		.space	544
 2016      00000000 
 2016      00000000 
 2016      00000000 
 2016      00000000 
 2017              		.text
 2018              	.Letext0:
 2019              		.file 2 "/opt/gcc-arm-none-eabi-8-2019-q3-update/arm-none-eabi/include/machine/_default_types.h"
 2020              		.file 3 "/opt/gcc-arm-none-eabi-8-2019-q3-update/arm-none-eabi/include/sys/_stdint.h"
 2021              		.file 4 "Drivers/CMSIS/Include/core_cm4.h"
 2022              		.file 5 "Drivers/CMSIS/Device/ST/STM32G4xx/Include/system_stm32g4xx.h"
 2023              		.file 6 "Drivers/CMSIS/Device/ST/STM32G4xx/Include/stm32g474xx.h"
 2024              		.file 7 "Drivers/CMSIS/Device/ST/STM32G4xx/Include/stm32g4xx.h"
 2025              		.file 8 "Drivers/STM32G4xx_HAL_Driver/Inc/stm32g4xx_hal_def.h"
 2026              		.file 9 "Drivers/STM32G4xx_HAL_Driver/Inc/stm32g4xx_hal_gpio.h"
 2027              		.file 10 "Drivers/STM32G4xx_HAL_Driver/Inc/stm32g4xx_hal_flash.h"
 2028              		.file 11 "Drivers/STM32G4xx_HAL_Driver/Inc/stm32g4xx_ll_usb.h"
 2029              		.file 12 "Drivers/STM32G4xx_HAL_Driver/Inc/stm32g4xx_hal_pcd.h"
 2030              		.file 13 "Drivers/STM32G4xx_HAL_Driver/Inc/stm32g4xx_hal.h"
 2031              		.file 14 "/opt/gcc-arm-none-eabi-8-2019-q3-update/lib/gcc/arm-none-eabi/8.3.1/include/stddef.h"
 2032              		.file 15 "/opt/gcc-arm-none-eabi-8-2019-q3-update/arm-none-eabi/include/sys/_types.h"
 2033              		.file 16 "/opt/gcc-arm-none-eabi-8-2019-q3-update/arm-none-eabi/include/sys/reent.h"
ARM GAS  /tmp/ccpi4Ild.s 			page 49


 2034              		.file 17 "/opt/gcc-arm-none-eabi-8-2019-q3-update/arm-none-eabi/include/sys/lock.h"
 2035              		.file 18 "/opt/gcc-arm-none-eabi-8-2019-q3-update/arm-none-eabi/include/stdlib.h"
 2036              		.file 19 "Middlewares/ST/STM32_USB_Device_Library/Core/Inc/usbd_def.h"
 2037              		.file 20 "Middlewares/ST/STM32_USB_Device_Library/Class/CDC/Inc/usbd_cdc.h"
ARM GAS  /tmp/ccpi4Ild.s 			page 50

